SF:/Users/esmevane/Code/projects/oneiros/crates/oneiros-engine/src/cli.rs
FN:27,_RNCNvMNtCsk2dDpYChjKI_14oneiros_engine3cliNtB4_3Cli7execute0B6_
FN:141,_RNCNvMs_NtCsk2dDpYChjKI_14oneiros_engine3cliNtB6_7Command7execute0B8_
FN:199,_RNvNtNtCsk2dDpYChjKI_14oneiros_engine3cli5testss_18doctor_is_a_client
FN:180,_RNvNtNtCsk2dDpYChjKI_14oneiros_engine3cli5testss_22host_run_is_the_server
FN:186,_RNvNtNtCsk2dDpYChjKI_14oneiros_engine3cli5testss_34other_host_subcommands_are_clients
FN:27,_RNvMNtCsk2dDpYChjKI_14oneiros_engine3cliNtB2_3Cli7execute
FN:141,_RNvMs_NtCsk2dDpYChjKI_14oneiros_engine3cliNtB4_7Command7execute
FN:130,_RNvMs_NtCsk2dDpYChjKI_14oneiros_engine3cliNtB4_7Command9is_server
FNDA:1613,_RNCNvMNtCsk2dDpYChjKI_14oneiros_engine3cliNtB4_3Cli7execute0B6_
FNDA:1613,_RNCNvMs_NtCsk2dDpYChjKI_14oneiros_engine3cliNtB6_7Command7execute0B8_
FNDA:1,_RNvNtNtCsk2dDpYChjKI_14oneiros_engine3cli5testss_18doctor_is_a_client
FNDA:1,_RNvNtNtCsk2dDpYChjKI_14oneiros_engine3cli5testss_22host_run_is_the_server
FNDA:1,_RNvNtNtCsk2dDpYChjKI_14oneiros_engine3cli5testss_34other_host_subcommands_are_clients
FNDA:1613,_RNvMNtCsk2dDpYChjKI_14oneiros_engine3cliNtB2_3Cli7execute
FNDA:1613,_RNvMs_NtCsk2dDpYChjKI_14oneiros_engine3cliNtB4_7Command7execute
FNDA:7,_RNvMs_NtCsk2dDpYChjKI_14oneiros_engine3cliNtB4_7Command9is_server
FNF:8
FNH:8
DA:27,1613
DA:28,1613
DA:29,1613
DA:130,7
DA:131,6
DA:132,7
DA:141,1613
DA:142,1613
DA:172,1613
DA:180,1
DA:181,1
DA:182,1
DA:183,1
DA:186,1
DA:187,5
DA:188,1
DA:189,1
DA:190,1
DA:191,1
DA:192,1
DA:193,1
DA:194,5
DA:196,1
DA:199,1
DA:200,1
DA:201,1
BRF:0
BRH:0
LF:28
LH:28
end_of_record
SF:/Users/esmevane/Code/projects/oneiros/crates/oneiros-engine/src/client.rs
FN:73,_RINvMs_NtCsk2dDpYChjKI_14oneiros_engine6clientNtB5_6Client10with_tokenNtNtCs1OjIl8oxbrv_5alloc6string6StringEB7_
FN:53,_RINvMs_NtCsk2dDpYChjKI_14oneiros_engine6clientNtB5_6Client11with_bearerNtNtCs1OjIl8oxbrv_5alloc6string6StringEB7_
FN:46,_RINvMs_NtCsk2dDpYChjKI_14oneiros_engine6clientNtB5_6Client3newNtNtCs1OjIl8oxbrv_5alloc6string6StringEB7_
FN:104,_RINvMs_NtCsk2dDpYChjKI_14oneiros_engine6clientNtB5_6Client3putNtNtCsgkyWZOzrNIG_10serde_json5value5ValueEB7_
FN:104,_RINvMs_NtCsk2dDpYChjKI_14oneiros_engine6clientNtB5_6Client3putNtNtNtNtNtB7_7domains4urge8protocol8requests7SetUrgeEB7_
FN:104,_RINvMs_NtCsk2dDpYChjKI_14oneiros_engine6clientNtB5_6Client3putNtNtNtNtNtB7_7domains5agent8protocol8requests11UpdateAgentEB7_
FN:104,_RINvMs_NtCsk2dDpYChjKI_14oneiros_engine6clientNtB5_6Client3putNtNtNtNtNtB7_7domains5level8protocol8requests8SetLevelEB7_
FN:104,_RINvMs_NtCsk2dDpYChjKI_14oneiros_engine6clientNtB5_6Client3putNtNtNtNtNtB7_7domains6nature8protocol8requests9SetNatureEB7_
FN:104,_RINvMs_NtCsk2dDpYChjKI_14oneiros_engine6clientNtB5_6Client3putNtNtNtNtNtB7_7domains7persona8protocol8requests10SetPersonaEB7_
FN:104,_RINvMs_NtCsk2dDpYChjKI_14oneiros_engine6clientNtB5_6Client3putNtNtNtNtNtB7_7domains7texture8protocol8requests10SetTextureEB7_
FN:104,_RINvMs_NtCsk2dDpYChjKI_14oneiros_engine6clientNtB5_6Client3putNtNtNtNtNtB7_7domains9sensation8protocol8requests12SetSensationEB7_
FN:93,_RINvMs_NtCsk2dDpYChjKI_14oneiros_engine6clientNtB5_6Client4postNtNtCsgkyWZOzrNIG_10serde_json5value5ValueEB7_
FN:93,_RINvMs_NtCsk2dDpYChjKI_14oneiros_engine6clientNtB5_6Client4postNtNtNtNtNtB7_7domains10connection8protocol8requests16CreateConnectionEB7_
FN:93,_RINvMs_NtCsk2dDpYChjKI_14oneiros_engine6clientNtB5_6Client4postNtNtNtNtNtB7_7domains10continuity8protocol8requests11EmergeAgentEB7_
FN:93,_RINvMs_NtCsk2dDpYChjKI_14oneiros_engine6clientNtB5_6Client4postNtNtNtNtNtB7_7domains10continuity8protocol8requests12SenseContentEB7_
FN:93,_RINvMs_NtCsk2dDpYChjKI_14oneiros_engine6clientNtB5_6Client4postNtNtNtNtNtB7_7domains10experience8protocol8requests16CreateExperienceEB7_
FN:93,_RINvMs_NtCsk2dDpYChjKI_14oneiros_engine6clientNtB5_6Client4postNtNtNtNtNtB7_7domains4host8protocol8requests8InitHostEB7_
FN:93,_RINvMs_NtCsk2dDpYChjKI_14oneiros_engine6clientNtB5_6Client4postNtNtNtNtNtB7_7domains4peer8protocol8requests7AddPeerEB7_
FN:93,_RINvMs_NtCsk2dDpYChjKI_14oneiros_engine6clientNtB5_6Client4postNtNtNtNtNtB7_7domains5actor8protocol8requests11CreateActorEB7_
FN:93,_RINvMs_NtCsk2dDpYChjKI_14oneiros_engine6clientNtB5_6Client4postNtNtNtNtNtB7_7domains5agent8protocol8requests11CreateAgentEB7_
FN:93,_RINvMs_NtCsk2dDpYChjKI_14oneiros_engine6clientNtB5_6Client4postNtNtNtNtNtB7_7domains6memory8protocol8requests9AddMemoryEB7_
FN:93,_RINvMs_NtCsk2dDpYChjKI_14oneiros_engine6clientNtB5_6Client4postNtNtNtNtNtB7_7domains6tenant8protocol8requests12CreateTenantEB7_
FN:93,_RINvMs_NtCsk2dDpYChjKI_14oneiros_engine6clientNtB5_6Client4postNtNtNtNtNtB7_7domains6ticket8protocol8requests12CreateTicketEB7_
FN:93,_RINvMs_NtCsk2dDpYChjKI_14oneiros_engine6clientNtB5_6Client4postNtNtNtNtNtB7_7domains6ticket8protocol8requests14ValidateTicketEB7_
FN:93,_RINvMs_NtCsk2dDpYChjKI_14oneiros_engine6clientNtB5_6Client4postNtNtNtNtNtB7_7domains7project8protocol8requests13CreateProjectEB7_
FN:93,_RINvMs_NtCsk2dDpYChjKI_14oneiros_engine6clientNtB5_6Client4postNtNtNtNtNtB7_7domains7storage8protocol8requests13UploadStorageEB7_
FN:93,_RINvMs_NtCsk2dDpYChjKI_14oneiros_engine6clientNtB5_6Client4postNtNtNtNtNtB7_7domains8bookmark8protocol8requests13MergeBookmarkEB7_
FN:93,_RINvMs_NtCsk2dDpYChjKI_14oneiros_engine6clientNtB5_6Client4postNtNtNtNtNtB7_7domains8bookmark8protocol8requests13ShareBookmarkEB7_
FN:93,_RINvMs_NtCsk2dDpYChjKI_14oneiros_engine6clientNtB5_6Client4postNtNtNtNtNtB7_7domains8bookmark8protocol8requests14CreateBookmarkEB7_
FN:93,_RINvMs_NtCsk2dDpYChjKI_14oneiros_engine6clientNtB5_6Client4postNtNtNtNtNtB7_7domains8bookmark8protocol8requests14FollowBookmarkEB7_
FN:93,_RINvMs_NtCsk2dDpYChjKI_14oneiros_engine6clientNtB5_6Client4postNtNtNtNtNtB7_7domains8bookmark8protocol8requests14SwitchBookmarkEB7_
FN:93,_RINvMs_NtCsk2dDpYChjKI_14oneiros_engine6clientNtB5_6Client4postNtNtNtNtNtB7_7domains8bookmark8protocol8requests15CollectBookmarkEB7_
FN:93,_RINvMs_NtCsk2dDpYChjKI_14oneiros_engine6clientNtB5_6Client4postNtNtNtNtNtB7_7domains8bookmark8protocol8requests16UnfollowBookmarkEB7_
FN:93,_RINvMs_NtCsk2dDpYChjKI_14oneiros_engine6clientNtB5_6Client4postNtNtNtNtNtB7_7domains9cognition8protocol8requests12AddCognitionEB7_
FN:93,_RINvMs_NtCsk2dDpYChjKI_14oneiros_engine6clientNtB5_6Client4postuEB7_
FN:58,_RNCINvMs_NtCsk2dDpYChjKI_14oneiros_engine6clientNtB7_6Client11with_bearerNtNtCs1OjIl8oxbrv_5alloc6string6StringE0B9_
FN:108,_RNCINvMs_NtCsk2dDpYChjKI_14oneiros_engine6clientNtB7_6Client3putNtNtCsgkyWZOzrNIG_10serde_json5value5ValueE0B9_
FN:108,_RNCINvMs_NtCsk2dDpYChjKI_14oneiros_engine6clientNtB7_6Client3putNtNtNtNtNtB9_7domains4urge8protocol8requests7SetUrgeE0B9_
FN:108,_RNCINvMs_NtCsk2dDpYChjKI_14oneiros_engine6clientNtB7_6Client3putNtNtNtNtNtB9_7domains5agent8protocol8requests11UpdateAgentE0B9_
FN:108,_RNCINvMs_NtCsk2dDpYChjKI_14oneiros_engine6clientNtB7_6Client3putNtNtNtNtNtB9_7domains5level8protocol8requests8SetLevelE0B9_
FN:108,_RNCINvMs_NtCsk2dDpYChjKI_14oneiros_engine6clientNtB7_6Client3putNtNtNtNtNtB9_7domains6nature8protocol8requests9SetNatureE0B9_
FN:108,_RNCINvMs_NtCsk2dDpYChjKI_14oneiros_engine6clientNtB7_6Client3putNtNtNtNtNtB9_7domains7persona8protocol8requests10SetPersonaE0B9_
FN:108,_RNCINvMs_NtCsk2dDpYChjKI_14oneiros_engine6clientNtB7_6Client3putNtNtNtNtNtB9_7domains7texture8protocol8requests10SetTextureE0B9_
FN:108,_RNCINvMs_NtCsk2dDpYChjKI_14oneiros_engine6clientNtB7_6Client3putNtNtNtNtNtB9_7domains9sensation8protocol8requests12SetSensationE0B9_
FN:97,_RNCINvMs_NtCsk2dDpYChjKI_14oneiros_engine6clientNtB7_6Client4postNtNtCsgkyWZOzrNIG_10serde_json5value5ValueE0B9_
FN:97,_RNCINvMs_NtCsk2dDpYChjKI_14oneiros_engine6clientNtB7_6Client4postNtNtNtNtNtB9_7domains10connection8protocol8requests16CreateConnectionE0B9_
FN:97,_RNCINvMs_NtCsk2dDpYChjKI_14oneiros_engine6clientNtB7_6Client4postNtNtNtNtNtB9_7domains10continuity8protocol8requests11EmergeAgentE0B9_
FN:97,_RNCINvMs_NtCsk2dDpYChjKI_14oneiros_engine6clientNtB7_6Client4postNtNtNtNtNtB9_7domains10continuity8protocol8requests12SenseContentE0B9_
FN:97,_RNCINvMs_NtCsk2dDpYChjKI_14oneiros_engine6clientNtB7_6Client4postNtNtNtNtNtB9_7domains10experience8protocol8requests16CreateExperienceE0B9_
FN:97,_RNCINvMs_NtCsk2dDpYChjKI_14oneiros_engine6clientNtB7_6Client4postNtNtNtNtNtB9_7domains4host8protocol8requests8InitHostE0B9_
FN:97,_RNCINvMs_NtCsk2dDpYChjKI_14oneiros_engine6clientNtB7_6Client4postNtNtNtNtNtB9_7domains4peer8protocol8requests7AddPeerE0B9_
FN:97,_RNCINvMs_NtCsk2dDpYChjKI_14oneiros_engine6clientNtB7_6Client4postNtNtNtNtNtB9_7domains5actor8protocol8requests11CreateActorE0B9_
FN:97,_RNCINvMs_NtCsk2dDpYChjKI_14oneiros_engine6clientNtB7_6Client4postNtNtNtNtNtB9_7domains5agent8protocol8requests11CreateAgentE0B9_
FN:97,_RNCINvMs_NtCsk2dDpYChjKI_14oneiros_engine6clientNtB7_6Client4postNtNtNtNtNtB9_7domains6memory8protocol8requests9AddMemoryE0B9_
FN:97,_RNCINvMs_NtCsk2dDpYChjKI_14oneiros_engine6clientNtB7_6Client4postNtNtNtNtNtB9_7domains6tenant8protocol8requests12CreateTenantE0B9_
FN:97,_RNCINvMs_NtCsk2dDpYChjKI_14oneiros_engine6clientNtB7_6Client4postNtNtNtNtNtB9_7domains6ticket8protocol8requests12CreateTicketE0B9_
FN:97,_RNCINvMs_NtCsk2dDpYChjKI_14oneiros_engine6clientNtB7_6Client4postNtNtNtNtNtB9_7domains6ticket8protocol8requests14ValidateTicketE0B9_
FN:97,_RNCINvMs_NtCsk2dDpYChjKI_14oneiros_engine6clientNtB7_6Client4postNtNtNtNtNtB9_7domains7project8protocol8requests13CreateProjectE0B9_
FN:97,_RNCINvMs_NtCsk2dDpYChjKI_14oneiros_engine6clientNtB7_6Client4postNtNtNtNtNtB9_7domains7storage8protocol8requests13UploadStorageE0B9_
FN:97,_RNCINvMs_NtCsk2dDpYChjKI_14oneiros_engine6clientNtB7_6Client4postNtNtNtNtNtB9_7domains8bookmark8protocol8requests13MergeBookmarkE0B9_
FN:97,_RNCINvMs_NtCsk2dDpYChjKI_14oneiros_engine6clientNtB7_6Client4postNtNtNtNtNtB9_7domains8bookmark8protocol8requests13ShareBookmarkE0B9_
FN:97,_RNCINvMs_NtCsk2dDpYChjKI_14oneiros_engine6clientNtB7_6Client4postNtNtNtNtNtB9_7domains8bookmark8protocol8requests14CreateBookmarkE0B9_
FN:97,_RNCINvMs_NtCsk2dDpYChjKI_14oneiros_engine6clientNtB7_6Client4postNtNtNtNtNtB9_7domains8bookmark8protocol8requests14FollowBookmarkE0B9_
FN:97,_RNCINvMs_NtCsk2dDpYChjKI_14oneiros_engine6clientNtB7_6Client4postNtNtNtNtNtB9_7domains8bookmark8protocol8requests14SwitchBookmarkE0B9_
FN:97,_RNCINvMs_NtCsk2dDpYChjKI_14oneiros_engine6clientNtB7_6Client4postNtNtNtNtNtB9_7domains8bookmark8protocol8requests15CollectBookmarkE0B9_
FN:97,_RNCINvMs_NtCsk2dDpYChjKI_14oneiros_engine6clientNtB7_6Client4postNtNtNtNtNtB9_7domains8bookmark8protocol8requests16UnfollowBookmarkE0B9_
FN:97,_RNCINvMs_NtCsk2dDpYChjKI_14oneiros_engine6clientNtB7_6Client4postNtNtNtNtNtB9_7domains9cognition8protocol8requests12AddCognitionE0B9_
FN:97,_RNCINvMs_NtCsk2dDpYChjKI_14oneiros_engine6clientNtB7_6Client4postuE0B9_
FN:120,_RNCNvMs_NtCsk2dDpYChjKI_14oneiros_engine6clientNtB6_6Client15handle_response0B8_
FN:86,_RNCNvMs_NtCsk2dDpYChjKI_14oneiros_engine6clientNtB6_6Client3get0B8_
FN:115,_RNCNvMs_NtCsk2dDpYChjKI_14oneiros_engine6clientNtB6_6Client6delete0B8_
FN:160,_RNCNvXs0_NtCsk2dDpYChjKI_14oneiros_engine6clientNtB7_6ClientNtNtB9_6config10FromConfig11from_config0B9_
FN:120,_RNvMs_NtCsk2dDpYChjKI_14oneiros_engine6clientNtB4_6Client15handle_response
FN:86,_RNvMs_NtCsk2dDpYChjKI_14oneiros_engine6clientNtB4_6Client3get
FN:80,_RNvMs_NtCsk2dDpYChjKI_14oneiros_engine6clientNtB4_6Client3url
FN:115,_RNvMs_NtCsk2dDpYChjKI_14oneiros_engine6clientNtB4_6Client6delete
FN:31,_RNvXNtCsk2dDpYChjKI_14oneiros_engine6clientNtB2_11ClientErrorNtNtNtCs1iC2TOwIRjP_9axum_core8response13into_response12IntoResponse13into_response
FN:152,_RNvXs0_NtCsk2dDpYChjKI_14oneiros_engine6clientNtB5_6ClientNtNtB7_6config10FromConfig11from_config
FNDA:2,_RINvMs_NtCsk2dDpYChjKI_14oneiros_engine6clientNtB5_6Client10with_tokenNtNtCs1OjIl8oxbrv_5alloc6string6StringEB7_
FNDA:1696,_RINvMs_NtCsk2dDpYChjKI_14oneiros_engine6clientNtB5_6Client11with_bearerNtNtCs1OjIl8oxbrv_5alloc6string6StringEB7_
FNDA:2,_RINvMs_NtCsk2dDpYChjKI_14oneiros_engine6clientNtB5_6Client3newNtNtCs1OjIl8oxbrv_5alloc6string6StringEB7_
FNDA:3,_RINvMs_NtCsk2dDpYChjKI_14oneiros_engine6clientNtB5_6Client3putNtNtCsgkyWZOzrNIG_10serde_json5value5ValueEB7_
FNDA:11,_RINvMs_NtCsk2dDpYChjKI_14oneiros_engine6clientNtB5_6Client3putNtNtNtNtNtB7_7domains4urge8protocol8requests7SetUrgeEB7_
FNDA:3,_RINvMs_NtCsk2dDpYChjKI_14oneiros_engine6clientNtB5_6Client3putNtNtNtNtNtB7_7domains5agent8protocol8requests11UpdateAgentEB7_
FNDA:43,_RINvMs_NtCsk2dDpYChjKI_14oneiros_engine6clientNtB5_6Client3putNtNtNtNtNtB7_7domains5level8protocol8requests8SetLevelEB7_
FNDA:19,_RINvMs_NtCsk2dDpYChjKI_14oneiros_engine6clientNtB5_6Client3putNtNtNtNtNtB7_7domains6nature8protocol8requests9SetNatureEB7_
FNDA:90,_RINvMs_NtCsk2dDpYChjKI_14oneiros_engine6clientNtB5_6Client3putNtNtNtNtNtB7_7domains7persona8protocol8requests10SetPersonaEB7_
FNDA:55,_RINvMs_NtCsk2dDpYChjKI_14oneiros_engine6clientNtB5_6Client3putNtNtNtNtNtB7_7domains7texture8protocol8requests10SetTextureEB7_
FNDA:40,_RINvMs_NtCsk2dDpYChjKI_14oneiros_engine6clientNtB5_6Client3putNtNtNtNtNtB7_7domains9sensation8protocol8requests12SetSensationEB7_
FNDA:69,_RINvMs_NtCsk2dDpYChjKI_14oneiros_engine6clientNtB5_6Client4postNtNtCsgkyWZOzrNIG_10serde_json5value5ValueEB7_
FNDA:19,_RINvMs_NtCsk2dDpYChjKI_14oneiros_engine6clientNtB5_6Client4postNtNtNtNtNtB7_7domains10connection8protocol8requests16CreateConnectionEB7_
FNDA:23,_RINvMs_NtCsk2dDpYChjKI_14oneiros_engine6clientNtB5_6Client4postNtNtNtNtNtB7_7domains10continuity8protocol8requests11EmergeAgentEB7_
FNDA:1,_RINvMs_NtCsk2dDpYChjKI_14oneiros_engine6clientNtB5_6Client4postNtNtNtNtNtB7_7domains10continuity8protocol8requests12SenseContentEB7_
FNDA:34,_RINvMs_NtCsk2dDpYChjKI_14oneiros_engine6clientNtB5_6Client4postNtNtNtNtNtB7_7domains10experience8protocol8requests16CreateExperienceEB7_
FNDA:303,_RINvMs_NtCsk2dDpYChjKI_14oneiros_engine6clientNtB5_6Client4postNtNtNtNtNtB7_7domains4host8protocol8requests8InitHostEB7_
FNDA:0,_RINvMs_NtCsk2dDpYChjKI_14oneiros_engine6clientNtB5_6Client4postNtNtNtNtNtB7_7domains4peer8protocol8requests7AddPeerEB7_
FNDA:1,_RINvMs_NtCsk2dDpYChjKI_14oneiros_engine6clientNtB5_6Client4postNtNtNtNtNtB7_7domains5actor8protocol8requests11CreateActorEB7_
FNDA:160,_RINvMs_NtCsk2dDpYChjKI_14oneiros_engine6clientNtB5_6Client4postNtNtNtNtNtB7_7domains5agent8protocol8requests11CreateAgentEB7_
FNDA:76,_RINvMs_NtCsk2dDpYChjKI_14oneiros_engine6clientNtB5_6Client4postNtNtNtNtNtB7_7domains6memory8protocol8requests9AddMemoryEB7_
FNDA:2,_RINvMs_NtCsk2dDpYChjKI_14oneiros_engine6clientNtB5_6Client4postNtNtNtNtNtB7_7domains6tenant8protocol8requests12CreateTenantEB7_
FNDA:1,_RINvMs_NtCsk2dDpYChjKI_14oneiros_engine6clientNtB5_6Client4postNtNtNtNtNtB7_7domains6ticket8protocol8requests12CreateTicketEB7_
FNDA:1,_RINvMs_NtCsk2dDpYChjKI_14oneiros_engine6clientNtB5_6Client4postNtNtNtNtNtB7_7domains6ticket8protocol8requests14ValidateTicketEB7_
FNDA:293,_RINvMs_NtCsk2dDpYChjKI_14oneiros_engine6clientNtB5_6Client4postNtNtNtNtNtB7_7domains7project8protocol8requests13CreateProjectEB7_
FNDA:15,_RINvMs_NtCsk2dDpYChjKI_14oneiros_engine6clientNtB5_6Client4postNtNtNtNtNtB7_7domains7storage8protocol8requests13UploadStorageEB7_
FNDA:4,_RINvMs_NtCsk2dDpYChjKI_14oneiros_engine6clientNtB5_6Client4postNtNtNtNtNtB7_7domains8bookmark8protocol8requests13MergeBookmarkEB7_
FNDA:9,_RINvMs_NtCsk2dDpYChjKI_14oneiros_engine6clientNtB5_6Client4postNtNtNtNtNtB7_7domains8bookmark8protocol8requests13ShareBookmarkEB7_
FNDA:1,_RINvMs_NtCsk2dDpYChjKI_14oneiros_engine6clientNtB5_6Client4postNtNtNtNtNtB7_7domains8bookmark8protocol8requests14CreateBookmarkEB7_
FNDA:9,_RINvMs_NtCsk2dDpYChjKI_14oneiros_engine6clientNtB5_6Client4postNtNtNtNtNtB7_7domains8bookmark8protocol8requests14FollowBookmarkEB7_
FNDA:8,_RINvMs_NtCsk2dDpYChjKI_14oneiros_engine6clientNtB5_6Client4postNtNtNtNtNtB7_7domains8bookmark8protocol8requests14SwitchBookmarkEB7_
FNDA:11,_RINvMs_NtCsk2dDpYChjKI_14oneiros_engine6clientNtB5_6Client4postNtNtNtNtNtB7_7domains8bookmark8protocol8requests15CollectBookmarkEB7_
FNDA:1,_RINvMs_NtCsk2dDpYChjKI_14oneiros_engine6clientNtB5_6Client4postNtNtNtNtNtB7_7domains8bookmark8protocol8requests16UnfollowBookmarkEB7_
FNDA:238,_RINvMs_NtCsk2dDpYChjKI_14oneiros_engine6clientNtB5_6Client4postNtNtNtNtNtB7_7domains9cognition8protocol8requests12AddCognitionEB7_
FNDA:118,_RINvMs_NtCsk2dDpYChjKI_14oneiros_engine6clientNtB5_6Client4postuEB7_
FNDA:0,_RNCINvMs_NtCsk2dDpYChjKI_14oneiros_engine6clientNtB7_6Client11with_bearerNtNtCs1OjIl8oxbrv_5alloc6string6StringE0B9_
FNDA:3,_RNCINvMs_NtCsk2dDpYChjKI_14oneiros_engine6clientNtB7_6Client3putNtNtCsgkyWZOzrNIG_10serde_json5value5ValueE0B9_
FNDA:11,_RNCINvMs_NtCsk2dDpYChjKI_14oneiros_engine6clientNtB7_6Client3putNtNtNtNtNtB9_7domains4urge8protocol8requests7SetUrgeE0B9_
FNDA:3,_RNCINvMs_NtCsk2dDpYChjKI_14oneiros_engine6clientNtB7_6Client3putNtNtNtNtNtB9_7domains5agent8protocol8requests11UpdateAgentE0B9_
FNDA:43,_RNCINvMs_NtCsk2dDpYChjKI_14oneiros_engine6clientNtB7_6Client3putNtNtNtNtNtB9_7domains5level8protocol8requests8SetLevelE0B9_
FNDA:19,_RNCINvMs_NtCsk2dDpYChjKI_14oneiros_engine6clientNtB7_6Client3putNtNtNtNtNtB9_7domains6nature8protocol8requests9SetNatureE0B9_
FNDA:90,_RNCINvMs_NtCsk2dDpYChjKI_14oneiros_engine6clientNtB7_6Client3putNtNtNtNtNtB9_7domains7persona8protocol8requests10SetPersonaE0B9_
FNDA:55,_RNCINvMs_NtCsk2dDpYChjKI_14oneiros_engine6clientNtB7_6Client3putNtNtNtNtNtB9_7domains7texture8protocol8requests10SetTextureE0B9_
FNDA:40,_RNCINvMs_NtCsk2dDpYChjKI_14oneiros_engine6clientNtB7_6Client3putNtNtNtNtNtB9_7domains9sensation8protocol8requests12SetSensationE0B9_
FNDA:69,_RNCINvMs_NtCsk2dDpYChjKI_14oneiros_engine6clientNtB7_6Client4postNtNtCsgkyWZOzrNIG_10serde_json5value5ValueE0B9_
FNDA:19,_RNCINvMs_NtCsk2dDpYChjKI_14oneiros_engine6clientNtB7_6Client4postNtNtNtNtNtB9_7domains10connection8protocol8requests16CreateConnectionE0B9_
FNDA:23,_RNCINvMs_NtCsk2dDpYChjKI_14oneiros_engine6clientNtB7_6Client4postNtNtNtNtNtB9_7domains10continuity8protocol8requests11EmergeAgentE0B9_
FNDA:1,_RNCINvMs_NtCsk2dDpYChjKI_14oneiros_engine6clientNtB7_6Client4postNtNtNtNtNtB9_7domains10continuity8protocol8requests12SenseContentE0B9_
FNDA:34,_RNCINvMs_NtCsk2dDpYChjKI_14oneiros_engine6clientNtB7_6Client4postNtNtNtNtNtB9_7domains10experience8protocol8requests16CreateExperienceE0B9_
FNDA:303,_RNCINvMs_NtCsk2dDpYChjKI_14oneiros_engine6clientNtB7_6Client4postNtNtNtNtNtB9_7domains4host8protocol8requests8InitHostE0B9_
FNDA:0,_RNCINvMs_NtCsk2dDpYChjKI_14oneiros_engine6clientNtB7_6Client4postNtNtNtNtNtB9_7domains4peer8protocol8requests7AddPeerE0B9_
FNDA:1,_RNCINvMs_NtCsk2dDpYChjKI_14oneiros_engine6clientNtB7_6Client4postNtNtNtNtNtB9_7domains5actor8protocol8requests11CreateActorE0B9_
FNDA:160,_RNCINvMs_NtCsk2dDpYChjKI_14oneiros_engine6clientNtB7_6Client4postNtNtNtNtNtB9_7domains5agent8protocol8requests11CreateAgentE0B9_
FNDA:76,_RNCINvMs_NtCsk2dDpYChjKI_14oneiros_engine6clientNtB7_6Client4postNtNtNtNtNtB9_7domains6memory8protocol8requests9AddMemoryE0B9_
FNDA:2,_RNCINvMs_NtCsk2dDpYChjKI_14oneiros_engine6clientNtB7_6Client4postNtNtNtNtNtB9_7domains6tenant8protocol8requests12CreateTenantE0B9_
FNDA:1,_RNCINvMs_NtCsk2dDpYChjKI_14oneiros_engine6clientNtB7_6Client4postNtNtNtNtNtB9_7domains6ticket8protocol8requests12CreateTicketE0B9_
FNDA:1,_RNCINvMs_NtCsk2dDpYChjKI_14oneiros_engine6clientNtB7_6Client4postNtNtNtNtNtB9_7domains6ticket8protocol8requests14ValidateTicketE0B9_
FNDA:293,_RNCINvMs_NtCsk2dDpYChjKI_14oneiros_engine6clientNtB7_6Client4postNtNtNtNtNtB9_7domains7project8protocol8requests13CreateProjectE0B9_
FNDA:15,_RNCINvMs_NtCsk2dDpYChjKI_14oneiros_engine6clientNtB7_6Client4postNtNtNtNtNtB9_7domains7storage8protocol8requests13UploadStorageE0B9_
FNDA:4,_RNCINvMs_NtCsk2dDpYChjKI_14oneiros_engine6clientNtB7_6Client4postNtNtNtNtNtB9_7domains8bookmark8protocol8requests13MergeBookmarkE0B9_
FNDA:9,_RNCINvMs_NtCsk2dDpYChjKI_14oneiros_engine6clientNtB7_6Client4postNtNtNtNtNtB9_7domains8bookmark8protocol8requests13ShareBookmarkE0B9_
FNDA:1,_RNCINvMs_NtCsk2dDpYChjKI_14oneiros_engine6clientNtB7_6Client4postNtNtNtNtNtB9_7domains8bookmark8protocol8requests14CreateBookmarkE0B9_
FNDA:9,_RNCINvMs_NtCsk2dDpYChjKI_14oneiros_engine6clientNtB7_6Client4postNtNtNtNtNtB9_7domains8bookmark8protocol8requests14FollowBookmarkE0B9_
FNDA:8,_RNCINvMs_NtCsk2dDpYChjKI_14oneiros_engine6clientNtB7_6Client4postNtNtNtNtNtB9_7domains8bookmark8protocol8requests14SwitchBookmarkE0B9_
FNDA:11,_RNCINvMs_NtCsk2dDpYChjKI_14oneiros_engine6clientNtB7_6Client4postNtNtNtNtNtB9_7domains8bookmark8protocol8requests15CollectBookmarkE0B9_
FNDA:1,_RNCINvMs_NtCsk2dDpYChjKI_14oneiros_engine6clientNtB7_6Client4postNtNtNtNtNtB9_7domains8bookmark8protocol8requests16UnfollowBookmarkE0B9_
FNDA:238,_RNCINvMs_NtCsk2dDpYChjKI_14oneiros_engine6clientNtB7_6Client4postNtNtNtNtNtB9_7domains9cognition8protocol8requests12AddCognitionE0B9_
FNDA:118,_RNCINvMs_NtCsk2dDpYChjKI_14oneiros_engine6clientNtB7_6Client4postuE0B9_
FNDA:1965,_RNCNvMs_NtCsk2dDpYChjKI_14oneiros_engine6clientNtB6_6Client15handle_response0B8_
FNDA:278,_RNCNvMs_NtCsk2dDpYChjKI_14oneiros_engine6clientNtB6_6Client3get0B8_
FNDA:26,_RNCNvMs_NtCsk2dDpYChjKI_14oneiros_engine6clientNtB6_6Client6delete0B8_
FNDA:596,_RNCNvXs0_NtCsk2dDpYChjKI_14oneiros_engine6clientNtB7_6ClientNtNtB9_6config10FromConfig11from_config0B9_
FNDA:1965,_RNvMs_NtCsk2dDpYChjKI_14oneiros_engine6clientNtB4_6Client15handle_response
FNDA:278,_RNvMs_NtCsk2dDpYChjKI_14oneiros_engine6clientNtB4_6Client3get
FNDA:1965,_RNvMs_NtCsk2dDpYChjKI_14oneiros_engine6clientNtB4_6Client3url
FNDA:26,_RNvMs_NtCsk2dDpYChjKI_14oneiros_engine6clientNtB4_6Client6delete
FNDA:0,_RNvXNtCsk2dDpYChjKI_14oneiros_engine6clientNtB2_11ClientErrorNtNtNtCs1iC2TOwIRjP_9axum_core8response13into_response12IntoResponse13into_response
FNDA:1692,_RNvXs0_NtCsk2dDpYChjKI_14oneiros_engine6clientNtB5_6ClientNtNtB7_6config10FromConfig11from_config
FNF:18
FNH:16
DA:31,0
DA:32,0
DA:46,2
DA:47,2
DA:48,2
DA:49,2
DA:50,2
DA:51,2
DA:53,1696
DA:54,1696
DA:55,1696
DA:56,1696
DA:57,1696
DA:58,1696
DA:59,0
DA:60,0
DA:61,1696
DA:63,1696
DA:64,1696
DA:65,1696
DA:67,1696
DA:68,1696
DA:69,1696
DA:70,1696
DA:71,1696
DA:73,2
DA:74,2
DA:75,2
DA:76,2
DA:77,2
DA:78,2
DA:80,1965
DA:81,1965
DA:82,1965
DA:86,278
DA:89,278
DA:93,1397
DA:94,1397
DA:95,1397
DA:96,1397
DA:97,1397
DA:100,1397
DA:104,264
DA:105,264
DA:106,264
DA:107,264
DA:108,264
DA:111,264
DA:115,26
DA:118,26
DA:120,1965
DA:121,1965
DA:123,1965
DA:124,32
DA:125,32
DA:126,1933
DA:128,1933
DA:129,3
DA:130,3
DA:131,1930
DA:133,1930
DA:134,9
DA:135,9
DA:136,9
DA:137,9
DA:138,9
DA:139,1921
DA:141,1921
DA:142,1965
DA:152,1692
DA:153,1692
DA:154,1096
DA:156,596
DA:157,596
DA:158,596
DA:159,596
DA:160,596
DA:161,596
DA:162,0
DA:164,596
DA:167,1692
DA:168,1692
BRF:0
BRH:0
LF:90
LH:83
end_of_record
SF:/Users/esmevane/Code/projects/oneiros/crates/oneiros-engine/src/config.rs
FN:744,_RNCNvNtNtCsk2dDpYChjKI_14oneiros_engine6config5testss_22env_var_overrides_file0B7_
FN:474,_RNvNtNtCsk2dDpYChjKI_14oneiros_engine6config5tests10resolve_in
FN:467,_RNvNtNtCsk2dDpYChjKI_14oneiros_engine6config5tests12write_config
FN:455,_RNvNtNtCsk2dDpYChjKI_14oneiros_engine6config5tests15empty_overrides
FN:460,_RNvNtNtCsk2dDpYChjKI_14oneiros_engine6config5tests9config_in
FN:740,_RNvNtNtCsk2dDpYChjKI_14oneiros_engine6config5testss_22env_var_overrides_file
FN:684,_RNvNtNtCsk2dDpYChjKI_14oneiros_engine6config5testss_24file_overrides_verbosity
FN:634,_RNvNtNtCsk2dDpYChjKI_14oneiros_engine6config5testss_26file_overrides_output_mode
FN:494,_RNvNtNtCsk2dDpYChjKI_14oneiros_engine6config5testss_27empty_file_returns_defaults
FN:675,_RNvNtNtCsk2dDpYChjKI_14oneiros_engine6config5testss_27file_overrides_color_choice
FN:483,_RNvNtNtCsk2dDpYChjKI_14oneiros_engine6config5testss_29missing_file_returns_defaults
FN:569,_RNvNtNtCsk2dDpYChjKI_14oneiros_engine6config5testss_31cli_overrides_file_and_defaults
FN:643,_RNvNtNtCsk2dDpYChjKI_14oneiros_engine6config5testss_34file_overrides_health_check_delays
FN:549,_RNvNtNtCsk2dDpYChjKI_14oneiros_engine6config5testss_35file_overrides_default_dream_config
FN:532,_RNvNtNtCsk2dDpYChjKI_14oneiros_engine6config5testss_35file_overrides_default_fetch_config
FN:658,_RNvNtNtCsk2dDpYChjKI_14oneiros_engine6config5testss_36partial_dream_section_fills_defaults
FN:504,_RNvNtNtCsk2dDpYChjKI_14oneiros_engine6config5testss_37malformed_file_falls_back_to_defaults
FN:514,_RNvNtNtCsk2dDpYChjKI_14oneiros_engine6config5testss_38file_overrides_default_service_address
FN:693,_RNvNtNtCsk2dDpYChjKI_14oneiros_engine6config5testss_40unknown_field_in_config_file_is_rejected
FN:763,_RNvNtNtCsk2dDpYChjKI_14oneiros_engine6config5testss_43two_way_coverage_config_and_overrides_match
FN:715,_RNvNtNtCsk2dDpYChjKI_14oneiros_engine6config5testss_44cli_data_dir_determines_config_file_location
FN:606,_RNvNtNtCsk2dDpYChjKI_14oneiros_engine6config5testss_45partial_cli_overrides_let_file_values_through
FN:115,_RINvNtCsk2dDpYChjKI_14oneiros_engine6config25serialize_duration_optionNtNtNtCscdK7xfneT5H_7figment5value3ser15ValueSerializerEB4_
FN:376,_RNCNvMs4_NtCsk2dDpYChjKI_14oneiros_engine6configNtB7_6Config5token0B9_
FN:422,_RNCNvMs4_NtCsk2dDpYChjKI_14oneiros_engine6configNtB7_6Config7resolve0B9_
FN:18,_RNCNvNtCsk2dDpYChjKI_14oneiros_engine6config19detect_project_name0B5_
FN:135,_RNvMNtCsk2dDpYChjKI_14oneiros_engine6configNtB2_11DatabaseCli8is_empty
FN:214,_RNvMs0_NtCsk2dDpYChjKI_14oneiros_engine6configNtB5_10ServiceCli8is_empty
FN:224,_RNvMs1_NtCsk2dDpYChjKI_14oneiros_engine6configNtB5_8DreamCli8is_empty
FN:235,_RNvMs2_NtCsk2dDpYChjKI_14oneiros_engine6configNtB5_8FetchCli8is_empty
FN:307,_RNvMs4_NtCsk2dDpYChjKI_14oneiros_engine6configNtB5_6Config12service_addr
FN:349,_RNvMs4_NtCsk2dDpYChjKI_14oneiros_engine6configNtB5_6Config13bookmark_conn
FN:340,_RNvMs4_NtCsk2dDpYChjKI_14oneiros_engine6configNtB5_6Config13bookmarks_dir
FN:329,_RNvMs4_NtCsk2dDpYChjKI_14oneiros_engine6configNtB5_6Config14events_db_path
FN:334,_RNvMs4_NtCsk2dDpYChjKI_14oneiros_engine6configNtB5_6Config16bookmark_db_path
FN:371,_RNvMs4_NtCsk2dDpYChjKI_14oneiros_engine6configNtB5_6Config5token
FN:322,_RNvMs4_NtCsk2dDpYChjKI_14oneiros_engine6configNtB5_6Config7host_db
FN:402,_RNvMs4_NtCsk2dDpYChjKI_14oneiros_engine6configNtB5_6Config7resolve
FN:312,_RNvMs4_NtCsk2dDpYChjKI_14oneiros_engine6configNtB5_6Config8base_url
FN:317,_RNvMs4_NtCsk2dDpYChjKI_14oneiros_engine6configNtB5_6Config8platform
FN:151,_RNvMs_NtCsk2dDpYChjKI_14oneiros_engine6configNtB4_10GeneralCli8is_empty
FN:23,_RNvNtCsk2dDpYChjKI_14oneiros_engine6config16default_data_dir
FN:13,_RNvNtCsk2dDpYChjKI_14oneiros_engine6config19detect_project_name
FN:288,_RNvXs3_NtCsk2dDpYChjKI_14oneiros_engine6configNtB5_6ConfigNtNtCsl8K0bEFm1U0_4core7default7Default7default
FNDA:1,_RNCNvNtNtCsk2dDpYChjKI_14oneiros_engine6config5testss_22env_var_overrides_file0B7_
FNDA:11,_RNvNtNtCsk2dDpYChjKI_14oneiros_engine6config5tests10resolve_in
FNDA:14,_RNvNtNtCsk2dDpYChjKI_14oneiros_engine6config5tests12write_config
FNDA:12,_RNvNtNtCsk2dDpYChjKI_14oneiros_engine6config5tests15empty_overrides
FNDA:3,_RNvNtNtCsk2dDpYChjKI_14oneiros_engine6config5tests9config_in
FNDA:1,_RNvNtNtCsk2dDpYChjKI_14oneiros_engine6config5testss_22env_var_overrides_file
FNDA:1,_RNvNtNtCsk2dDpYChjKI_14oneiros_engine6config5testss_24file_overrides_verbosity
FNDA:1,_RNvNtNtCsk2dDpYChjKI_14oneiros_engine6config5testss_26file_overrides_output_mode
FNDA:1,_RNvNtNtCsk2dDpYChjKI_14oneiros_engine6config5testss_27empty_file_returns_defaults
FNDA:1,_RNvNtNtCsk2dDpYChjKI_14oneiros_engine6config5testss_27file_overrides_color_choice
FNDA:1,_RNvNtNtCsk2dDpYChjKI_14oneiros_engine6config5testss_29missing_file_returns_defaults
FNDA:1,_RNvNtNtCsk2dDpYChjKI_14oneiros_engine6config5testss_31cli_overrides_file_and_defaults
FNDA:1,_RNvNtNtCsk2dDpYChjKI_14oneiros_engine6config5testss_34file_overrides_health_check_delays
FNDA:1,_RNvNtNtCsk2dDpYChjKI_14oneiros_engine6config5testss_35file_overrides_default_dream_config
FNDA:1,_RNvNtNtCsk2dDpYChjKI_14oneiros_engine6config5testss_35file_overrides_default_fetch_config
FNDA:1,_RNvNtNtCsk2dDpYChjKI_14oneiros_engine6config5testss_36partial_dream_section_fills_defaults
FNDA:1,_RNvNtNtCsk2dDpYChjKI_14oneiros_engine6config5testss_37malformed_file_falls_back_to_defaults
FNDA:1,_RNvNtNtCsk2dDpYChjKI_14oneiros_engine6config5testss_38file_overrides_default_service_address
FNDA:1,_RNvNtNtCsk2dDpYChjKI_14oneiros_engine6config5testss_40unknown_field_in_config_file_is_rejected
FNDA:1,_RNvNtNtCsk2dDpYChjKI_14oneiros_engine6config5testss_43two_way_coverage_config_and_overrides_match
FNDA:1,_RNvNtNtCsk2dDpYChjKI_14oneiros_engine6config5testss_44cli_data_dir_determines_config_file_location
FNDA:1,_RNvNtNtCsk2dDpYChjKI_14oneiros_engine6config5testss_45partial_cli_overrides_let_file_values_through
FNDA:2,_RINvNtCsk2dDpYChjKI_14oneiros_engine6config25serialize_duration_optionNtNtNtCscdK7xfneT5H_7figment5value3ser15ValueSerializerEB4_
FNDA:1106,_RNCNvMs4_NtCsk2dDpYChjKI_14oneiros_engine6configNtB7_6Config5token0B9_
FNDA:2,_RNCNvMs4_NtCsk2dDpYChjKI_14oneiros_engine6configNtB7_6Config7resolve0B9_
FNDA:41,_RNCNvNtCsk2dDpYChjKI_14oneiros_engine6config19detect_project_name0B5_
FNDA:36,_RNvMNtCsk2dDpYChjKI_14oneiros_engine6configNtB2_11DatabaseCli8is_empty
FNDA:36,_RNvMs0_NtCsk2dDpYChjKI_14oneiros_engine6configNtB5_10ServiceCli8is_empty
FNDA:36,_RNvMs1_NtCsk2dDpYChjKI_14oneiros_engine6configNtB5_8DreamCli8is_empty
FNDA:36,_RNvMs2_NtCsk2dDpYChjKI_14oneiros_engine6configNtB5_8FetchCli8is_empty
FNDA:1,_RNvMs4_NtCsk2dDpYChjKI_14oneiros_engine6configNtB5_6Config12service_addr
FNDA:19,_RNvMs4_NtCsk2dDpYChjKI_14oneiros_engine6configNtB5_6Config13bookmark_conn
FNDA:10,_RNvMs4_NtCsk2dDpYChjKI_14oneiros_engine6configNtB5_6Config13bookmarks_dir
FNDA:304,_RNvMs4_NtCsk2dDpYChjKI_14oneiros_engine6configNtB5_6Config14events_db_path
FNDA:5,_RNvMs4_NtCsk2dDpYChjKI_14oneiros_engine6configNtB5_6Config16bookmark_db_path
FNDA:1702,_RNvMs4_NtCsk2dDpYChjKI_14oneiros_engine6configNtB5_6Config5token
FNDA:6087,_RNvMs4_NtCsk2dDpYChjKI_14oneiros_engine6configNtB5_6Config7host_db
FNDA:16,_RNvMs4_NtCsk2dDpYChjKI_14oneiros_engine6configNtB5_6Config7resolve
FNDA:2022,_RNvMs4_NtCsk2dDpYChjKI_14oneiros_engine6configNtB5_6Config8base_url
FNDA:72753,_RNvMs4_NtCsk2dDpYChjKI_14oneiros_engine6configNtB5_6Config8platform
FNDA:36,_RNvMs_NtCsk2dDpYChjKI_14oneiros_engine6configNtB4_10GeneralCli8is_empty
FNDA:21,_RNvNtCsk2dDpYChjKI_14oneiros_engine6config16default_data_dir
FNDA:42,_RNvNtCsk2dDpYChjKI_14oneiros_engine6config19detect_project_name
FNDA:21,_RNvXs3_NtCsk2dDpYChjKI_14oneiros_engine6configNtB5_6ConfigNtNtCsl8K0bEFm1U0_4core7default7Default7default
FNF:44
FNH:44
DA:13,42
DA:14,42
DA:16,42
DA:17,42
DA:18,42
DA:19,42
DA:20,42
DA:23,21
DA:24,21
DA:25,21
DA:115,2
DA:116,2
DA:117,2
DA:118,2
DA:119,2
DA:120,2
DA:121,0
DA:123,2
DA:135,36
DA:136,36
DA:137,36
DA:151,36
DA:152,36
DA:153,36
DA:214,36
DA:215,36
DA:216,34
DA:217,32
DA:218,32
DA:219,32
DA:220,36
DA:224,36
DA:225,36
DA:226,34
DA:227,34
DA:228,30
DA:229,30
DA:230,30
DA:231,36
DA:235,36
DA:236,36
DA:237,36
DA:288,21
DA:289,21
DA:290,21
DA:291,21
DA:292,21
DA:293,21
DA:294,21
DA:295,21
DA:296,21
DA:297,21
DA:298,21
DA:299,21
DA:300,21
DA:301,21
DA:302,21
DA:307,1
DA:308,1
DA:309,1
DA:312,2022
DA:313,2022
DA:314,2022
DA:317,72753
DA:318,72753
DA:319,72753
DA:322,6087
DA:323,6087
DA:324,6087
DA:325,6087
DA:326,6087
DA:329,304
DA:330,304
DA:331,304
DA:334,5
DA:335,5
DA:336,5
DA:337,5
DA:340,10
DA:341,10
DA:342,10
DA:349,19
DA:350,19
DA:351,19
DA:353,19
DA:354,19
DA:355,19
DA:356,19
DA:357,19
DA:358,19
DA:359,19
DA:360,0
DA:362,19
DA:363,19
DA:364,19
DA:365,19
DA:367,19
DA:368,19
DA:371,1702
DA:372,1702
DA:373,1702
DA:374,1702
DA:375,1702
DA:376,1702
DA:377,1702
DA:402,16
DA:403,16
DA:404,16
DA:406,16
DA:408,16
DA:409,16
DA:410,16
DA:411,16
DA:412,16
DA:414,16
DA:415,14
DA:416,2
DA:417,2
DA:418,1
DA:419,2
DA:420,2
DA:421,2
DA:422,2
DA:423,2
DA:425,2
DA:426,1
DA:428,1
DA:431,1
DA:432,1
DA:433,1
DA:434,1
DA:435,1
DA:437,1
DA:441,16
DA:455,12
DA:456,12
DA:457,12
DA:460,3
DA:461,3
DA:462,3
DA:463,3
DA:464,3
DA:465,3
DA:467,14
DA:468,14
DA:469,14
DA:470,14
DA:471,14
DA:474,11
DA:475,11
DA:476,11
DA:477,11
DA:478,11
DA:479,11
DA:480,11
DA:483,1
DA:484,1
DA:485,1
DA:487,1
DA:488,1
DA:489,1
DA:490,1
DA:491,1
DA:494,1
DA:495,1
DA:496,1
DA:497,1
DA:499,1
DA:500,1
DA:501,1
DA:504,1
DA:505,1
DA:506,1
DA:507,1
DA:509,1
DA:510,1
DA:511,1
DA:514,1
DA:515,1
DA:516,1
DA:517,1
DA:518,1
DA:519,1
DA:520,1
DA:521,1
DA:523,1
DA:525,1
DA:527,1
DA:529,1
DA:532,1
DA:533,1
DA:534,1
DA:535,1
DA:536,1
DA:537,1
DA:538,1
DA:539,1
DA:540,1
DA:542,1
DA:544,1
DA:545,1
DA:546,1
DA:549,1
DA:550,1
DA:551,1
DA:552,1
DA:553,1
DA:554,1
DA:555,1
DA:556,1
DA:557,1
DA:559,1
DA:561,1
DA:562,1
DA:564,1
DA:565,1
DA:566,1
DA:569,1
DA:570,1
DA:571,1
DA:572,1
DA:573,1
DA:574,1
DA:575,1
DA:576,1
DA:577,1
DA:578,1
DA:579,1
DA:582,1
DA:583,1
DA:584,1
DA:585,1
DA:586,1
DA:587,1
DA:588,1
DA:589,1
DA:590,1
DA:591,1
DA:592,1
DA:593,1
DA:595,1
DA:598,1
DA:600,1
DA:602,1
DA:603,1
DA:606,1
DA:607,1
DA:608,1
DA:609,1
DA:610,1
DA:611,1
DA:612,1
DA:613,1
DA:614,1
DA:618,1
DA:619,1
DA:620,1
DA:621,1
DA:622,1
DA:623,1
DA:624,1
DA:625,1
DA:627,1
DA:629,1
DA:630,1
DA:631,1
DA:634,1
DA:635,1
DA:636,1
DA:637,1
DA:639,1
DA:640,1
DA:643,1
DA:644,1
DA:645,1
DA:646,1
DA:647,1
DA:648,1
DA:649,1
DA:650,1
DA:652,1
DA:654,1
DA:655,1
DA:658,1
DA:659,1
DA:660,1
DA:661,1
DA:662,1
DA:663,1
DA:664,1
DA:665,1
DA:667,1
DA:669,1
DA:670,1
DA:671,1
DA:672,1
DA:675,1
DA:676,1
DA:677,1
DA:678,1
DA:680,1
DA:681,1
DA:684,1
DA:685,1
DA:686,1
DA:687,1
DA:689,1
DA:690,1
DA:693,1
DA:694,1
DA:695,1
DA:696,1
DA:697,1
DA:698,1
DA:699,1
DA:700,1
DA:703,1
DA:704,1
DA:705,1
DA:706,1
DA:707,1
DA:708,1
DA:709,1
DA:712,1
DA:715,1
DA:716,1
DA:719,1
DA:720,1
DA:721,1
DA:722,1
DA:723,1
DA:724,1
DA:727,1
DA:728,1
DA:729,1
DA:730,1
DA:732,1
DA:733,1
DA:735,1
DA:737,1
DA:740,1
DA:744,1
DA:745,1
DA:746,1
DA:749,1
DA:750,1
DA:751,1
DA:752,1
DA:753,1
DA:755,1
DA:756,1
DA:758,1
DA:759,1
DA:760,1
DA:763,1
DA:770,1
DA:772,1
DA:773,1
DA:774,1
DA:775,1
DA:776,1
DA:777,1
DA:778,1
DA:779,1
DA:780,1
DA:781,1
DA:782,1
DA:783,1
DA:784,1
DA:785,1
DA:786,1
DA:787,1
DA:788,1
DA:789,1
DA:790,1
DA:791,1
DA:792,1
DA:793,1
DA:794,1
DA:795,1
DA:796,1
DA:797,1
DA:798,1
DA:799,1
DA:800,1
DA:801,1
DA:802,1
DA:803,1
DA:804,1
DA:806,1
DA:809,1
DA:810,1
DA:811,1
DA:812,1
DA:813,1
DA:815,1
DA:817,1
DA:818,1
DA:819,1
DA:820,1
DA:821,1
DA:822,1
DA:823,1
DA:824,1
DA:825,1
DA:826,1
DA:827,1
DA:828,1
DA:829,1
DA:830,1
DA:831,1
DA:832,1
DA:833,1
BRF:0
BRH:0
LF:417
LH:415
end_of_record
SF:/Users/esmevane/Code/projects/oneiros/crates/oneiros-engine/src/db.rs
FN:63,_RNvMNtCsk2dDpYChjKI_14oneiros_engine2dbNtB2_6HostDb9open_with
FN:93,_RNvMs0_NtCsk2dDpYChjKI_14oneiros_engine2dbNtB5_8EventsDb9open_with
FN:136,_RNvMs2_NtCsk2dDpYChjKI_14oneiros_engine2dbNtB5_10BookmarkDb9open_with
FN:106,_RNvXs1_NtCsk2dDpYChjKI_14oneiros_engine2dbNtB5_8EventsDbNtNtNtCsl8K0bEFm1U0_4core3ops5deref5Deref5deref
FN:156,_RNvXs3_NtCsk2dDpYChjKI_14oneiros_engine2dbNtB5_10BookmarkDbNtNtNtCsl8K0bEFm1U0_4core3ops5deref5Deref5deref
FN:73,_RNvXs_NtCsk2dDpYChjKI_14oneiros_engine2dbNtB4_6HostDbNtNtNtCsl8K0bEFm1U0_4core3ops5deref5Deref5deref
FN:56,_RINvMNtCsk2dDpYChjKI_14oneiros_engine2dbNtB3_6HostDb4openINtNtB5_5scope5ScopeNtBW_10AtBookmarkEEB5_
FN:56,_RINvMNtCsk2dDpYChjKI_14oneiros_engine2dbNtB3_6HostDb4openINtNtB5_5scope5ScopeNtBW_6AtHostEEB5_
FN:88,_RINvMs0_NtCsk2dDpYChjKI_14oneiros_engine2dbNtB6_8EventsDb4openINtNtB8_5scope5ScopeNtB11_10AtBookmarkEEB8_
FN:88,_RINvMs0_NtCsk2dDpYChjKI_14oneiros_engine2dbNtB6_8EventsDb4openINtNtB8_5scope5ScopeNtB11_9AtProjectEEB8_
FN:123,_RINvMs2_NtCsk2dDpYChjKI_14oneiros_engine2dbNtB6_10BookmarkDb4openINtNtB8_5scope5ScopeNtB14_10AtBookmarkEEB8_
FN:56,_RNCINvMNtCsk2dDpYChjKI_14oneiros_engine2dbNtB5_6HostDb4openINtNtB7_5scope5ScopeNtBY_10AtBookmarkEE0B7_
FN:56,_RNCINvMNtCsk2dDpYChjKI_14oneiros_engine2dbNtB5_6HostDb4openINtNtB7_5scope5ScopeNtBY_6AtHostEE0B7_
FN:88,_RNCINvMs0_NtCsk2dDpYChjKI_14oneiros_engine2dbNtB8_8EventsDb4openINtNtBa_5scope5ScopeNtB13_10AtBookmarkEE0Ba_
FN:88,_RNCINvMs0_NtCsk2dDpYChjKI_14oneiros_engine2dbNtB8_8EventsDb4openINtNtBa_5scope5ScopeNtB13_9AtProjectEE0Ba_
FN:123,_RNCINvMs2_NtCsk2dDpYChjKI_14oneiros_engine2dbNtB8_10BookmarkDb4openINtNtBa_5scope5ScopeNtB16_10AtBookmarkEE0Ba_
FN:201,_RNCNCNvNtNtCsk2dDpYChjKI_14oneiros_engine2db5testss_38bookmark_db_opens_with_events_attached00B9_
FN:63,_RNCNvMNtCsk2dDpYChjKI_14oneiros_engine2dbNtB4_6HostDb9open_with0B6_
FN:96,_RNCNvMs0_NtCsk2dDpYChjKI_14oneiros_engine2dbNtB7_8EventsDb9open_with0B9_
FN:141,_RNCNvMs2_NtCsk2dDpYChjKI_14oneiros_engine2dbNtB7_10BookmarkDb9open_with0B9_
FN:172,_RNCNvNtNtCsk2dDpYChjKI_14oneiros_engine2db5testss_33host_db_opens_and_creates_host_db0B7_
FN:188,_RNCNvNtNtCsk2dDpYChjKI_14oneiros_engine2db5testss_38bookmark_db_opens_with_events_attached0B7_
FN:179,_RNCNvNtNtCsk2dDpYChjKI_14oneiros_engine2db5testss_39events_db_opens_and_creates_project_dir0B7_
FN:165,_RNvNtNtCsk2dDpYChjKI_14oneiros_engine2db5tests13test_platform
FN:172,_RNvNtNtCsk2dDpYChjKI_14oneiros_engine2db5testss_33host_db_opens_and_creates_host_db
FN:188,_RNvNtNtCsk2dDpYChjKI_14oneiros_engine2db5testss_38bookmark_db_opens_with_events_attached
FN:179,_RNvNtNtCsk2dDpYChjKI_14oneiros_engine2db5testss_39events_db_opens_and_creates_project_dir
FNDA:34682,_RNvMNtCsk2dDpYChjKI_14oneiros_engine2dbNtB2_6HostDb9open_with
FNDA:5258,_RNvMs0_NtCsk2dDpYChjKI_14oneiros_engine2dbNtB5_8EventsDb9open_with
FNDA:17399,_RNvMs2_NtCsk2dDpYChjKI_14oneiros_engine2dbNtB5_10BookmarkDb9open_with
FNDA:10503,_RNvXs1_NtCsk2dDpYChjKI_14oneiros_engine2dbNtB5_8EventsDbNtNtNtCsl8K0bEFm1U0_4core3ops5deref5Deref5deref
FNDA:19384,_RNvXs3_NtCsk2dDpYChjKI_14oneiros_engine2dbNtB5_10BookmarkDbNtNtNtCsl8K0bEFm1U0_4core3ops5deref5Deref5deref
FNDA:37178,_RNvXs_NtCsk2dDpYChjKI_14oneiros_engine2dbNtB4_6HostDbNtNtNtCsl8K0bEFm1U0_4core3ops5deref5Deref5deref
FNDA:5511,_RINvMNtCsk2dDpYChjKI_14oneiros_engine2dbNtB3_6HostDb4openINtNtB5_5scope5ScopeNtBW_10AtBookmarkEEB5_
FNDA:28867,_RINvMNtCsk2dDpYChjKI_14oneiros_engine2dbNtB3_6HostDb4openINtNtB5_5scope5ScopeNtBW_6AtHostEEB5_
FNDA:5247,_RINvMs0_NtCsk2dDpYChjKI_14oneiros_engine2dbNtB6_8EventsDb4openINtNtB8_5scope5ScopeNtB11_10AtBookmarkEEB8_
FNDA:9,_RINvMs0_NtCsk2dDpYChjKI_14oneiros_engine2dbNtB6_8EventsDb4openINtNtB8_5scope5ScopeNtB11_9AtProjectEEB8_
FNDA:17388,_RINvMs2_NtCsk2dDpYChjKI_14oneiros_engine2dbNtB6_10BookmarkDb4openINtNtB8_5scope5ScopeNtB14_10AtBookmarkEEB8_
FNDA:5511,_RNCINvMNtCsk2dDpYChjKI_14oneiros_engine2dbNtB5_6HostDb4openINtNtB7_5scope5ScopeNtBY_10AtBookmarkEE0B7_
FNDA:28867,_RNCINvMNtCsk2dDpYChjKI_14oneiros_engine2dbNtB5_6HostDb4openINtNtB7_5scope5ScopeNtBY_6AtHostEE0B7_
FNDA:5247,_RNCINvMs0_NtCsk2dDpYChjKI_14oneiros_engine2dbNtB8_8EventsDb4openINtNtBa_5scope5ScopeNtB13_10AtBookmarkEE0Ba_
FNDA:9,_RNCINvMs0_NtCsk2dDpYChjKI_14oneiros_engine2dbNtB8_8EventsDb4openINtNtBa_5scope5ScopeNtB13_9AtProjectEE0Ba_
FNDA:17388,_RNCINvMs2_NtCsk2dDpYChjKI_14oneiros_engine2dbNtB8_10BookmarkDb4openINtNtBa_5scope5ScopeNtB16_10AtBookmarkEE0Ba_
FNDA:1,_RNCNCNvNtNtCsk2dDpYChjKI_14oneiros_engine2db5testss_38bookmark_db_opens_with_events_attached00B9_
FNDA:34682,_RNCNvMNtCsk2dDpYChjKI_14oneiros_engine2dbNtB4_6HostDb9open_with0B6_
FNDA:5258,_RNCNvMs0_NtCsk2dDpYChjKI_14oneiros_engine2dbNtB7_8EventsDb9open_with0B9_
FNDA:17399,_RNCNvMs2_NtCsk2dDpYChjKI_14oneiros_engine2dbNtB7_10BookmarkDb9open_with0B9_
FNDA:1,_RNCNvNtNtCsk2dDpYChjKI_14oneiros_engine2db5testss_33host_db_opens_and_creates_host_db0B7_
FNDA:1,_RNCNvNtNtCsk2dDpYChjKI_14oneiros_engine2db5testss_38bookmark_db_opens_with_events_attached0B7_
FNDA:1,_RNCNvNtNtCsk2dDpYChjKI_14oneiros_engine2db5testss_39events_db_opens_and_creates_project_dir0B7_
FNDA:3,_RNvNtNtCsk2dDpYChjKI_14oneiros_engine2db5tests13test_platform
FNDA:1,_RNvNtNtCsk2dDpYChjKI_14oneiros_engine2db5testss_33host_db_opens_and_creates_host_db
FNDA:1,_RNvNtNtCsk2dDpYChjKI_14oneiros_engine2db5testss_38bookmark_db_opens_with_events_attached
FNDA:1,_RNvNtNtCsk2dDpYChjKI_14oneiros_engine2db5testss_39events_db_opens_and_creates_project_dir
FNF:23
FNH:23
DA:56,34378
DA:57,34378
DA:58,34378
DA:63,34682
DA:64,34682
DA:65,34682
DA:66,34682
DA:67,34682
DA:68,34682
DA:73,37178
DA:74,37178
DA:75,37178
DA:88,5256
DA:89,5256
DA:90,5256
DA:93,5258
DA:94,5258
DA:95,5258
DA:96,5258
DA:97,5258
DA:98,5258
DA:99,5258
DA:100,5258
DA:101,5258
DA:106,10503
DA:107,10503
DA:108,10503
DA:123,17388
DA:124,17388
DA:125,17388
DA:126,17388
DA:127,17388
DA:128,17388
DA:129,17388
DA:130,17388
DA:131,17388
DA:132,17388
DA:136,17399
DA:137,17399
DA:138,17399
DA:139,17399
DA:140,17399
DA:141,17399
DA:142,17399
DA:143,17399
DA:144,17399
DA:145,17399
DA:146,17399
DA:147,17399
DA:148,17399
DA:149,17399
DA:150,17399
DA:151,17399
DA:156,19384
DA:157,19384
DA:158,19384
DA:165,3
DA:166,3
DA:167,3
DA:168,3
DA:169,3
DA:172,1
DA:173,1
DA:174,1
DA:175,1
DA:176,1
DA:179,1
DA:180,1
DA:181,1
DA:182,1
DA:183,1
DA:184,1
DA:185,1
DA:188,1
DA:189,1
DA:190,1
DA:191,1
DA:194,1
DA:195,1
DA:196,1
DA:197,1
DA:200,1
DA:201,1
DA:202,1
DA:203,1
DA:204,1
DA:205,1
DA:206,1
BRF:0
BRH:0
LF:101
LH:101
end_of_record
SF:/Users/esmevane/Code/projects/oneiros/crates/oneiros-engine/src/docs.rs
FN:14,_RNvMNtCsk2dDpYChjKI_14oneiros_engine4docsNtB2_7AppDocs11description
FN:18,_RNvMNtCsk2dDpYChjKI_14oneiros_engine4docsNtB2_7AppDocs20security_scheme_name
FN:22,_RNvMNtCsk2dDpYChjKI_14oneiros_engine4docsNtB2_7AppDocs27security_scheme_description
FN:26,_RNvMNtCsk2dDpYChjKI_14oneiros_engine4docsNtB2_7AppDocs4tags
FN:6,_RNvMNtCsk2dDpYChjKI_14oneiros_engine4docsNtB2_7AppDocs5title
FN:10,_RNvMNtCsk2dDpYChjKI_14oneiros_engine4docsNtB2_7AppDocs7version
FNDA:304,_RNvMNtCsk2dDpYChjKI_14oneiros_engine4docsNtB2_7AppDocs11description
FNDA:304,_RNvMNtCsk2dDpYChjKI_14oneiros_engine4docsNtB2_7AppDocs20security_scheme_name
FNDA:304,_RNvMNtCsk2dDpYChjKI_14oneiros_engine4docsNtB2_7AppDocs27security_scheme_description
FNDA:304,_RNvMNtCsk2dDpYChjKI_14oneiros_engine4docsNtB2_7AppDocs4tags
FNDA:304,_RNvMNtCsk2dDpYChjKI_14oneiros_engine4docsNtB2_7AppDocs5title
FNDA:304,_RNvMNtCsk2dDpYChjKI_14oneiros_engine4docsNtB2_7AppDocs7version
FNF:6
FNH:6
DA:6,304
DA:7,304
DA:8,304
DA:10,304
DA:11,304
DA:12,304
DA:14,304
DA:15,304
DA:16,304
DA:18,304
DA:19,304
DA:20,304
DA:22,304
DA:23,304
DA:24,304
DA:26,304
DA:27,304
DA:28,304
DA:29,304
DA:30,304
DA:31,304
DA:32,304
DA:33,304
DA:34,304
DA:35,304
DA:36,304
DA:37,304
DA:38,304
DA:39,304
DA:40,304
DA:41,304
DA:42,304
DA:43,304
DA:44,304
DA:45,304
DA:46,304
DA:47,304
DA:48,304
DA:49,304
DA:50,304
DA:51,304
DA:52,304
DA:53,304
DA:55,304
BRF:0
BRH:0
LF:44
LH:44
end_of_record
SF:/Users/esmevane/Code/projects/oneiros/crates/oneiros-engine/src/domains/actor/docs.rs
FN:17,_RNvMNtNtNtCsk2dDpYChjKI_14oneiros_engine7domains5actor4docsNtB2_9ActorDocs13resource_docs
FN:10,_RNvMNtNtNtCsk2dDpYChjKI_14oneiros_engine7domains5actor4docsNtB2_9ActorDocs3tag
FNDA:912,_RNvMNtNtNtCsk2dDpYChjKI_14oneiros_engine7domains5actor4docsNtB2_9ActorDocs13resource_docs
FNDA:1216,_RNvMNtNtNtCsk2dDpYChjKI_14oneiros_engine7domains5actor4docsNtB2_9ActorDocs3tag
FNF:2
FNH:2
DA:10,1216
DA:11,1216
DA:12,1216
DA:13,1216
DA:14,1216
DA:15,1216
DA:17,912
DA:18,912
DA:19,912
DA:20,304
DA:21,304
DA:22,304
DA:23,304
DA:24,304
DA:25,304
DA:26,304
DA:27,304
DA:28,304
DA:29,304
DA:30,304
DA:31,304
DA:32,304
DA:33,304
DA:34,304
DA:35,304
DA:36,304
DA:37,304
DA:39,912
BRF:0
BRH:0
LF:28
LH:28
end_of_record
SF:/Users/esmevane/Code/projects/oneiros/crates/oneiros-engine/src/domains/actor/features/cli.rs
FN:16,_RNvMNtNtNtNtCsk2dDpYChjKI_14oneiros_engine7domains5actor8features3cliNtB2_13ActorCommands7execute
FN:16,_RNCNvMNtNtNtNtCsk2dDpYChjKI_14oneiros_engine7domains5actor8features3cliNtB4_13ActorCommands7execute0Bc_
FNDA:2,_RNvMNtNtNtNtCsk2dDpYChjKI_14oneiros_engine7domains5actor8features3cliNtB2_13ActorCommands7execute
FNDA:2,_RNCNvMNtNtNtNtCsk2dDpYChjKI_14oneiros_engine7domains5actor8features3cliNtB4_13ActorCommands7execute0Bc_
FNF:2
FNH:2
DA:16,2
DA:17,2
DA:19,2
DA:20,0
DA:21,0
DA:22,2
DA:25,2
DA:26,2
DA:27,2
BRF:0
BRH:0
LF:10
LH:8
end_of_record
SF:/Users/esmevane/Code/projects/oneiros/crates/oneiros-engine/src/domains/actor/features/http.rs
FN:19,_RNCNvMNtNtNtNtCsk2dDpYChjKI_14oneiros_engine7domains5actor8features4httpNtB4_11ActorRouter6routes0Bc_
FN:29,_RNCNvMNtNtNtNtCsk2dDpYChjKI_14oneiros_engine7domains5actor8features4httpNtB4_11ActorRouter6routess0_0Bc_
FN:21,_RNCNvMNtNtNtNtCsk2dDpYChjKI_14oneiros_engine7domains5actor8features4httpNtB4_11ActorRouter6routess_0Bc_
FN:47,_RNCNvNtNtNtNtCsk2dDpYChjKI_14oneiros_engine7domains5actor8features4http4list0Bb_
FN:54,_RNCNvNtNtNtNtCsk2dDpYChjKI_14oneiros_engine7domains5actor8features4http4show0Bb_
FN:39,_RNCNvNtNtNtNtCsk2dDpYChjKI_14oneiros_engine7domains5actor8features4http6create0Bb_
FN:13,_RNvMNtNtNtNtCsk2dDpYChjKI_14oneiros_engine7domains5actor8features4httpNtB2_11ActorRouter6routes
FN:44,_RNvNtNtNtNtCsk2dDpYChjKI_14oneiros_engine7domains5actor8features4http4list
FN:51,_RNvNtNtNtNtCsk2dDpYChjKI_14oneiros_engine7domains5actor8features4http4show
FN:35,_RNvNtNtNtNtCsk2dDpYChjKI_14oneiros_engine7domains5actor8features4http6create
FNDA:304,_RNCNvMNtNtNtNtCsk2dDpYChjKI_14oneiros_engine7domains5actor8features4httpNtB4_11ActorRouter6routes0Bc_
FNDA:304,_RNCNvMNtNtNtNtCsk2dDpYChjKI_14oneiros_engine7domains5actor8features4httpNtB4_11ActorRouter6routess0_0Bc_
FNDA:304,_RNCNvMNtNtNtNtCsk2dDpYChjKI_14oneiros_engine7domains5actor8features4httpNtB4_11ActorRouter6routess_0Bc_
FNDA:3,_RNCNvNtNtNtNtCsk2dDpYChjKI_14oneiros_engine7domains5actor8features4http4list0Bb_
FNDA:1,_RNCNvNtNtNtNtCsk2dDpYChjKI_14oneiros_engine7domains5actor8features4http4show0Bb_
FNDA:1,_RNCNvNtNtNtNtCsk2dDpYChjKI_14oneiros_engine7domains5actor8features4http6create0Bb_
FNDA:304,_RNvMNtNtNtNtCsk2dDpYChjKI_14oneiros_engine7domains5actor8features4httpNtB2_11ActorRouter6routes
FNDA:3,_RNvNtNtNtNtCsk2dDpYChjKI_14oneiros_engine7domains5actor8features4http4list
FNDA:1,_RNvNtNtNtNtCsk2dDpYChjKI_14oneiros_engine7domains5actor8features4http4show
FNDA:1,_RNvNtNtNtNtCsk2dDpYChjKI_14oneiros_engine7domains5actor8features4http6create
FNF:10
FNH:10
DA:13,304
DA:14,304
DA:15,304
DA:16,304
DA:17,304
DA:18,304
DA:19,304
DA:21,304
DA:22,304
DA:23,304
DA:24,304
DA:27,304
DA:28,304
DA:29,304
DA:32,304
DA:35,1
DA:36,1
DA:37,1
DA:38,1
DA:39,1
DA:40,1
DA:41,1
DA:42,1
DA:44,3
DA:45,3
DA:46,3
DA:47,3
DA:48,3
DA:49,3
DA:51,1
DA:52,1
DA:53,1
DA:54,1
DA:56,1
DA:58,1
BRF:0
BRH:0
LF:40
LH:40
end_of_record
SF:/Users/esmevane/Code/projects/oneiros/crates/oneiros-engine/src/domains/actor/features/projections.rs
FN:13,_RNCNvNtNtNtNtCsk2dDpYChjKI_14oneiros_engine7domains5actor8features11projections11PROJECTIONS0Bb_
FN:15,_RNCNvNtNtNtNtCsk2dDpYChjKI_14oneiros_engine7domains5actor8features11projections11PROJECTIONSs0_0Bb_
FN:14,_RNCNvNtNtNtNtCsk2dDpYChjKI_14oneiros_engine7domains5actor8features11projections11PROJECTIONSs_0Bb_
FN:6,_RNvMNtNtNtNtCsk2dDpYChjKI_14oneiros_engine7domains5actor8features11projectionsNtB2_16ActorProjections3all
FNDA:1848,_RNCNvNtNtNtNtCsk2dDpYChjKI_14oneiros_engine7domains5actor8features11projections11PROJECTIONS0Bb_
FNDA:0,_RNCNvNtNtNtNtCsk2dDpYChjKI_14oneiros_engine7domains5actor8features11projections11PROJECTIONSs0_0Bb_
FNDA:1545,_RNCNvNtNtNtNtCsk2dDpYChjKI_14oneiros_engine7domains5actor8features11projections11PROJECTIONSs_0Bb_
FNDA:1848,_RNvMNtNtNtNtCsk2dDpYChjKI_14oneiros_engine7domains5actor8features11projectionsNtB2_16ActorProjections3all
FNF:4
FNH:3
DA:6,1848
DA:7,1848
DA:8,1848
DA:13,1848
DA:14,1545
DA:15,0
BRF:0
BRH:0
LF:6
LH:5
end_of_record
SF:/Users/esmevane/Code/projects/oneiros/crates/oneiros-engine/src/domains/actor/features/skills.rs
FN:6,_RNvMNtNtNtNtCsk2dDpYChjKI_14oneiros_engine7domains5actor8features6skillsNtB2_11ActorSkills3all
FNDA:12,_RNvMNtNtNtNtCsk2dDpYChjKI_14oneiros_engine7domains5actor8features6skillsNtB2_11ActorSkills3all
FNF:1
FNH:1
DA:6,12
DA:7,12
DA:8,12
DA:9,12
DA:10,12
DA:12,12
BRF:0
BRH:0
LF:6
LH:6
end_of_record
SF:/Users/esmevane/Code/projects/oneiros/crates/oneiros-engine/src/domains/actor/features/state.rs
FN:6,_RNvMNtNtNtNtCsk2dDpYChjKI_14oneiros_engine7domains5actor8features5stateNtB2_10ActorState6reduce
FN:16,_RNvMNtNtNtNtCsk2dDpYChjKI_14oneiros_engine7domains5actor8features5stateNtB2_10ActorState7reducer
FNDA:1545,_RNvMNtNtNtNtCsk2dDpYChjKI_14oneiros_engine7domains5actor8features5stateNtB2_10ActorState6reduce
FNDA:1848,_RNvMNtNtNtNtCsk2dDpYChjKI_14oneiros_engine7domains5actor8features5stateNtB2_10ActorState7reducer
FNF:2
FNH:2
DA:6,1545
DA:7,1545
DA:8,302
DA:9,302
DA:10,302
DA:11,1243
DA:13,1545
DA:14,1545
DA:16,1848
DA:17,1848
DA:18,1848
BRF:0
BRH:0
LF:11
LH:11
end_of_record
SF:/Users/esmevane/Code/projects/oneiros/crates/oneiros-engine/src/domains/actor/model.rs
FN:19,_RNvXNtNtNtCsk2dDpYChjKI_14oneiros_engine7domains5actor5modelNtB2_5ActorINtNtNtB8_6values12entity_index9IndexableNtB2_7ActorIdE2id
FNDA:302,_RNvXNtNtNtCsk2dDpYChjKI_14oneiros_engine7domains5actor5modelNtB2_5ActorINtNtNtB8_6values12entity_index9IndexableNtB2_7ActorIdE2id
FNF:1
FNH:1
DA:19,302
DA:20,302
DA:21,302
BRF:0
BRH:0
LF:3
LH:3
end_of_record
SF:/Users/esmevane/Code/projects/oneiros/crates/oneiros-engine/src/domains/actor/protocol/errors.rs
FN:39,_RNvXNtNtNtNtCsk2dDpYChjKI_14oneiros_engine7domains5actor8protocol6errorsNtB2_10ActorErrorNtNtNtCs1iC2TOwIRjP_9axum_core8response13into_response12IntoResponse13into_response
FNDA:0,_RNvXNtNtNtNtCsk2dDpYChjKI_14oneiros_engine7domains5actor8protocol6errorsNtB2_10ActorErrorNtNtNtCs1iC2TOwIRjP_9axum_core8response13into_response12IntoResponse13into_response
FNF:1
FNH:0
DA:39,0
DA:40,0
DA:41,0
DA:42,0
DA:43,0
DA:45,0
DA:47,0
DA:48,0
DA:50,0
DA:51,0
BRF:0
BRH:0
LF:10
LH:0
end_of_record
SF:/Users/esmevane/Code/projects/oneiros/crates/oneiros-engine/src/domains/actor/protocol/events.rs
FN:14,_RNvMNtNtNtNtCsk2dDpYChjKI_14oneiros_engine7domains5actor8protocol6eventsNtB2_11ActorEvents11maybe_actor
FN:65,_RNvNtNtNtNtNtCsk2dDpYChjKI_14oneiros_engine7domains5actor8protocol6events5testss_25actor_created_round_trips
FN:34,_RNvNtNtNtNtNtCsk2dDpYChjKI_14oneiros_engine7domains5actor8protocol6events5testss_27event_types_are_kebab_cased
FN:39,_RNvNtNtNtNtNtCsk2dDpYChjKI_14oneiros_engine7domains5actor8protocol6events5testss_33actor_created_wire_format_is_flat
FNDA:302,_RNvMNtNtNtNtCsk2dDpYChjKI_14oneiros_engine7domains5actor8protocol6eventsNtB2_11ActorEvents11maybe_actor
FNDA:1,_RNvNtNtNtNtNtCsk2dDpYChjKI_14oneiros_engine7domains5actor8protocol6events5testss_25actor_created_round_trips
FNDA:1,_RNvNtNtNtNtNtCsk2dDpYChjKI_14oneiros_engine7domains5actor8protocol6events5testss_27event_types_are_kebab_cased
FNDA:1,_RNvNtNtNtNtNtCsk2dDpYChjKI_14oneiros_engine7domains5actor8protocol6events5testss_33actor_created_wire_format_is_flat
FNF:4
FNH:4
DA:14,302
DA:15,302
DA:16,302
DA:18,302
DA:34,1
DA:35,1
DA:36,1
DA:39,1
DA:43,1
DA:44,1
DA:45,1
DA:46,1
DA:48,1
DA:49,1
DA:50,1
DA:51,1
DA:53,1
DA:54,1
DA:55,1
DA:58,1
DA:59,1
DA:60,1
DA:61,1
DA:62,1
DA:65,1
DA:66,1
DA:67,1
DA:68,1
DA:69,1
DA:71,1
DA:72,1
DA:73,1
DA:74,1
DA:75,1
DA:77,1
DA:78,1
DA:79,1
DA:80,1
DA:81,1
DA:84,1
BRF:0
BRH:0
LF:40
LH:40
end_of_record
SF:/Users/esmevane/Code/projects/oneiros/crates/oneiros-engine/src/domains/actor/protocol/requests.rs
FN:22,_RNCNvXNtNtNtNtCsk2dDpYChjKI_14oneiros_engine7domains5actor8protocol8requestsNtB4_11CreateActorNtNtBc_6client13ClientRequest15execute_request0Bc_
FN:62,_RNCNvXs0_NtNtNtNtCsk2dDpYChjKI_14oneiros_engine7domains5actor8protocol8requestsNtB7_10ListActorsNtNtBf_6client13ClientRequest15execute_request0Bf_
FN:40,_RNCNvXs_NtNtNtNtCsk2dDpYChjKI_14oneiros_engine7domains5actor8protocol8requestsNtB6_8GetActorNtNtBe_6client13ClientRequest15execute_request0Be_
FN:86,_RNvNtNtNtNtNtCsk2dDpYChjKI_14oneiros_engine7domains5actor8protocol8requests5testss_29request_types_are_kebab_cased
FN:22,_RNvXNtNtNtNtCsk2dDpYChjKI_14oneiros_engine7domains5actor8protocol8requestsNtB2_11CreateActorNtNtBa_6client13ClientRequest15execute_request
FN:62,_RNvXs0_NtNtNtNtCsk2dDpYChjKI_14oneiros_engine7domains5actor8protocol8requestsNtB5_10ListActorsNtNtBd_6client13ClientRequest15execute_request
FN:40,_RNvXs_NtNtNtNtCsk2dDpYChjKI_14oneiros_engine7domains5actor8protocol8requestsNtB4_8GetActorNtNtBc_6client13ClientRequest15execute_request
FNDA:1,_RNCNvXNtNtNtNtCsk2dDpYChjKI_14oneiros_engine7domains5actor8protocol8requestsNtB4_11CreateActorNtNtBc_6client13ClientRequest15execute_request0Bc_
FNDA:3,_RNCNvXs0_NtNtNtNtCsk2dDpYChjKI_14oneiros_engine7domains5actor8protocol8requestsNtB7_10ListActorsNtNtBf_6client13ClientRequest15execute_request0Bf_
FNDA:1,_RNCNvXs_NtNtNtNtCsk2dDpYChjKI_14oneiros_engine7domains5actor8protocol8requestsNtB6_8GetActorNtNtBe_6client13ClientRequest15execute_request0Be_
FNDA:1,_RNvNtNtNtNtNtCsk2dDpYChjKI_14oneiros_engine7domains5actor8protocol8requests5testss_29request_types_are_kebab_cased
FNDA:1,_RNvXNtNtNtNtCsk2dDpYChjKI_14oneiros_engine7domains5actor8protocol8requestsNtB2_11CreateActorNtNtBa_6client13ClientRequest15execute_request
FNDA:3,_RNvXs0_NtNtNtNtCsk2dDpYChjKI_14oneiros_engine7domains5actor8protocol8requestsNtB5_10ListActorsNtNtBd_6client13ClientRequest15execute_request
FNDA:1,_RNvXs_NtNtNtNtCsk2dDpYChjKI_14oneiros_engine7domains5actor8protocol8requestsNtB4_8GetActorNtNtBc_6client13ClientRequest15execute_request
FNF:7
FNH:7
DA:22,1
DA:23,1
DA:24,1
DA:40,1
DA:41,1
DA:42,1
DA:43,1
DA:62,3
DA:63,3
DA:64,3
DA:68,3
DA:69,3
DA:86,1
DA:87,1
DA:88,1
DA:89,1
DA:90,1
DA:91,1
DA:93,3
DA:94,3
DA:96,1
BRF:0
BRH:0
LF:24
LH:24
end_of_record
SF:/Users/esmevane/Code/projects/oneiros/crates/oneiros-engine/src/domains/actor/repo.rs
FN:28,_RNCNCNvMNtNtNtCsk2dDpYChjKI_14oneiros_engine7domains5actor4repoNtB6_9ActorRepo3get00Bc_
FN:56,_RNCNCNvMNtNtNtCsk2dDpYChjKI_14oneiros_engine7domains5actor4repoNtB6_9ActorRepo4list00Bc_
FN:64,_RNCNCNvMNtNtNtCsk2dDpYChjKI_14oneiros_engine7domains5actor4repoNtB6_9ActorRepo4list0s_0Bc_
FN:20,_RNCNCNvMNtNtNtCsk2dDpYChjKI_14oneiros_engine7domains5actor4repoNtB6_9ActorRepo5fetch00Bc_
FN:23,_RNCNvMNtNtNtCsk2dDpYChjKI_14oneiros_engine7domains5actor4repoNtB4_9ActorRepo3get0Ba_
FN:51,_RNCNvMNtNtNtCsk2dDpYChjKI_14oneiros_engine7domains5actor4repoNtB4_9ActorRepo4list0Ba_
FN:19,_RNCNvMNtNtNtCsk2dDpYChjKI_14oneiros_engine7domains5actor4repoNtB4_9ActorRepo5fetch0Ba_
FN:23,_RNvMNtNtNtCsk2dDpYChjKI_14oneiros_engine7domains5actor4repoNtB2_9ActorRepo3get
FN:11,_RNvMNtNtNtCsk2dDpYChjKI_14oneiros_engine7domains5actor4repoNtB2_9ActorRepo3new
FN:51,_RNvMNtNtNtCsk2dDpYChjKI_14oneiros_engine7domains5actor4repoNtB2_9ActorRepo4list
FN:19,_RNvMNtNtNtCsk2dDpYChjKI_14oneiros_engine7domains5actor4repoNtB2_9ActorRepo5fetch
FNDA:603,_RNCNCNvMNtNtNtCsk2dDpYChjKI_14oneiros_engine7domains5actor4repoNtB6_9ActorRepo3get00Bc_
FNDA:303,_RNCNCNvMNtNtNtCsk2dDpYChjKI_14oneiros_engine7domains5actor4repoNtB6_9ActorRepo4list00Bc_
FNDA:305,_RNCNCNvMNtNtNtCsk2dDpYChjKI_14oneiros_engine7domains5actor4repoNtB6_9ActorRepo4list0s_0Bc_
FNDA:605,_RNCNCNvMNtNtNtCsk2dDpYChjKI_14oneiros_engine7domains5actor4repoNtB6_9ActorRepo5fetch00Bc_
FNDA:905,_RNCNvMNtNtNtCsk2dDpYChjKI_14oneiros_engine7domains5actor4repoNtB4_9ActorRepo3get0Ba_
FNDA:303,_RNCNvMNtNtNtCsk2dDpYChjKI_14oneiros_engine7domains5actor4repoNtB4_9ActorRepo4list0Ba_
FNDA:303,_RNCNvMNtNtNtCsk2dDpYChjKI_14oneiros_engine7domains5actor4repoNtB4_9ActorRepo5fetch0Ba_
FNDA:905,_RNvMNtNtNtCsk2dDpYChjKI_14oneiros_engine7domains5actor4repoNtB2_9ActorRepo3get
FNDA:906,_RNvMNtNtNtCsk2dDpYChjKI_14oneiros_engine7domains5actor4repoNtB2_9ActorRepo3new
FNDA:303,_RNvMNtNtNtCsk2dDpYChjKI_14oneiros_engine7domains5actor4repoNtB2_9ActorRepo4list
FNDA:303,_RNvMNtNtNtCsk2dDpYChjKI_14oneiros_engine7domains5actor4repoNtB2_9ActorRepo5fetch
FNF:11
FNH:11
DA:11,906
DA:12,906
DA:13,906
DA:19,303
DA:20,605
DA:21,303
DA:23,905
DA:24,905
DA:25,905
DA:26,905
DA:28,905
DA:29,603
DA:30,603
DA:31,603
DA:32,603
DA:34,603
DA:35,603
DA:37,302
DA:38,603
DA:39,603
DA:40,603
DA:41,603
DA:42,603
DA:43,603
DA:44,603
DA:46,302
DA:47,0
DA:49,905
DA:51,303
DA:52,303
DA:54,303
DA:55,303
DA:56,303
DA:59,303
DA:60,303
DA:61,303
DA:63,303
DA:64,305
DA:65,305
DA:66,305
DA:67,303
DA:69,303
DA:71,305
DA:72,305
DA:73,305
DA:74,305
DA:75,305
DA:76,305
DA:77,305
DA:78,305
DA:82,303
DA:83,303
BRF:0
BRH:0
LF:60
LH:58
end_of_record
SF:/Users/esmevane/Code/projects/oneiros/crates/oneiros-engine/src/domains/actor/service.rs
FN:48,_RNCNvMNtNtNtCsk2dDpYChjKI_14oneiros_engine7domains5actor7serviceNtB4_12ActorService3get0Ba_
FN:63,_RNCNvMNtNtNtCsk2dDpYChjKI_14oneiros_engine7domains5actor7serviceNtB4_12ActorService4list0Ba_
FN:10,_RNCNvMNtNtNtCsk2dDpYChjKI_14oneiros_engine7domains5actor7serviceNtB4_12ActorService6create0Ba_
FN:45,_RNvMNtNtNtCsk2dDpYChjKI_14oneiros_engine7domains5actor7serviceNtB2_12ActorService3get
FN:60,_RNvMNtNtNtCsk2dDpYChjKI_14oneiros_engine7domains5actor7serviceNtB2_12ActorService4list
FN:6,_RNvMNtNtNtCsk2dDpYChjKI_14oneiros_engine7domains5actor7serviceNtB2_12ActorService6create
FNDA:1,_RNCNvMNtNtNtCsk2dDpYChjKI_14oneiros_engine7domains5actor7serviceNtB4_12ActorService3get0Ba_
FNDA:3,_RNCNvMNtNtNtCsk2dDpYChjKI_14oneiros_engine7domains5actor7serviceNtB4_12ActorService4list0Ba_
FNDA:302,_RNCNvMNtNtNtCsk2dDpYChjKI_14oneiros_engine7domains5actor7serviceNtB4_12ActorService6create0Ba_
FNDA:1,_RNvMNtNtNtCsk2dDpYChjKI_14oneiros_engine7domains5actor7serviceNtB2_12ActorService3get
FNDA:3,_RNvMNtNtNtCsk2dDpYChjKI_14oneiros_engine7domains5actor7serviceNtB2_12ActorService4list
FNDA:302,_RNvMNtNtNtCsk2dDpYChjKI_14oneiros_engine7domains5actor7serviceNtB2_12ActorService6create
FNF:6
FNH:6
DA:6,302
DA:7,302
DA:8,302
DA:9,302
DA:10,302
DA:11,302
DA:13,302
DA:14,302
DA:15,302
DA:16,302
DA:17,302
DA:19,302
DA:20,302
DA:21,302
DA:22,302
DA:23,302
DA:25,302
DA:26,302
DA:27,302
DA:28,302
DA:29,302
DA:32,302
DA:33,302
DA:34,302
DA:35,302
DA:37,302
DA:38,302
DA:39,302
DA:40,302
DA:41,302
DA:42,302
DA:43,302
DA:45,1
DA:46,1
DA:47,1
DA:48,1
DA:49,1
DA:50,1
DA:51,1
DA:52,1
DA:53,1
DA:54,1
DA:55,1
DA:56,1
DA:57,1
DA:58,1
DA:60,3
DA:61,3
DA:62,3
DA:63,3
DA:64,3
DA:65,3
DA:66,3
DA:67,3
DA:68,3
DA:69,3
DA:70,3
DA:71,3
DA:72,3
DA:73,3
BRF:0
BRH:0
LF:63
LH:63
end_of_record
SF:/Users/esmevane/Code/projects/oneiros/crates/oneiros-engine/src/domains/actor/store.rs
FN:39,_RNvMNtNtNtCsk2dDpYChjKI_14oneiros_engine7domains5actor5storeNtB2_10ActorStore11write_actor
FN:10,_RNvMNtNtNtCsk2dDpYChjKI_14oneiros_engine7domains5actor5storeNtB2_10ActorStore3new
FN:22,_RNvMNtNtNtCsk2dDpYChjKI_14oneiros_engine7domains5actor5storeNtB2_10ActorStore5reset
FN:14,_RNvMNtNtNtCsk2dDpYChjKI_14oneiros_engine7domains5actor5storeNtB2_10ActorStore6handle
FN:27,_RNvMNtNtNtCsk2dDpYChjKI_14oneiros_engine7domains5actor5storeNtB2_10ActorStore7migrate
FNDA:302,_RNvMNtNtNtCsk2dDpYChjKI_14oneiros_engine7domains5actor5storeNtB2_10ActorStore11write_actor
FNDA:3393,_RNvMNtNtNtCsk2dDpYChjKI_14oneiros_engine7domains5actor5storeNtB2_10ActorStore3new
FNDA:0,_RNvMNtNtNtCsk2dDpYChjKI_14oneiros_engine7domains5actor5storeNtB2_10ActorStore5reset
FNDA:1545,_RNvMNtNtNtCsk2dDpYChjKI_14oneiros_engine7domains5actor5storeNtB2_10ActorStore6handle
FNDA:1848,_RNvMNtNtNtCsk2dDpYChjKI_14oneiros_engine7domains5actor5storeNtB2_10ActorStore7migrate
FNF:5
FNH:4
DA:10,3393
DA:11,3393
DA:12,3393
DA:14,1545
DA:15,1545
DA:16,302
DA:17,302
DA:18,1243
DA:19,1545
DA:20,1545
DA:22,0
DA:23,0
DA:24,0
DA:25,0
DA:27,1848
DA:28,1848
DA:29,1848
DA:30,1848
DA:31,1848
DA:32,1848
DA:33,1848
DA:34,1848
DA:35,0
DA:36,1848
DA:37,1848
DA:39,302
DA:40,302
DA:41,302
DA:42,302
DA:43,302
DA:44,302
DA:45,302
DA:46,302
DA:47,302
DA:49,0
DA:50,302
DA:51,302
BRF:0
BRH:0
LF:37
LH:31
end_of_record
SF:/Users/esmevane/Code/projects/oneiros/crates/oneiros-engine/src/domains/actor/view.rs
FN:8,_RNvMNtNtNtCsk2dDpYChjKI_14oneiros_engine7domains5actor4viewNtB2_9ActorView3new
FN:12,_RNvMNtNtNtCsk2dDpYChjKI_14oneiros_engine7domains5actor4viewNtB2_9ActorView6render
FNDA:2,_RNvMNtNtNtCsk2dDpYChjKI_14oneiros_engine7domains5actor4viewNtB2_9ActorView3new
FNDA:2,_RNvMNtNtNtCsk2dDpYChjKI_14oneiros_engine7domains5actor4viewNtB2_9ActorView6render
FNF:2
FNH:2
DA:8,2
DA:9,2
DA:10,2
DA:12,2
DA:13,2
DA:14,0
DA:15,0
DA:16,0
DA:17,0
DA:18,0
DA:19,0
DA:20,0
DA:23,0
DA:24,0
DA:25,0
DA:26,0
DA:27,0
DA:28,0
DA:29,0
DA:30,0
DA:31,0
DA:34,2
DA:35,2
DA:36,2
DA:37,2
DA:38,2
DA:39,2
DA:41,2
DA:43,2
DA:44,2
DA:45,2
DA:46,2
DA:50,2
BRF:0
BRH:0
LF:33
LH:17
end_of_record
SF:/Users/esmevane/Code/projects/oneiros/crates/oneiros-engine/src/domains/agent/docs.rs
FN:19,_RNvMNtNtNtCsk2dDpYChjKI_14oneiros_engine7domains5agent4docsNtB2_9AgentDocs13resource_docs
FN:12,_RNvMNtNtNtCsk2dDpYChjKI_14oneiros_engine7domains5agent4docsNtB2_9AgentDocs3tag
FNDA:1520,_RNvMNtNtNtCsk2dDpYChjKI_14oneiros_engine7domains5agent4docsNtB2_9AgentDocs13resource_docs
FNDA:1824,_RNvMNtNtNtCsk2dDpYChjKI_14oneiros_engine7domains5agent4docsNtB2_9AgentDocs3tag
FNF:2
FNH:2
DA:12,1824
DA:13,1824
DA:14,1824
DA:15,1824
DA:16,1824
DA:17,1824
DA:19,1520
DA:20,1520
DA:21,1520
DA:22,304
DA:23,304
DA:24,304
DA:25,304
DA:26,304
DA:27,304
DA:28,304
DA:29,304
DA:30,304
DA:31,304
DA:32,304
DA:33,304
DA:34,304
DA:35,304
DA:36,304
DA:37,304
DA:38,304
DA:39,304
DA:40,304
DA:41,304
DA:42,304
DA:43,304
DA:44,304
DA:45,304
DA:46,304
DA:47,304
DA:48,304
DA:49,304
DA:50,304
DA:51,304
DA:53,1520
BRF:0
BRH:0
LF:40
LH:40
end_of_record
SF:/Users/esmevane/Code/projects/oneiros/crates/oneiros-engine/src/domains/agent/features/cli.rs
FN:20,_RNvMNtNtNtNtCsk2dDpYChjKI_14oneiros_engine7domains5agent8features3cliNtB2_13AgentCommands7execute
FN:20,_RNCNvMNtNtNtNtCsk2dDpYChjKI_14oneiros_engine7domains5agent8features3cliNtB4_13AgentCommands7execute0Bc_
FNDA:140,_RNvMNtNtNtNtCsk2dDpYChjKI_14oneiros_engine7domains5agent8features3cliNtB2_13AgentCommands7execute
FNDA:140,_RNCNvMNtNtNtNtCsk2dDpYChjKI_14oneiros_engine7domains5agent8features3cliNtB4_13AgentCommands7execute0Bc_
FNF:2
FNH:2
DA:20,140
DA:21,140
DA:23,140
DA:24,121
DA:25,10
DA:26,4
DA:27,3
DA:28,2
DA:31,136
DA:32,136
DA:33,140
BRF:0
BRH:0
LF:12
LH:12
end_of_record
SF:/Users/esmevane/Code/projects/oneiros/crates/oneiros-engine/src/domains/agent/features/http.rs
FN:19,_RNCNvMNtNtNtNtCsk2dDpYChjKI_14oneiros_engine7domains5agent8features4httpNtB4_11AgentRouter6routes0Bc_
FN:30,_RNCNvMNtNtNtNtCsk2dDpYChjKI_14oneiros_engine7domains5agent8features4httpNtB4_11AgentRouter6routess0_0Bc_
FN:33,_RNCNvMNtNtNtNtCsk2dDpYChjKI_14oneiros_engine7domains5agent8features4httpNtB4_11AgentRouter6routess1_0Bc_
FN:36,_RNCNvMNtNtNtNtCsk2dDpYChjKI_14oneiros_engine7domains5agent8features4httpNtB4_11AgentRouter6routess2_0Bc_
FN:22,_RNCNvMNtNtNtNtCsk2dDpYChjKI_14oneiros_engine7domains5agent8features4httpNtB4_11AgentRouter6routess_0Bc_
FN:56,_RNCNvNtNtNtNtCsk2dDpYChjKI_14oneiros_engine7domains5agent8features4http4list0Bb_
FN:63,_RNCNvNtNtNtNtCsk2dDpYChjKI_14oneiros_engine7domains5agent8features4http4show0Bb_
FN:48,_RNCNvNtNtNtNtCsk2dDpYChjKI_14oneiros_engine7domains5agent8features4http6create0Bb_
FN:82,_RNCNvNtNtNtNtCsk2dDpYChjKI_14oneiros_engine7domains5agent8features4http6remove0Bb_
FN:74,_RNCNvNtNtNtNtCsk2dDpYChjKI_14oneiros_engine7domains5agent8features4http6update0Bb_
FN:13,_RNvMNtNtNtNtCsk2dDpYChjKI_14oneiros_engine7domains5agent8features4httpNtB2_11AgentRouter6routes
FN:53,_RNvNtNtNtNtCsk2dDpYChjKI_14oneiros_engine7domains5agent8features4http4list
FN:60,_RNvNtNtNtNtCsk2dDpYChjKI_14oneiros_engine7domains5agent8features4http4show
FN:44,_RNvNtNtNtNtCsk2dDpYChjKI_14oneiros_engine7domains5agent8features4http6create
FN:78,_RNvNtNtNtNtCsk2dDpYChjKI_14oneiros_engine7domains5agent8features4http6remove
FN:69,_RNvNtNtNtNtCsk2dDpYChjKI_14oneiros_engine7domains5agent8features4http6update
FNDA:304,_RNCNvMNtNtNtNtCsk2dDpYChjKI_14oneiros_engine7domains5agent8features4httpNtB4_11AgentRouter6routes0Bc_
FNDA:304,_RNCNvMNtNtNtNtCsk2dDpYChjKI_14oneiros_engine7domains5agent8features4httpNtB4_11AgentRouter6routess0_0Bc_
FNDA:304,_RNCNvMNtNtNtNtCsk2dDpYChjKI_14oneiros_engine7domains5agent8features4httpNtB4_11AgentRouter6routess1_0Bc_
FNDA:304,_RNCNvMNtNtNtNtCsk2dDpYChjKI_14oneiros_engine7domains5agent8features4httpNtB4_11AgentRouter6routess2_0Bc_
FNDA:304,_RNCNvMNtNtNtNtCsk2dDpYChjKI_14oneiros_engine7domains5agent8features4httpNtB4_11AgentRouter6routess_0Bc_
FNDA:5,_RNCNvNtNtNtNtCsk2dDpYChjKI_14oneiros_engine7domains5agent8features4http4list0Bb_
FNDA:22,_RNCNvNtNtNtNtCsk2dDpYChjKI_14oneiros_engine7domains5agent8features4http4show0Bb_
FNDA:160,_RNCNvNtNtNtNtCsk2dDpYChjKI_14oneiros_engine7domains5agent8features4http6create0Bb_
FNDA:2,_RNCNvNtNtNtNtCsk2dDpYChjKI_14oneiros_engine7domains5agent8features4http6remove0Bb_
FNDA:3,_RNCNvNtNtNtNtCsk2dDpYChjKI_14oneiros_engine7domains5agent8features4http6update0Bb_
FNDA:304,_RNvMNtNtNtNtCsk2dDpYChjKI_14oneiros_engine7domains5agent8features4httpNtB2_11AgentRouter6routes
FNDA:5,_RNvNtNtNtNtCsk2dDpYChjKI_14oneiros_engine7domains5agent8features4http4list
FNDA:22,_RNvNtNtNtNtCsk2dDpYChjKI_14oneiros_engine7domains5agent8features4http4show
FNDA:160,_RNvNtNtNtNtCsk2dDpYChjKI_14oneiros_engine7domains5agent8features4http6create
FNDA:2,_RNvNtNtNtNtCsk2dDpYChjKI_14oneiros_engine7domains5agent8features4http6remove
FNDA:3,_RNvNtNtNtNtCsk2dDpYChjKI_14oneiros_engine7domains5agent8features4http6update
FNF:16
FNH:16
DA:13,304
DA:14,304
DA:15,304
DA:16,304
DA:17,304
DA:18,304
DA:19,304
DA:20,304
DA:21,304
DA:22,304
DA:23,304
DA:24,304
DA:25,304
DA:26,304
DA:28,304
DA:29,304
DA:30,304
DA:31,304
DA:32,304
DA:33,304
DA:34,304
DA:35,304
DA:36,304
DA:37,304
DA:38,304
DA:41,304
DA:44,160
DA:45,160
DA:46,160
DA:47,160
DA:48,160
DA:49,160
DA:50,154
DA:51,160
DA:53,5
DA:54,5
DA:55,5
DA:56,5
DA:57,5
DA:58,5
DA:60,22
DA:61,22
DA:62,22
DA:63,22
DA:65,22
DA:67,22
DA:69,3
DA:70,3
DA:71,3
DA:72,3
DA:73,3
DA:74,3
DA:75,3
DA:76,3
DA:78,2
DA:79,2
DA:80,2
DA:81,2
DA:82,2
DA:84,2
DA:85,2
DA:86,2
DA:87,2
DA:88,2
DA:89,2
DA:91,2
BRF:0
BRH:0
LF:76
LH:76
end_of_record
SF:/Users/esmevane/Code/projects/oneiros/crates/oneiros-engine/src/domains/agent/features/mcp.rs
FN:24,_RNvMNtNtNtNtCsk2dDpYChjKI_14oneiros_engine7domains5agent8features3mcpNtB2_8AgentMcp18resource_templates
FN:47,_RNvMNtNtNtNtCsk2dDpYChjKI_14oneiros_engine7domains5agent8features3mcpNtB2_8AgentMcp21read_resource_special
FN:6,_RNvMNtNtNtNtCsk2dDpYChjKI_14oneiros_engine7domains5agent8features3mcpNtB2_8AgentMcp4defs
FN:10,_RNvMNtNtNtNtCsk2dDpYChjKI_14oneiros_engine7domains5agent8features3mcpNtB2_8AgentMcp8dispatch
FN:35,_RNvMNtNtNtNtCsk2dDpYChjKI_14oneiros_engine7domains5agent8features3mcpNtB2_8AgentMcp8resource
FN:20,_RNvMNtNtNtNtCsk2dDpYChjKI_14oneiros_engine7domains5agent8features3mcpNtB2_8AgentMcp9resources
FN:154,_RNvNtNtNtNtNtCsk2dDpYChjKI_14oneiros_engine7domains5agent8features3mcp9agent_mcp22read_agent_connections
FN:84,_RNvNtNtNtNtNtCsk2dDpYChjKI_14oneiros_engine7domains5agent8features3mcp9agent_mcp8dispatch
FN:125,_RNvNtNtNtNtNtCsk2dDpYChjKI_14oneiros_engine7domains5agent8features3mcp9agent_mcp8resource
FN:67,_RNvNtNtNtNtNtCsk2dDpYChjKI_14oneiros_engine7domains5agent8features3mcp9agent_mcp9tool_defs
FN:93,_RNCNCNvNtNtNtNtNtCsk2dDpYChjKI_14oneiros_engine7domains5agent8features3mcp9agent_mcp8dispatch00Bf_
FN:157,_RNCNvNtNtNtNtNtCsk2dDpYChjKI_14oneiros_engine7domains5agent8features3mcp9agent_mcp22read_agent_connections0Bd_
FN:89,_RNCNvNtNtNtNtNtCsk2dDpYChjKI_14oneiros_engine7domains5agent8features3mcp9agent_mcp8dispatch0Bd_
FN:128,_RNCNvNtNtNtNtNtCsk2dDpYChjKI_14oneiros_engine7domains5agent8features3mcp9agent_mcp8resource0Bd_
FN:51,_RNCNvMNtNtNtNtCsk2dDpYChjKI_14oneiros_engine7domains5agent8features3mcpNtB4_8AgentMcp21read_resource_special0Bc_
FN:16,_RNCNvMNtNtNtNtCsk2dDpYChjKI_14oneiros_engine7domains5agent8features3mcpNtB4_8AgentMcp8dispatch0Bc_
FN:39,_RNCNvMNtNtNtNtCsk2dDpYChjKI_14oneiros_engine7domains5agent8features3mcpNtB4_8AgentMcp8resource0Bc_
FNDA:1,_RNvMNtNtNtNtCsk2dDpYChjKI_14oneiros_engine7domains5agent8features3mcpNtB2_8AgentMcp18resource_templates
FNDA:0,_RNvMNtNtNtNtCsk2dDpYChjKI_14oneiros_engine7domains5agent8features3mcpNtB2_8AgentMcp21read_resource_special
FNDA:1,_RNvMNtNtNtNtCsk2dDpYChjKI_14oneiros_engine7domains5agent8features3mcpNtB2_8AgentMcp4defs
FNDA:0,_RNvMNtNtNtNtCsk2dDpYChjKI_14oneiros_engine7domains5agent8features3mcpNtB2_8AgentMcp8dispatch
FNDA:1,_RNvMNtNtNtNtCsk2dDpYChjKI_14oneiros_engine7domains5agent8features3mcpNtB2_8AgentMcp8resource
FNDA:1,_RNvMNtNtNtNtCsk2dDpYChjKI_14oneiros_engine7domains5agent8features3mcpNtB2_8AgentMcp9resources
FNDA:0,_RNvNtNtNtNtNtCsk2dDpYChjKI_14oneiros_engine7domains5agent8features3mcp9agent_mcp22read_agent_connections
FNDA:0,_RNvNtNtNtNtNtCsk2dDpYChjKI_14oneiros_engine7domains5agent8features3mcp9agent_mcp8dispatch
FNDA:1,_RNvNtNtNtNtNtCsk2dDpYChjKI_14oneiros_engine7domains5agent8features3mcp9agent_mcp8resource
FNDA:1,_RNvNtNtNtNtNtCsk2dDpYChjKI_14oneiros_engine7domains5agent8features3mcp9agent_mcp9tool_defs
FNDA:0,_RNCNCNvNtNtNtNtNtCsk2dDpYChjKI_14oneiros_engine7domains5agent8features3mcp9agent_mcp8dispatch00Bf_
FNDA:0,_RNCNvNtNtNtNtNtCsk2dDpYChjKI_14oneiros_engine7domains5agent8features3mcp9agent_mcp22read_agent_connections0Bd_
FNDA:0,_RNCNvNtNtNtNtNtCsk2dDpYChjKI_14oneiros_engine7domains5agent8features3mcp9agent_mcp8dispatch0Bd_
FNDA:1,_RNCNvNtNtNtNtNtCsk2dDpYChjKI_14oneiros_engine7domains5agent8features3mcp9agent_mcp8resource0Bd_
FNDA:0,_RNCNvMNtNtNtNtCsk2dDpYChjKI_14oneiros_engine7domains5agent8features3mcpNtB4_8AgentMcp21read_resource_special0Bc_
FNDA:0,_RNCNvMNtNtNtNtCsk2dDpYChjKI_14oneiros_engine7domains5agent8features3mcpNtB4_8AgentMcp8dispatch0Bc_
FNDA:1,_RNCNvMNtNtNtNtCsk2dDpYChjKI_14oneiros_engine7domains5agent8features3mcpNtB4_8AgentMcp8resource0Bc_
FNF:17
FNH:8
DA:6,1
DA:7,1
DA:8,1
DA:10,0
DA:11,0
DA:12,0
DA:13,0
DA:14,0
DA:15,0
DA:16,0
DA:17,0
DA:18,0
DA:20,1
DA:21,1
DA:22,1
DA:24,1
DA:25,1
DA:26,1
DA:27,1
DA:28,1
DA:29,1
DA:30,1
DA:31,1
DA:33,1
DA:35,1
DA:36,1
DA:37,1
DA:38,1
DA:39,1
DA:40,1
DA:41,1
DA:47,0
DA:48,0
DA:49,0
DA:50,0
DA:51,0
DA:52,0
DA:53,0
DA:54,0
DA:56,0
DA:57,0
DA:58,0
DA:59,0
DA:61,0
DA:67,1
DA:68,1
DA:69,1
DA:70,1
DA:71,1
DA:72,1
DA:73,1
DA:74,1
DA:75,1
DA:76,1
DA:77,1
DA:78,1
DA:79,1
DA:80,1
DA:82,1
DA:84,0
DA:85,0
DA:86,0
DA:87,0
DA:88,0
DA:89,0
DA:90,0
DA:91,0
DA:92,0
DA:93,0
DA:95,0
DA:97,0
DA:99,0
DA:100,0
DA:101,0
DA:102,0
DA:103,0
DA:106,0
DA:107,0
DA:108,0
DA:109,0
DA:110,0
DA:113,0
DA:114,0
DA:115,0
DA:116,0
DA:117,0
DA:120,0
DA:123,0
DA:125,1
DA:126,1
DA:127,1
DA:128,1
DA:129,1
DA:130,1
DA:131,0
DA:132,0
DA:133,0
DA:135,0
DA:137,0
DA:140,1
DA:141,1
DA:142,1
DA:143,1
DA:144,1
DA:148,0
DA:149,0
DA:150,0
DA:152,1
DA:154,0
DA:155,0
DA:156,0
DA:157,0
DA:158,0
DA:159,0
DA:160,0
DA:161,0
DA:162,0
DA:163,0
DA:164,0
DA:165,0
DA:166,0
DA:167,0
DA:169,0
DA:170,0
DA:171,0
DA:173,0
DA:176,0
DA:177,0
DA:178,0
DA:179,0
DA:180,0
DA:181,0
DA:182,0
DA:183,0
BRF:0
BRH:0
LF:141
LH:51
end_of_record
SF:/Users/esmevane/Code/projects/oneiros/crates/oneiros-engine/src/domains/agent/features/projections.rs
FN:6,_RNvMNtNtNtNtCsk2dDpYChjKI_14oneiros_engine7domains5agent8features11projectionsNtB2_16AgentProjections3all
FN:13,_RNCNvNtNtNtNtCsk2dDpYChjKI_14oneiros_engine7domains5agent8features11projections11PROJECTIONS0Bb_
FN:15,_RNCNvNtNtNtNtCsk2dDpYChjKI_14oneiros_engine7domains5agent8features11projections11PROJECTIONSs0_0Bb_
FN:14,_RNCNvNtNtNtNtCsk2dDpYChjKI_14oneiros_engine7domains5agent8features11projections11PROJECTIONSs_0Bb_
FNDA:5825,_RNvMNtNtNtNtCsk2dDpYChjKI_14oneiros_engine7domains5agent8features11projectionsNtB2_16AgentProjections3all
FNDA:574,_RNCNvNtNtNtNtCsk2dDpYChjKI_14oneiros_engine7domains5agent8features11projections11PROJECTIONS0Bb_
FNDA:288,_RNCNvNtNtNtNtCsk2dDpYChjKI_14oneiros_engine7domains5agent8features11projections11PROJECTIONSs0_0Bb_
FNDA:7005,_RNCNvNtNtNtNtCsk2dDpYChjKI_14oneiros_engine7domains5agent8features11projections11PROJECTIONSs_0Bb_
FNF:4
FNH:4
DA:6,5825
DA:7,5825
DA:8,5825
DA:13,574
DA:14,7005
DA:15,288
BRF:0
BRH:0
LF:6
LH:6
end_of_record
SF:/Users/esmevane/Code/projects/oneiros/crates/oneiros-engine/src/domains/agent/features/skills.rs
FN:6,_RNvMNtNtNtNtCsk2dDpYChjKI_14oneiros_engine7domains5agent8features6skillsNtB2_11AgentSkills3all
FNDA:12,_RNvMNtNtNtNtCsk2dDpYChjKI_14oneiros_engine7domains5agent8features6skillsNtB2_11AgentSkills3all
FNF:1
FNH:1
DA:6,12
DA:7,12
DA:8,12
DA:9,12
DA:10,12
DA:11,12
DA:12,12
DA:14,12
BRF:0
BRH:0
LF:8
LH:8
end_of_record
SF:/Users/esmevane/Code/projects/oneiros/crates/oneiros-engine/src/domains/agent/features/state.rs
FN:6,_RNvMNtNtNtNtCsk2dDpYChjKI_14oneiros_engine7domains5agent8features5stateNtB2_10AgentState6reduce
FN:20,_RNvMNtNtNtNtCsk2dDpYChjKI_14oneiros_engine7domains5agent8features5stateNtB2_10AgentState7reducer
FN:30,_RNvNtNtNtNtNtCsk2dDpYChjKI_14oneiros_engine7domains5agent8features5state5testss_13creates_agent
FN:47,_RNvNtNtNtNtNtCsk2dDpYChjKI_14oneiros_engine7domains5agent8features5state5testss_13removes_agent
FNDA:7007,_RNvMNtNtNtNtCsk2dDpYChjKI_14oneiros_engine7domains5agent8features5stateNtB2_10AgentState6reduce
FNDA:580,_RNvMNtNtNtNtCsk2dDpYChjKI_14oneiros_engine7domains5agent8features5stateNtB2_10AgentState7reducer
FNDA:1,_RNvNtNtNtNtNtCsk2dDpYChjKI_14oneiros_engine7domains5agent8features5state5testss_13creates_agent
FNDA:1,_RNvNtNtNtNtNtCsk2dDpYChjKI_14oneiros_engine7domains5agent8features5state5testss_13removes_agent
FNF:4
FNH:4
DA:6,7007
DA:7,7007
DA:8,230
DA:9,224
DA:10,224
DA:12,230
DA:13,6
DA:14,224
DA:15,6777
DA:17,7007
DA:18,7007
DA:20,580
DA:21,580
DA:22,580
DA:30,1
DA:31,1
DA:32,1
DA:33,1
DA:34,1
DA:35,1
DA:36,1
DA:37,1
DA:38,1
DA:39,1
DA:41,1
DA:43,1
DA:44,1
DA:47,1
DA:48,1
DA:49,1
DA:50,1
DA:51,1
DA:52,1
DA:53,1
DA:54,1
DA:55,1
DA:57,1
DA:58,1
DA:59,1
DA:60,1
DA:61,1
DA:62,1
DA:64,1
DA:65,1
BRF:0
BRH:0
LF:44
LH:44
end_of_record
SF:/Users/esmevane/Code/projects/oneiros/crates/oneiros-engine/src/domains/agent/model.rs
FN:31,_RNCNvMs_NtNtNtCsk2dDpYChjKI_14oneiros_engine7domains5agent5modelINtNtNtBc_6values12entity_index11EntityIndexNtB6_7AgentIdNtB6_5AgentE12find_by_name0Bc_
FN:30,_RNvMs_NtNtNtCsk2dDpYChjKI_14oneiros_engine7domains5agent5modelINtNtNtBa_6values12entity_index11EntityIndexNtB4_7AgentIdNtB4_5AgentE12find_by_name
FN:34,_RNvMs_NtNtNtCsk2dDpYChjKI_14oneiros_engine7domains5agent5modelINtNtNtBa_6values12entity_index11EntityIndexNtB4_7AgentIdNtB4_5AgentE14remove_by_name
FN:46,_RNvMs0_NtNtNtCsk2dDpYChjKI_14oneiros_engine7domains5agent5modelNtB5_9AgentName14normalize_with
FN:22,_RNvXNtNtNtCsk2dDpYChjKI_14oneiros_engine7domains5agent5modelNtB2_5AgentINtNtNtB8_6values12entity_index9IndexableNtB2_7AgentIdE2id
FNDA:140,_RNCNvMs_NtNtNtCsk2dDpYChjKI_14oneiros_engine7domains5agent5modelINtNtNtBc_6values12entity_index11EntityIndexNtB6_7AgentIdNtB6_5AgentE12find_by_name0Bc_
FNDA:133,_RNvMs_NtNtNtCsk2dDpYChjKI_14oneiros_engine7domains5agent5modelINtNtNtBa_6values12entity_index11EntityIndexNtB4_7AgentIdNtB4_5AgentE12find_by_name
FNDA:6,_RNvMs_NtNtNtCsk2dDpYChjKI_14oneiros_engine7domains5agent5modelINtNtNtBa_6values12entity_index11EntityIndexNtB4_7AgentIdNtB4_5AgentE14remove_by_name
FNDA:192,_RNvMs0_NtNtNtCsk2dDpYChjKI_14oneiros_engine7domains5agent5modelNtB5_9AgentName14normalize_with
FNDA:230,_RNvXNtNtNtCsk2dDpYChjKI_14oneiros_engine7domains5agent5modelNtB2_5AgentINtNtNtB8_6values12entity_index9IndexableNtB2_7AgentIdE2id
FNF:5
FNH:5
DA:22,230
DA:23,230
DA:24,230
DA:30,133
DA:31,140
DA:32,133
DA:34,6
DA:35,6
DA:36,6
DA:37,6
DA:38,6
DA:39,6
DA:46,192
DA:47,192
DA:48,192
DA:49,4
DA:51,188
DA:53,192
BRF:0
BRH:0
LF:19
LH:19
end_of_record
SF:/Users/esmevane/Code/projects/oneiros/crates/oneiros-engine/src/domains/agent/protocol/errors.rs
FN:47,_RNvXNtNtNtNtCsk2dDpYChjKI_14oneiros_engine7domains5agent8protocol6errorsNtB2_10AgentErrorNtNtNtCs1iC2TOwIRjP_9axum_core8response13into_response12IntoResponse13into_response
FNDA:11,_RNvXNtNtNtNtCsk2dDpYChjKI_14oneiros_engine7domains5agent8protocol6errorsNtB2_10AgentErrorNtNtNtCs1iC2TOwIRjP_9axum_core8response13into_response12IntoResponse13into_response
FNF:1
FNH:1
DA:47,11
DA:48,11
DA:49,4
DA:50,0
DA:51,3
DA:52,3
DA:53,1
DA:55,0
DA:57,0
DA:58,0
DA:59,0
DA:61,11
DA:62,11
BRF:0
BRH:0
LF:13
LH:8
end_of_record
SF:/Users/esmevane/Code/projects/oneiros/crates/oneiros-engine/src/domains/agent/protocol/events.rs
FN:79,_RNvNtNtNtNtNtCsk2dDpYChjKI_14oneiros_engine7domains5agent8protocol6events5tests12sample_agent
FN:89,_RNvNtNtNtNtNtCsk2dDpYChjKI_14oneiros_engine7domains5agent8protocol6events5testss_27event_types_are_kebab_cased
FN:101,_RNvNtNtNtNtNtCsk2dDpYChjKI_14oneiros_engine7domains5agent8protocol6events5testss_33agent_created_wire_format_is_flat
FN:160,_RNvNtNtNtNtNtCsk2dDpYChjKI_14oneiros_engine7domains5agent8protocol6events5testss_40agent_created_v0_upcasts_to_v1_via_agent
FN:124,_RNvNtNtNtNtNtCsk2dDpYChjKI_14oneiros_engine7domains5agent8protocol6events5testss_42agent_removed_round_trips_through_v1_layer
FN:142,_RNvNtNtNtNtNtCsk2dDpYChjKI_14oneiros_engine7domains5agent8protocol6events5testss_42deserialize_accepts_pre_version_wire_shape
FN:29,_RNvMNtNtNtNtCsk2dDpYChjKI_14oneiros_engine7domains5agent8protocol6eventsNtB2_11AgentEvents11maybe_agent
FNDA:1,_RNvNtNtNtNtNtCsk2dDpYChjKI_14oneiros_engine7domains5agent8protocol6events5tests12sample_agent
FNDA:1,_RNvNtNtNtNtNtCsk2dDpYChjKI_14oneiros_engine7domains5agent8protocol6events5testss_27event_types_are_kebab_cased
FNDA:1,_RNvNtNtNtNtNtCsk2dDpYChjKI_14oneiros_engine7domains5agent8protocol6events5testss_33agent_created_wire_format_is_flat
FNDA:1,_RNvNtNtNtNtNtCsk2dDpYChjKI_14oneiros_engine7domains5agent8protocol6events5testss_40agent_created_v0_upcasts_to_v1_via_agent
FNDA:1,_RNvNtNtNtNtNtCsk2dDpYChjKI_14oneiros_engine7domains5agent8protocol6events5testss_42agent_removed_round_trips_through_v1_layer
FNDA:1,_RNvNtNtNtNtNtCsk2dDpYChjKI_14oneiros_engine7domains5agent8protocol6events5testss_42deserialize_accepts_pre_version_wire_shape
FNDA:230,_RNvMNtNtNtNtCsk2dDpYChjKI_14oneiros_engine7domains5agent8protocol6eventsNtB2_11AgentEvents11maybe_agent
FNF:7
FNH:7
DA:29,230
DA:30,230
DA:31,221
DA:32,3
DA:33,6
DA:35,230
DA:79,1
DA:80,1
DA:81,1
DA:82,1
DA:83,1
DA:84,1
DA:85,1
DA:86,1
DA:89,1
DA:90,1
DA:91,1
DA:92,1
DA:93,1
DA:94,1
DA:95,3
DA:96,3
DA:98,1
DA:101,1
DA:104,1
DA:105,1
DA:106,1
DA:108,1
DA:109,1
DA:110,1
DA:111,1
DA:114,1
DA:115,1
DA:116,1
DA:117,1
DA:118,1
DA:121,1
DA:124,1
DA:125,1
DA:126,1
DA:127,1
DA:129,1
DA:130,1
DA:132,1
DA:133,1
DA:134,1
DA:135,1
DA:137,0
DA:139,1
DA:142,1
DA:145,1
DA:146,1
DA:147,1
DA:150,1
DA:151,1
DA:152,1
DA:153,1
DA:155,0
DA:157,1
DA:160,1
DA:163,1
DA:164,1
DA:165,1
DA:166,1
DA:167,1
DA:168,1
DA:169,1
DA:170,1
DA:171,1
DA:172,1
BRF:0
BRH:0
LF:70
LH:68
end_of_record
SF:/Users/esmevane/Code/projects/oneiros/crates/oneiros-engine/src/domains/agent/protocol/requests.rs
FN:156,_RNvNtNtNtNtNtCsk2dDpYChjKI_14oneiros_engine7domains5agent8protocol8requests5testss_29request_types_are_kebab_cased
FN:171,_RNvNtNtNtNtNtCsk2dDpYChjKI_14oneiros_engine7domains5agent8protocol8requests5testss_37create_agent_wire_format_is_unwrapped
FN:27,_RNvXNtNtNtNtCsk2dDpYChjKI_14oneiros_engine7domains5agent8protocol8requestsNtB2_11CreateAgentNtNtBa_6client13ClientRequest15execute_request
FN:73,_RNvXs0_NtNtNtNtCsk2dDpYChjKI_14oneiros_engine7domains5agent8protocol8requestsNtB5_10ListAgentsNtNtBd_6client13ClientRequest15execute_request
FN:113,_RNvXs1_NtNtNtNtCsk2dDpYChjKI_14oneiros_engine7domains5agent8protocol8requestsNtB5_11UpdateAgentNtNtBd_6client13ClientRequest15execute_request
FN:134,_RNvXs2_NtNtNtNtCsk2dDpYChjKI_14oneiros_engine7domains5agent8protocol8requestsNtB5_11RemoveAgentNtNtBd_6client13ClientRequest15execute_request
FN:45,_RNvXs_NtNtNtNtCsk2dDpYChjKI_14oneiros_engine7domains5agent8protocol8requestsNtB4_8GetAgentNtNtBc_6client13ClientRequest15execute_request
FN:86,_RNCNCNvXs0_NtNtNtNtCsk2dDpYChjKI_14oneiros_engine7domains5agent8protocol8requestsNtB9_10ListAgentsNtNtBh_6client13ClientRequest15execute_request00Bh_
FN:27,_RNCNvXNtNtNtNtCsk2dDpYChjKI_14oneiros_engine7domains5agent8protocol8requestsNtB4_11CreateAgentNtNtBc_6client13ClientRequest15execute_request0Bc_
FN:73,_RNCNvXs0_NtNtNtNtCsk2dDpYChjKI_14oneiros_engine7domains5agent8protocol8requestsNtB7_10ListAgentsNtNtBf_6client13ClientRequest15execute_request0Bf_
FN:113,_RNCNvXs1_NtNtNtNtCsk2dDpYChjKI_14oneiros_engine7domains5agent8protocol8requestsNtB7_11UpdateAgentNtNtBf_6client13ClientRequest15execute_request0Bf_
FN:134,_RNCNvXs2_NtNtNtNtCsk2dDpYChjKI_14oneiros_engine7domains5agent8protocol8requestsNtB7_11RemoveAgentNtNtBf_6client13ClientRequest15execute_request0Bf_
FN:45,_RNCNvXs_NtNtNtNtCsk2dDpYChjKI_14oneiros_engine7domains5agent8protocol8requestsNtB6_8GetAgentNtNtBe_6client13ClientRequest15execute_request0Be_
FNDA:1,_RNvNtNtNtNtNtCsk2dDpYChjKI_14oneiros_engine7domains5agent8protocol8requests5testss_29request_types_are_kebab_cased
FNDA:1,_RNvNtNtNtNtNtCsk2dDpYChjKI_14oneiros_engine7domains5agent8protocol8requests5testss_37create_agent_wire_format_is_unwrapped
FNDA:160,_RNvXNtNtNtNtCsk2dDpYChjKI_14oneiros_engine7domains5agent8protocol8requestsNtB2_11CreateAgentNtNtBa_6client13ClientRequest15execute_request
FNDA:7,_RNvXs0_NtNtNtNtCsk2dDpYChjKI_14oneiros_engine7domains5agent8protocol8requestsNtB5_10ListAgentsNtNtBd_6client13ClientRequest15execute_request
FNDA:3,_RNvXs1_NtNtNtNtCsk2dDpYChjKI_14oneiros_engine7domains5agent8protocol8requestsNtB5_11UpdateAgentNtNtBd_6client13ClientRequest15execute_request
FNDA:2,_RNvXs2_NtNtNtNtCsk2dDpYChjKI_14oneiros_engine7domains5agent8protocol8requestsNtB5_11RemoveAgentNtNtBd_6client13ClientRequest15execute_request
FNDA:22,_RNvXs_NtNtNtNtCsk2dDpYChjKI_14oneiros_engine7domains5agent8protocol8requestsNtB4_8GetAgentNtNtBc_6client13ClientRequest15execute_request
FNDA:14,_RNCNCNvXs0_NtNtNtNtCsk2dDpYChjKI_14oneiros_engine7domains5agent8protocol8requestsNtB9_10ListAgentsNtNtBh_6client13ClientRequest15execute_request00Bh_
FNDA:160,_RNCNvXNtNtNtNtCsk2dDpYChjKI_14oneiros_engine7domains5agent8protocol8requestsNtB4_11CreateAgentNtNtBc_6client13ClientRequest15execute_request0Bc_
FNDA:7,_RNCNvXs0_NtNtNtNtCsk2dDpYChjKI_14oneiros_engine7domains5agent8protocol8requestsNtB7_10ListAgentsNtNtBf_6client13ClientRequest15execute_request0Bf_
FNDA:3,_RNCNvXs1_NtNtNtNtCsk2dDpYChjKI_14oneiros_engine7domains5agent8protocol8requestsNtB7_11UpdateAgentNtNtBf_6client13ClientRequest15execute_request0Bf_
FNDA:2,_RNCNvXs2_NtNtNtNtCsk2dDpYChjKI_14oneiros_engine7domains5agent8protocol8requestsNtB7_11RemoveAgentNtNtBf_6client13ClientRequest15execute_request0Bf_
FNDA:22,_RNCNvXs_NtNtNtNtCsk2dDpYChjKI_14oneiros_engine7domains5agent8protocol8requestsNtB6_8GetAgentNtNtBe_6client13ClientRequest15execute_request0Be_
FNF:13
FNH:13
DA:27,160
DA:28,160
DA:29,160
DA:45,22
DA:46,22
DA:47,22
DA:48,22
DA:73,7
DA:74,7
DA:75,7
DA:77,7
DA:78,0
DA:79,7
DA:81,7
DA:82,7
DA:84,7
DA:85,7
DA:86,14
DA:87,7
DA:88,7
DA:89,7
DA:90,7
DA:113,3
DA:114,3
DA:115,3
DA:116,3
DA:117,3
DA:118,3
DA:134,2
DA:135,2
DA:136,2
DA:137,2
DA:156,1
DA:157,1
DA:158,1
DA:159,1
DA:160,1
DA:161,1
DA:162,1
DA:163,1
DA:165,5
DA:166,5
DA:168,1
DA:171,1
DA:172,1
DA:173,1
DA:174,1
DA:175,1
DA:176,1
DA:177,1
DA:179,1
DA:180,1
DA:181,1
DA:182,1
DA:183,1
DA:186,1
BRF:0
BRH:0
LF:62
LH:61
end_of_record
SF:/Users/esmevane/Code/projects/oneiros/crates/oneiros-engine/src/domains/agent/repo.rs
FN:150,_RNCNCNvMNtNtNtCsk2dDpYChjKI_14oneiros_engine7domains5agent4repoNtB6_9AgentRepo11fetch_by_id00Bc_
FN:129,_RNCNCNvMNtNtNtCsk2dDpYChjKI_14oneiros_engine7domains5agent4repoNtB6_9AgentRepo11name_exists00Bc_
FN:22,_RNCNCNvMNtNtNtCsk2dDpYChjKI_14oneiros_engine7domains5agent4repoNtB6_9AgentRepo3get00Bc_
FN:139,_RNCNCNvMNtNtNtCsk2dDpYChjKI_14oneiros_engine7domains5agent4repoNtB6_9AgentRepo5fetch00Bc_
FN:89,_RNCNCNvMNtNtNtCsk2dDpYChjKI_14oneiros_engine7domains5agent4repoNtB6_9AgentRepo8get_many00Bc_
FN:121,_RNCNCNvMNtNtNtCsk2dDpYChjKI_14oneiros_engine7domains5agent4repoNtB6_9AgentRepo8get_many0s0_0Bc_
FN:99,_RNCNCNvMNtNtNtCsk2dDpYChjKI_14oneiros_engine7domains5agent4repoNtB6_9AgentRepo8get_many0s_0Bc_
FN:54,_RNCNCNvMNtNtNtCsk2dDpYChjKI_14oneiros_engine7domains5agent4repoNtB6_9AgentRepo9get_by_id00Bc_
FN:146,_RNCNvMNtNtNtCsk2dDpYChjKI_14oneiros_engine7domains5agent4repoNtB4_9AgentRepo11fetch_by_id0Ba_
FN:124,_RNCNvMNtNtNtCsk2dDpYChjKI_14oneiros_engine7domains5agent4repoNtB4_9AgentRepo11name_exists0Ba_
FN:17,_RNCNvMNtNtNtCsk2dDpYChjKI_14oneiros_engine7domains5agent4repoNtB4_9AgentRepo3get0Ba_
FN:138,_RNCNvMNtNtNtCsk2dDpYChjKI_14oneiros_engine7domains5agent4repoNtB4_9AgentRepo5fetch0Ba_
FN:83,_RNCNvMNtNtNtCsk2dDpYChjKI_14oneiros_engine7domains5agent4repoNtB4_9AgentRepo8get_many0Ba_
FN:49,_RNCNvMNtNtNtCsk2dDpYChjKI_14oneiros_engine7domains5agent4repoNtB4_9AgentRepo9get_by_id0Ba_
FN:146,_RNvMNtNtNtCsk2dDpYChjKI_14oneiros_engine7domains5agent4repoNtB2_9AgentRepo11fetch_by_id
FN:124,_RNvMNtNtNtCsk2dDpYChjKI_14oneiros_engine7domains5agent4repoNtB2_9AgentRepo11name_exists
FN:17,_RNvMNtNtNtCsk2dDpYChjKI_14oneiros_engine7domains5agent4repoNtB2_9AgentRepo3get
FN:13,_RNvMNtNtNtCsk2dDpYChjKI_14oneiros_engine7domains5agent4repoNtB2_9AgentRepo3new
FN:138,_RNvMNtNtNtCsk2dDpYChjKI_14oneiros_engine7domains5agent4repoNtB2_9AgentRepo5fetch
FN:83,_RNvMNtNtNtCsk2dDpYChjKI_14oneiros_engine7domains5agent4repoNtB2_9AgentRepo8get_many
FN:49,_RNvMNtNtNtCsk2dDpYChjKI_14oneiros_engine7domains5agent4repoNtB2_9AgentRepo9get_by_id
FNDA:1,_RNCNCNvMNtNtNtCsk2dDpYChjKI_14oneiros_engine7domains5agent4repoNtB6_9AgentRepo11fetch_by_id00Bc_
FNDA:192,_RNCNCNvMNtNtNtCsk2dDpYChjKI_14oneiros_engine7domains5agent4repoNtB6_9AgentRepo11name_exists00Bc_
FNDA:690,_RNCNCNvMNtNtNtCsk2dDpYChjKI_14oneiros_engine7domains5agent4repoNtB6_9AgentRepo3get00Bc_
FNDA:1104,_RNCNCNvMNtNtNtCsk2dDpYChjKI_14oneiros_engine7domains5agent4repoNtB6_9AgentRepo5fetch00Bc_
FNDA:8,_RNCNCNvMNtNtNtCsk2dDpYChjKI_14oneiros_engine7domains5agent4repoNtB6_9AgentRepo8get_many00Bc_
FNDA:8,_RNCNCNvMNtNtNtCsk2dDpYChjKI_14oneiros_engine7domains5agent4repoNtB6_9AgentRepo8get_many0s0_0Bc_
FNDA:8,_RNCNCNvMNtNtNtCsk2dDpYChjKI_14oneiros_engine7domains5agent4repoNtB6_9AgentRepo8get_many0s_0Bc_
FNDA:1,_RNCNCNvMNtNtNtCsk2dDpYChjKI_14oneiros_engine7domains5agent4repoNtB6_9AgentRepo9get_by_id00Bc_
FNDA:1,_RNCNvMNtNtNtCsk2dDpYChjKI_14oneiros_engine7domains5agent4repoNtB4_9AgentRepo11fetch_by_id0Ba_
FNDA:192,_RNCNvMNtNtNtCsk2dDpYChjKI_14oneiros_engine7domains5agent4repoNtB4_9AgentRepo11name_exists0Ba_
FNDA:1122,_RNCNvMNtNtNtCsk2dDpYChjKI_14oneiros_engine7domains5agent4repoNtB4_9AgentRepo3get0Ba_
FNDA:693,_RNCNvMNtNtNtCsk2dDpYChjKI_14oneiros_engine7domains5agent4repoNtB4_9AgentRepo5fetch0Ba_
FNDA:27,_RNCNvMNtNtNtCsk2dDpYChjKI_14oneiros_engine7domains5agent4repoNtB4_9AgentRepo8get_many0Ba_
FNDA:1,_RNCNvMNtNtNtCsk2dDpYChjKI_14oneiros_engine7domains5agent4repoNtB4_9AgentRepo9get_by_id0Ba_
FNDA:1,_RNvMNtNtNtCsk2dDpYChjKI_14oneiros_engine7domains5agent4repoNtB2_9AgentRepo11fetch_by_id
FNDA:192,_RNvMNtNtNtCsk2dDpYChjKI_14oneiros_engine7domains5agent4repoNtB2_9AgentRepo11name_exists
FNDA:1122,_RNvMNtNtNtCsk2dDpYChjKI_14oneiros_engine7domains5agent4repoNtB2_9AgentRepo3get
FNDA:932,_RNvMNtNtNtCsk2dDpYChjKI_14oneiros_engine7domains5agent4repoNtB2_9AgentRepo3new
FNDA:693,_RNvMNtNtNtCsk2dDpYChjKI_14oneiros_engine7domains5agent4repoNtB2_9AgentRepo5fetch
FNDA:27,_RNvMNtNtNtCsk2dDpYChjKI_14oneiros_engine7domains5agent4repoNtB2_9AgentRepo8get_many
FNDA:1,_RNvMNtNtNtCsk2dDpYChjKI_14oneiros_engine7domains5agent4repoNtB2_9AgentRepo9get_by_id
FNF:21
FNH:21
DA:13,932
DA:14,932
DA:15,932
DA:17,1122
DA:18,1122
DA:19,1122
DA:20,1122
DA:22,1122
DA:23,690
DA:24,690
DA:26,690
DA:27,690
DA:28,690
DA:29,690
DA:30,690
DA:32,690
DA:34,432
DA:35,690
DA:36,690
DA:37,690
DA:38,690
DA:39,690
DA:40,690
DA:41,690
DA:42,690
DA:44,432
DA:45,0
DA:47,1122
DA:49,1
DA:50,1
DA:51,1
DA:52,1
DA:54,1
DA:55,1
DA:56,1
DA:58,1
DA:59,1
DA:60,1
DA:61,1
DA:62,1
DA:64,1
DA:66,0
DA:67,1
DA:68,1
DA:69,1
DA:70,1
DA:71,1
DA:72,1
DA:73,1
DA:74,1
DA:76,0
DA:77,0
DA:79,1
DA:83,27
DA:84,27
DA:85,20
DA:86,7
DA:87,7
DA:88,7
DA:89,8
DA:90,7
DA:91,7
DA:92,7
DA:96,7
DA:97,7
DA:98,7
DA:99,8
DA:101,8
DA:102,8
DA:103,8
DA:104,8
DA:105,8
DA:107,8
DA:108,7
DA:110,7
DA:111,8
DA:112,8
DA:113,8
DA:114,8
DA:115,8
DA:116,8
DA:117,8
DA:118,8
DA:119,8
DA:121,8
DA:122,27
DA:124,192
DA:125,192
DA:126,192
DA:127,192
DA:128,192
DA:129,192
DA:130,0
DA:131,192
DA:132,192
DA:138,693
DA:139,1104
DA:140,693
DA:146,1
DA:147,1
DA:148,1
DA:149,1
DA:150,1
DA:151,1
DA:152,1
BRF:0
BRH:0
LF:119
LH:113
end_of_record
SF:/Users/esmevane/Code/projects/oneiros/crates/oneiros-engine/src/domains/agent/service.rs
FN:63,_RNvMNtNtNtCsk2dDpYChjKI_14oneiros_engine7domains5agent7serviceNtB2_12AgentService3get
FN:98,_RNvMNtNtNtCsk2dDpYChjKI_14oneiros_engine7domains5agent7serviceNtB2_12AgentService4list
FN:6,_RNvMNtNtNtCsk2dDpYChjKI_14oneiros_engine7domains5agent7serviceNtB2_12AgentService6create
FN:193,_RNvMNtNtNtCsk2dDpYChjKI_14oneiros_engine7domains5agent7serviceNtB2_12AgentService6remove
FN:134,_RNvMNtNtNtCsk2dDpYChjKI_14oneiros_engine7domains5agent7serviceNtB2_12AgentService6update
FN:175,_RNCNCNCNCNCNvMNtNtNtCsk2dDpYChjKI_14oneiros_engine7domains5agent7serviceNtBc_12AgentService6update0s_0000Bi_
FN:174,_RNCNCNCNCNvMNtNtNtCsk2dDpYChjKI_14oneiros_engine7domains5agent7serviceNtBa_12AgentService6update0s_000Bg_
FN:222,_RNCNCNCNvMNtNtNtCsk2dDpYChjKI_14oneiros_engine7domains5agent7serviceNtB8_12AgentService6remove000Be_
FN:173,_RNCNCNCNvMNtNtNtCsk2dDpYChjKI_14oneiros_engine7domains5agent7serviceNtB8_12AgentService6update0s_00Be_
FN:73,_RNCNCNvMNtNtNtCsk2dDpYChjKI_14oneiros_engine7domains5agent7serviceNtB6_12AgentService3get00Bc_
FN:222,_RNCNCNvMNtNtNtCsk2dDpYChjKI_14oneiros_engine7domains5agent7serviceNtB6_12AgentService6remove00Bc_
FN:143,_RNCNCNvMNtNtNtCsk2dDpYChjKI_14oneiros_engine7domains5agent7serviceNtB6_12AgentService6update00Bc_
FN:183,_RNCNCNvMNtNtNtCsk2dDpYChjKI_14oneiros_engine7domains5agent7serviceNtB6_12AgentService6update0s0_0Bc_
FN:181,_RNCNCNvMNtNtNtCsk2dDpYChjKI_14oneiros_engine7domains5agent7serviceNtB6_12AgentService6update0s_0Bc_
FN:66,_RNCNvMNtNtNtCsk2dDpYChjKI_14oneiros_engine7domains5agent7serviceNtB4_12AgentService3get0Ba_
FN:101,_RNCNvMNtNtNtCsk2dDpYChjKI_14oneiros_engine7domains5agent7serviceNtB4_12AgentService4list0Ba_
FN:10,_RNCNvMNtNtNtCsk2dDpYChjKI_14oneiros_engine7domains5agent7serviceNtB4_12AgentService6create0Ba_
FN:197,_RNCNvMNtNtNtCsk2dDpYChjKI_14oneiros_engine7domains5agent7serviceNtB4_12AgentService6remove0Ba_
FN:138,_RNCNvMNtNtNtCsk2dDpYChjKI_14oneiros_engine7domains5agent7serviceNtB4_12AgentService6update0Ba_
FNDA:22,_RNvMNtNtNtCsk2dDpYChjKI_14oneiros_engine7domains5agent7serviceNtB2_12AgentService3get
FNDA:6,_RNvMNtNtNtCsk2dDpYChjKI_14oneiros_engine7domains5agent7serviceNtB2_12AgentService4list
FNDA:189,_RNvMNtNtNtCsk2dDpYChjKI_14oneiros_engine7domains5agent7serviceNtB2_12AgentService6create
FNDA:5,_RNvMNtNtNtCsk2dDpYChjKI_14oneiros_engine7domains5agent7serviceNtB2_12AgentService6remove
FNDA:3,_RNvMNtNtNtCsk2dDpYChjKI_14oneiros_engine7domains5agent7serviceNtB2_12AgentService6update
FNDA:6,_RNCNCNCNCNCNvMNtNtNtCsk2dDpYChjKI_14oneiros_engine7domains5agent7serviceNtBc_12AgentService6update0s_0000Bi_
FNDA:6,_RNCNCNCNCNvMNtNtNtCsk2dDpYChjKI_14oneiros_engine7domains5agent7serviceNtBa_12AgentService6update0s_000Bg_
FNDA:10,_RNCNCNCNvMNtNtNtCsk2dDpYChjKI_14oneiros_engine7domains5agent7serviceNtB8_12AgentService6remove000Be_
FNDA:6,_RNCNCNCNvMNtNtNtCsk2dDpYChjKI_14oneiros_engine7domains5agent7serviceNtB8_12AgentService6update0s_00Be_
FNDA:4,_RNCNCNvMNtNtNtCsk2dDpYChjKI_14oneiros_engine7domains5agent7serviceNtB6_12AgentService3get00Bc_
FNDA:10,_RNCNCNvMNtNtNtCsk2dDpYChjKI_14oneiros_engine7domains5agent7serviceNtB6_12AgentService6remove00Bc_
FNDA:0,_RNCNCNvMNtNtNtCsk2dDpYChjKI_14oneiros_engine7domains5agent7serviceNtB6_12AgentService6update00Bc_
FNDA:0,_RNCNCNvMNtNtNtCsk2dDpYChjKI_14oneiros_engine7domains5agent7serviceNtB6_12AgentService6update0s0_0Bc_
FNDA:6,_RNCNCNvMNtNtNtCsk2dDpYChjKI_14oneiros_engine7domains5agent7serviceNtB6_12AgentService6update0s_0Bc_
FNDA:22,_RNCNvMNtNtNtCsk2dDpYChjKI_14oneiros_engine7domains5agent7serviceNtB4_12AgentService3get0Ba_
FNDA:6,_RNCNvMNtNtNtCsk2dDpYChjKI_14oneiros_engine7domains5agent7serviceNtB4_12AgentService4list0Ba_
FNDA:189,_RNCNvMNtNtNtCsk2dDpYChjKI_14oneiros_engine7domains5agent7serviceNtB4_12AgentService6create0Ba_
FNDA:5,_RNCNvMNtNtNtCsk2dDpYChjKI_14oneiros_engine7domains5agent7serviceNtB4_12AgentService6remove0Ba_
FNDA:3,_RNCNvMNtNtNtCsk2dDpYChjKI_14oneiros_engine7domains5agent7serviceNtB4_12AgentService6update0Ba_
FNF:19
FNH:17
DA:6,189
DA:7,189
DA:8,189
DA:9,189
DA:10,189
DA:11,189
DA:14,189
DA:15,189
DA:16,189
DA:17,189
DA:19,3
DA:20,186
DA:23,186
DA:26,186
DA:27,3
DA:28,183
DA:30,183
DA:31,183
DA:32,183
DA:33,183
DA:34,183
DA:35,183
DA:37,183
DA:38,183
DA:39,183
DA:40,183
DA:41,183
DA:43,183
DA:44,183
DA:45,183
DA:46,183
DA:47,183
DA:50,183
DA:51,183
DA:52,183
DA:53,183
DA:55,183
DA:56,183
DA:57,183
DA:58,183
DA:59,183
DA:60,183
DA:61,189
DA:63,22
DA:64,22
DA:65,22
DA:66,22
DA:67,22
DA:68,22
DA:69,22
DA:70,20
DA:71,20
DA:72,20
DA:73,20
DA:74,2
DA:75,2
DA:76,2
DA:77,1
DA:78,1
DA:79,1
DA:80,1
DA:81,1
DA:82,1
DA:83,1
DA:84,1
DA:85,1
DA:90,17
DA:91,17
DA:92,17
DA:93,17
DA:94,17
DA:95,17
DA:96,22
DA:98,6
DA:99,6
DA:100,6
DA:101,6
DA:102,6
DA:103,6
DA:104,6
DA:105,6
DA:106,6
DA:107,6
DA:109,6
DA:111,6
DA:112,4
DA:113,2
DA:115,2
DA:117,3
DA:118,3
DA:119,3
DA:120,3
DA:123,2
DA:125,2
DA:126,2
DA:127,2
DA:128,2
DA:129,2
DA:130,2
DA:131,2
DA:132,6
DA:134,3
DA:135,3
DA:136,3
DA:137,3
DA:138,3
DA:139,3
DA:140,3
DA:141,3
DA:142,3
DA:143,3
DA:145,3
DA:146,3
DA:147,3
DA:148,3
DA:149,3
DA:150,3
DA:151,3
DA:153,3
DA:154,3
DA:155,3
DA:156,3
DA:157,3
DA:159,3
DA:160,3
DA:161,3
DA:162,3
DA:163,3
DA:170,3
DA:171,3
DA:172,3
DA:173,6
DA:174,6
DA:175,6
DA:176,6
DA:177,6
DA:178,3
DA:179,6
DA:180,6
DA:181,12
DA:182,3
DA:183,3
DA:185,3
DA:186,3
DA:187,3
DA:188,3
DA:189,3
DA:190,3
DA:191,3
DA:193,5
DA:194,5
DA:195,5
DA:196,5
DA:197,5
DA:198,5
DA:199,5
DA:200,0
DA:201,5
DA:203,5
DA:204,5
DA:205,5
DA:206,5
DA:207,5
DA:208,5
DA:209,5
DA:210,5
DA:212,5
DA:213,5
DA:214,5
DA:215,5
DA:216,5
DA:219,5
DA:220,5
DA:221,5
DA:222,20
DA:223,5
DA:225,5
DA:226,5
DA:227,5
DA:228,5
DA:229,5
DA:230,5
DA:231,5
BRF:0
BRH:0
LF:197
LH:194
end_of_record
SF:/Users/esmevane/Code/projects/oneiros/crates/oneiros-engine/src/domains/agent/store.rs
FN:69,_RNCNvMNtNtNtCsk2dDpYChjKI_14oneiros_engine7domains5agent5storeNtB4_10AgentStore3get0Ba_
FN:100,_RNCNvMNtNtNtCsk2dDpYChjKI_14oneiros_engine7domains5agent5storeNtB4_10AgentStore4list0Ba_
FN:127,_RNvMNtNtNtCsk2dDpYChjKI_14oneiros_engine7domains5agent5storeNtB2_10AgentStore11write_agent
FN:64,_RNvMNtNtNtCsk2dDpYChjKI_14oneiros_engine7domains5agent5storeNtB2_10AgentStore3get
FN:11,_RNvMNtNtNtCsk2dDpYChjKI_14oneiros_engine7domains5agent5storeNtB2_10AgentStore3new
FN:94,_RNvMNtNtNtCsk2dDpYChjKI_14oneiros_engine7domains5agent5storeNtB2_10AgentStore4list
FN:46,_RNvMNtNtNtCsk2dDpYChjKI_14oneiros_engine7domains5agent5storeNtB2_10AgentStore5reset
FN:15,_RNvMNtNtNtCsk2dDpYChjKI_14oneiros_engine7domains5agent5storeNtB2_10AgentStore6handle
FN:51,_RNvMNtNtNtCsk2dDpYChjKI_14oneiros_engine7domains5agent5storeNtB2_10AgentStore7migrate
FNDA:133,_RNCNvMNtNtNtCsk2dDpYChjKI_14oneiros_engine7domains5agent5storeNtB4_10AgentStore3get0Ba_
FNDA:6,_RNCNvMNtNtNtCsk2dDpYChjKI_14oneiros_engine7domains5agent5storeNtB4_10AgentStore4list0Ba_
FNDA:223,_RNvMNtNtNtCsk2dDpYChjKI_14oneiros_engine7domains5agent5storeNtB2_10AgentStore11write_agent
FNDA:134,_RNvMNtNtNtCsk2dDpYChjKI_14oneiros_engine7domains5agent5storeNtB2_10AgentStore3get
FNDA:8002,_RNvMNtNtNtCsk2dDpYChjKI_14oneiros_engine7domains5agent5storeNtB2_10AgentStore3new
FNDA:6,_RNvMNtNtNtCsk2dDpYChjKI_14oneiros_engine7domains5agent5storeNtB2_10AgentStore4list
FNDA:288,_RNvMNtNtNtCsk2dDpYChjKI_14oneiros_engine7domains5agent5storeNtB2_10AgentStore5reset
FNDA:7005,_RNvMNtNtNtCsk2dDpYChjKI_14oneiros_engine7domains5agent5storeNtB2_10AgentStore6handle
FNDA:574,_RNvMNtNtNtCsk2dDpYChjKI_14oneiros_engine7domains5agent5storeNtB2_10AgentStore7migrate
FNF:9
FNH:9
DA:11,8002
DA:12,8002
DA:13,8002
DA:15,7005
DA:16,7005
DA:17,228
DA:18,220
DA:19,220
DA:20,220
DA:21,220
DA:23,3
DA:24,3
DA:25,3
DA:26,3
DA:27,3
DA:28,3
DA:30,5
DA:31,5
DA:32,5
DA:33,5
DA:34,0
DA:35,5
DA:36,5
DA:37,5
DA:38,0
DA:41,6777
DA:43,7005
DA:44,7005
DA:46,288
DA:47,288
DA:48,288
DA:49,288
DA:51,574
DA:52,574
DA:53,574
DA:54,574
DA:55,574
DA:56,574
DA:57,574
DA:58,574
DA:59,574
DA:60,0
DA:61,574
DA:62,574
DA:64,134
DA:65,134
DA:66,134
DA:67,134
DA:69,134
DA:71,133
DA:72,133
DA:73,133
DA:74,133
DA:75,133
DA:77,133
DA:79,1
DA:80,133
DA:81,133
DA:82,133
DA:83,133
DA:84,133
DA:85,133
DA:86,133
DA:87,133
DA:89,1
DA:90,0
DA:92,134
DA:94,6
DA:95,6
DA:96,6
DA:97,6
DA:99,6
DA:100,6
DA:102,6
DA:103,6
DA:104,6
DA:105,6
DA:106,6
DA:108,6
DA:109,6
DA:111,6
DA:112,6
DA:113,6
DA:114,6
DA:115,6
DA:116,6
DA:117,6
DA:118,6
DA:119,6
DA:120,6
DA:124,6
DA:125,6
DA:127,223
DA:128,223
DA:129,223
DA:130,223
DA:131,223
DA:132,223
DA:133,223
DA:134,223
DA:135,223
DA:136,223
DA:138,0
DA:139,223
DA:140,223
BRF:0
BRH:0
LF:108
LH:102
end_of_record
SF:/Users/esmevane/Code/projects/oneiros/crates/oneiros-engine/src/domains/agent/view.rs
FN:17,_RNvMNtNtNtCsk2dDpYChjKI_14oneiros_engine7domains5agent4viewNtB2_9AgentView3mcp
FN:13,_RNvMNtNtNtCsk2dDpYChjKI_14oneiros_engine7domains5agent4viewNtB2_9AgentView3new
FN:83,_RNvMNtNtNtCsk2dDpYChjKI_14oneiros_engine7domains5agent4viewNtB2_9AgentView6render
FNDA:1,_RNvMNtNtNtCsk2dDpYChjKI_14oneiros_engine7domains5agent4viewNtB2_9AgentView3mcp
FNDA:137,_RNvMNtNtNtCsk2dDpYChjKI_14oneiros_engine7domains5agent4viewNtB2_9AgentView3new
FNDA:136,_RNvMNtNtNtCsk2dDpYChjKI_14oneiros_engine7domains5agent4viewNtB2_9AgentView6render
FNF:3
FNH:3
DA:13,137
DA:14,137
DA:15,137
DA:17,1
DA:18,1
DA:19,1
DA:20,0
DA:21,0
DA:22,0
DA:23,0
DA:24,0
DA:25,0
DA:26,0
DA:30,0
DA:31,0
DA:32,0
DA:36,0
DA:37,0
DA:40,0
DA:41,0
DA:45,0
DA:46,0
DA:48,0
DA:51,0
DA:52,0
DA:53,0
DA:54,0
DA:55,0
DA:56,0
DA:57,0
DA:58,0
DA:59,0
DA:64,1
DA:65,1
DA:67,0
DA:68,0
DA:69,0
DA:70,0
DA:74,0
DA:75,0
DA:76,0
DA:81,1
DA:83,136
DA:84,136
DA:85,119
DA:86,119
DA:87,119
DA:88,119
DA:89,119
DA:90,119
DA:91,119
DA:93,119
DA:94,119
DA:95,119
DA:96,119
DA:98,119
DA:100,8
DA:101,8
DA:102,8
DA:103,8
DA:104,8
DA:105,8
DA:106,8
DA:107,8
DA:108,8
DA:109,8
DA:112,2
DA:113,2
DA:114,2
DA:115,2
DA:116,2
DA:118,3
DA:119,3
DA:120,3
DA:121,3
DA:122,3
DA:123,3
DA:124,3
DA:125,2
DA:127,2
DA:129,2
DA:130,2
DA:131,2
DA:132,2
DA:135,2
DA:136,2
DA:137,2
DA:138,2
DA:140,3
DA:141,3
DA:142,3
DA:143,3
DA:144,3
DA:145,3
DA:146,3
DA:149,2
DA:150,2
DA:151,2
DA:152,2
DA:153,2
DA:154,2
DA:155,2
DA:159,136
BRF:0
BRH:0
LF:103
LH:70
end_of_record
SF:/Users/esmevane/Code/projects/oneiros/crates/oneiros-engine/src/domains/bookmark/actors/chronicle.rs
FN:24,_RNvMNtNtNtNtCsk2dDpYChjKI_14oneiros_engine7domains8bookmark6actors9chronicleNtB2_24BookmarkChronicleMailbox4open
FN:29,_RNvMNtNtNtNtCsk2dDpYChjKI_14oneiros_engine7domains8bookmark6actors9chronicleNtB2_24BookmarkChronicleMailbox4tell
FN:112,_RNvMs0_NtNtNtNtCsk2dDpYChjKI_14oneiros_engine7domains8bookmark6actors9chronicleNtB5_22BookmarkChronicleActor10record_one
FN:125,_RNvMs0_NtNtNtNtCsk2dDpYChjKI_14oneiros_engine7domains8bookmark6actors9chronicleNtB5_22BookmarkChronicleActor13chronicle_for
FN:80,_RNvMs0_NtNtNtNtCsk2dDpYChjKI_14oneiros_engine7domains8bookmark6actors9chronicleNtB5_22BookmarkChronicleActor13handle_record
FN:62,_RNvMs0_NtNtNtNtCsk2dDpYChjKI_14oneiros_engine7domains8bookmark6actors9chronicleNtB5_22BookmarkChronicleActor3run
FN:52,_RNvMs0_NtNtNtNtCsk2dDpYChjKI_14oneiros_engine7domains8bookmark6actors9chronicleNtB5_22BookmarkChronicleActor5spawn
FN:92,_RNvMs0_NtNtNtNtCsk2dDpYChjKI_14oneiros_engine7domains8bookmark6actors9chronicleNtB5_22BookmarkChronicleActor6replay
FN:41,_RNvMs_NtNtNtNtCsk2dDpYChjKI_14oneiros_engine7domains8bookmark6actors9chronicleNtB4_22BookmarkChronicleInbox4recv
FN:116,_RNCNvMs0_NtNtNtNtCsk2dDpYChjKI_14oneiros_engine7domains8bookmark6actors9chronicleNtB7_22BookmarkChronicleActor10record_one0Bf_
FN:80,_RNCNvMs0_NtNtNtNtCsk2dDpYChjKI_14oneiros_engine7domains8bookmark6actors9chronicleNtB7_22BookmarkChronicleActor13handle_record0Bf_
FN:62,_RNCNvMs0_NtNtNtNtCsk2dDpYChjKI_14oneiros_engine7domains8bookmark6actors9chronicleNtB7_22BookmarkChronicleActor3run0Bf_
FN:92,_RNCNvMs0_NtNtNtNtCsk2dDpYChjKI_14oneiros_engine7domains8bookmark6actors9chronicleNtB7_22BookmarkChronicleActor6replay0Bf_
FN:41,_RNCNvMs_NtNtNtNtCsk2dDpYChjKI_14oneiros_engine7domains8bookmark6actors9chronicleNtB6_22BookmarkChronicleInbox4recv0Be_
FNDA:304,_RNvMNtNtNtNtCsk2dDpYChjKI_14oneiros_engine7domains8bookmark6actors9chronicleNtB2_24BookmarkChronicleMailbox4open
FNDA:5247,_RNvMNtNtNtNtCsk2dDpYChjKI_14oneiros_engine7domains8bookmark6actors9chronicleNtB2_24BookmarkChronicleMailbox4tell
FNDA:5247,_RNvMs0_NtNtNtNtCsk2dDpYChjKI_14oneiros_engine7domains8bookmark6actors9chronicleNtB5_22BookmarkChronicleActor10record_one
FNDA:5511,_RNvMs0_NtNtNtNtCsk2dDpYChjKI_14oneiros_engine7domains8bookmark6actors9chronicleNtB5_22BookmarkChronicleActor13chronicle_for
FNDA:5247,_RNvMs0_NtNtNtNtCsk2dDpYChjKI_14oneiros_engine7domains8bookmark6actors9chronicleNtB5_22BookmarkChronicleActor13handle_record
FNDA:304,_RNvMs0_NtNtNtNtCsk2dDpYChjKI_14oneiros_engine7domains8bookmark6actors9chronicleNtB5_22BookmarkChronicleActor3run
FNDA:304,_RNvMs0_NtNtNtNtCsk2dDpYChjKI_14oneiros_engine7domains8bookmark6actors9chronicleNtB5_22BookmarkChronicleActor5spawn
FNDA:264,_RNvMs0_NtNtNtNtCsk2dDpYChjKI_14oneiros_engine7domains8bookmark6actors9chronicleNtB5_22BookmarkChronicleActor6replay
FNDA:5551,_RNvMs_NtNtNtNtCsk2dDpYChjKI_14oneiros_engine7domains8bookmark6actors9chronicleNtB4_22BookmarkChronicleInbox4recv
FNDA:5247,_RNCNvMs0_NtNtNtNtCsk2dDpYChjKI_14oneiros_engine7domains8bookmark6actors9chronicleNtB7_22BookmarkChronicleActor10record_one0Bf_
FNDA:5247,_RNCNvMs0_NtNtNtNtCsk2dDpYChjKI_14oneiros_engine7domains8bookmark6actors9chronicleNtB7_22BookmarkChronicleActor13handle_record0Bf_
FNDA:304,_RNCNvMs0_NtNtNtNtCsk2dDpYChjKI_14oneiros_engine7domains8bookmark6actors9chronicleNtB7_22BookmarkChronicleActor3run0Bf_
FNDA:264,_RNCNvMs0_NtNtNtNtCsk2dDpYChjKI_14oneiros_engine7domains8bookmark6actors9chronicleNtB7_22BookmarkChronicleActor6replay0Bf_
FNDA:5551,_RNCNvMs_NtNtNtNtCsk2dDpYChjKI_14oneiros_engine7domains8bookmark6actors9chronicleNtB6_22BookmarkChronicleInbox4recv0Be_
FNF:14
FNH:14
DA:24,304
DA:25,304
DA:26,304
DA:27,304
DA:29,5247
DA:30,5247
DA:31,0
DA:32,5247
DA:33,5247
DA:41,5551
DA:42,5551
DA:43,5247
DA:52,304
DA:53,304
DA:54,304
DA:55,304
DA:56,304
DA:57,304
DA:58,304
DA:60,304
DA:62,304
DA:63,5551
DA:64,5247
DA:65,5247
DA:66,5247
DA:67,0
DA:68,5247
DA:70,0
DA:71,0
DA:72,0
DA:73,0
DA:75,0
DA:78,0
DA:80,5247
DA:81,5247
DA:82,5247
DA:83,5247
DA:84,5247
DA:85,5247
DA:86,264
DA:87,264
DA:88,4983
DA:89,5247
DA:90,5247
DA:92,264
DA:93,264
DA:94,264
DA:95,264
DA:98,264
DA:99,0
DA:100,264
DA:102,264
DA:103,264
DA:104,264
DA:105,264
DA:106,978
DA:107,978
DA:109,264
DA:110,264
DA:112,5247
DA:113,5247
DA:114,5247
DA:115,5247
DA:116,5247
DA:117,5247
DA:118,5247
DA:119,5247
DA:120,5247
DA:121,5247
DA:122,5247
DA:123,5247
DA:125,5511
DA:126,5511
DA:127,5511
DA:128,5511
DA:129,5511
DA:130,5511
DA:131,5511
BRF:0
BRH:0
LF:83
LH:74
end_of_record
SF:/Users/esmevane/Code/projects/oneiros/crates/oneiros-engine/src/domains/bookmark/actors/projections.rs
FN:81,_RNCNvMs0_NtNtNtNtCsk2dDpYChjKI_14oneiros_engine7domains8bookmark6actors11projectionsNtB7_24BookmarkProjectionsActor12handle_apply0Bf_
FN:63,_RNCNvMs0_NtNtNtNtCsk2dDpYChjKI_14oneiros_engine7domains8bookmark6actors11projectionsNtB7_24BookmarkProjectionsActor3run0Bf_
FN:96,_RNCNvMs0_NtNtNtNtCsk2dDpYChjKI_14oneiros_engine7domains8bookmark6actors11projectionsNtB7_24BookmarkProjectionsActor6replay0Bf_
FN:42,_RNCNvMs_NtNtNtNtCsk2dDpYChjKI_14oneiros_engine7domains8bookmark6actors11projectionsNtB6_24BookmarkProjectionsInbox4recv0Be_
FN:25,_RNvMNtNtNtNtCsk2dDpYChjKI_14oneiros_engine7domains8bookmark6actors11projectionsNtB2_26BookmarkProjectionsMailbox4open
FN:30,_RNvMNtNtNtNtCsk2dDpYChjKI_14oneiros_engine7domains8bookmark6actors11projectionsNtB2_26BookmarkProjectionsMailbox4tell
FN:81,_RNvMs0_NtNtNtNtCsk2dDpYChjKI_14oneiros_engine7domains8bookmark6actors11projectionsNtB5_24BookmarkProjectionsActor12handle_apply
FN:105,_RNvMs0_NtNtNtNtCsk2dDpYChjKI_14oneiros_engine7domains8bookmark6actors11projectionsNtB5_24BookmarkProjectionsActor15projections_for
FN:63,_RNvMs0_NtNtNtNtCsk2dDpYChjKI_14oneiros_engine7domains8bookmark6actors11projectionsNtB5_24BookmarkProjectionsActor3run
FN:53,_RNvMs0_NtNtNtNtCsk2dDpYChjKI_14oneiros_engine7domains8bookmark6actors11projectionsNtB5_24BookmarkProjectionsActor5spawn
FN:96,_RNvMs0_NtNtNtNtCsk2dDpYChjKI_14oneiros_engine7domains8bookmark6actors11projectionsNtB5_24BookmarkProjectionsActor6replay
FN:42,_RNvMs_NtNtNtNtCsk2dDpYChjKI_14oneiros_engine7domains8bookmark6actors11projectionsNtB4_24BookmarkProjectionsInbox4recv
FNDA:5247,_RNCNvMs0_NtNtNtNtCsk2dDpYChjKI_14oneiros_engine7domains8bookmark6actors11projectionsNtB7_24BookmarkProjectionsActor12handle_apply0Bf_
FNDA:304,_RNCNvMs0_NtNtNtNtCsk2dDpYChjKI_14oneiros_engine7domains8bookmark6actors11projectionsNtB7_24BookmarkProjectionsActor3run0Bf_
FNDA:264,_RNCNvMs0_NtNtNtNtCsk2dDpYChjKI_14oneiros_engine7domains8bookmark6actors11projectionsNtB7_24BookmarkProjectionsActor6replay0Bf_
FNDA:5551,_RNCNvMs_NtNtNtNtCsk2dDpYChjKI_14oneiros_engine7domains8bookmark6actors11projectionsNtB6_24BookmarkProjectionsInbox4recv0Be_
FNDA:304,_RNvMNtNtNtNtCsk2dDpYChjKI_14oneiros_engine7domains8bookmark6actors11projectionsNtB2_26BookmarkProjectionsMailbox4open
FNDA:5247,_RNvMNtNtNtNtCsk2dDpYChjKI_14oneiros_engine7domains8bookmark6actors11projectionsNtB2_26BookmarkProjectionsMailbox4tell
FNDA:5247,_RNvMs0_NtNtNtNtCsk2dDpYChjKI_14oneiros_engine7domains8bookmark6actors11projectionsNtB5_24BookmarkProjectionsActor12handle_apply
FNDA:5511,_RNvMs0_NtNtNtNtCsk2dDpYChjKI_14oneiros_engine7domains8bookmark6actors11projectionsNtB5_24BookmarkProjectionsActor15projections_for
FNDA:304,_RNvMs0_NtNtNtNtCsk2dDpYChjKI_14oneiros_engine7domains8bookmark6actors11projectionsNtB5_24BookmarkProjectionsActor3run
FNDA:304,_RNvMs0_NtNtNtNtCsk2dDpYChjKI_14oneiros_engine7domains8bookmark6actors11projectionsNtB5_24BookmarkProjectionsActor5spawn
FNDA:264,_RNvMs0_NtNtNtNtCsk2dDpYChjKI_14oneiros_engine7domains8bookmark6actors11projectionsNtB5_24BookmarkProjectionsActor6replay
FNDA:5551,_RNvMs_NtNtNtNtCsk2dDpYChjKI_14oneiros_engine7domains8bookmark6actors11projectionsNtB4_24BookmarkProjectionsInbox4recv
FNF:12
FNH:12
DA:25,304
DA:26,304
DA:27,304
DA:28,304
DA:30,5247
DA:31,5247
DA:32,0
DA:33,5247
DA:34,5247
DA:42,5551
DA:43,5551
DA:44,5247
DA:53,304
DA:54,304
DA:55,304
DA:56,304
DA:57,304
DA:58,304
DA:59,304
DA:61,304
DA:63,304
DA:64,5551
DA:65,5247
DA:66,5247
DA:67,5247
DA:68,0
DA:69,5247
DA:71,0
DA:72,0
DA:73,0
DA:74,0
DA:76,0
DA:79,0
DA:81,5247
DA:82,5247
DA:83,5247
DA:84,5247
DA:85,5247
DA:86,5247
DA:87,264
DA:88,264
DA:89,4983
DA:90,5247
DA:91,5247
DA:92,5247
DA:93,5247
DA:94,5247
DA:96,264
DA:97,264
DA:98,264
DA:99,264
DA:100,264
DA:101,264
DA:102,264
DA:103,264
DA:105,5511
DA:106,5511
DA:107,5511
DA:108,5511
DA:109,5511
DA:110,5511
DA:111,5511
BRF:0
BRH:0
LF:66
LH:58
end_of_record
SF:/Users/esmevane/Code/projects/oneiros/crates/oneiros-engine/src/domains/bookmark/docs.rs
FN:22,_RNvMNtNtNtCsk2dDpYChjKI_14oneiros_engine7domains8bookmark4docsNtB2_12BookmarkDocs13resource_docs
FN:15,_RNvMNtNtNtCsk2dDpYChjKI_14oneiros_engine7domains8bookmark4docsNtB2_12BookmarkDocs3tag
FNDA:2432,_RNvMNtNtNtCsk2dDpYChjKI_14oneiros_engine7domains8bookmark4docsNtB2_12BookmarkDocs13resource_docs
FNDA:2736,_RNvMNtNtNtCsk2dDpYChjKI_14oneiros_engine7domains8bookmark4docsNtB2_12BookmarkDocs3tag
FNF:2
FNH:2
DA:15,2736
DA:16,2736
DA:17,2736
DA:18,2736
DA:19,2736
DA:20,2736
DA:22,2432
DA:23,2432
DA:24,2432
DA:25,304
DA:26,304
DA:27,304
DA:28,304
DA:29,304
DA:30,304
DA:31,304
DA:32,304
DA:33,304
DA:34,304
DA:35,304
DA:36,304
DA:37,304
DA:38,304
DA:39,304
DA:40,304
DA:41,304
DA:42,304
DA:43,304
DA:44,304
DA:45,304
DA:46,304
DA:47,304
DA:48,304
DA:49,304
DA:50,304
DA:51,304
DA:52,304
DA:53,304
DA:54,304
DA:55,304
DA:56,304
DA:57,304
DA:58,304
DA:59,304
DA:60,304
DA:61,304
DA:62,304
DA:63,304
DA:64,304
DA:65,304
DA:66,304
DA:67,304
DA:68,304
DA:69,304
DA:70,304
DA:71,304
DA:72,304
DA:74,2432
BRF:0
BRH:0
LF:58
LH:58
end_of_record
SF:/Users/esmevane/Code/projects/oneiros/crates/oneiros-engine/src/domains/bookmark/features/cli.rs
FN:18,_RNvMNtNtNtNtCsk2dDpYChjKI_14oneiros_engine7domains8bookmark8features3cliNtB2_16BookmarkCommands7execute
FN:21,_RNCNvMNtNtNtNtCsk2dDpYChjKI_14oneiros_engine7domains8bookmark8features3cliNtB4_16BookmarkCommands7execute0Bc_
FNDA:44,_RNvMNtNtNtNtCsk2dDpYChjKI_14oneiros_engine7domains8bookmark8features3cliNtB2_16BookmarkCommands7execute
FNDA:44,_RNCNvMNtNtNtNtCsk2dDpYChjKI_14oneiros_engine7domains8bookmark8features3cliNtB4_16BookmarkCommands7execute0Bc_
FNF:2
FNH:2
DA:18,44
DA:19,44
DA:20,44
DA:21,44
DA:22,44
DA:24,44
DA:25,1
DA:26,8
DA:27,4
DA:28,1
DA:29,9
DA:30,9
DA:31,11
DA:32,1
DA:35,43
DA:36,43
DA:37,44
BRF:0
BRH:0
LF:18
LH:18
end_of_record
SF:/Users/esmevane/Code/projects/oneiros/crates/oneiros-engine/src/domains/bookmark/features/http.rs
FN:19,_RNCNvMNtNtNtNtCsk2dDpYChjKI_14oneiros_engine7domains8bookmark8features4httpNtB4_14BookmarkRouter6routes0Bc_
FN:30,_RNCNvMNtNtNtNtCsk2dDpYChjKI_14oneiros_engine7domains8bookmark8features4httpNtB4_14BookmarkRouter6routess0_0Bc_
FN:36,_RNCNvMNtNtNtNtCsk2dDpYChjKI_14oneiros_engine7domains8bookmark8features4httpNtB4_14BookmarkRouter6routess1_0Bc_
FN:42,_RNCNvMNtNtNtNtCsk2dDpYChjKI_14oneiros_engine7domains8bookmark8features4httpNtB4_14BookmarkRouter6routess2_0Bc_
FN:48,_RNCNvMNtNtNtNtCsk2dDpYChjKI_14oneiros_engine7domains8bookmark8features4httpNtB4_14BookmarkRouter6routess3_0Bc_
FN:54,_RNCNvMNtNtNtNtCsk2dDpYChjKI_14oneiros_engine7domains8bookmark8features4httpNtB4_14BookmarkRouter6routess4_0Bc_
FN:60,_RNCNvMNtNtNtNtCsk2dDpYChjKI_14oneiros_engine7domains8bookmark8features4httpNtB4_14BookmarkRouter6routess5_0Bc_
FN:22,_RNCNvMNtNtNtNtCsk2dDpYChjKI_14oneiros_engine7domains8bookmark8features4httpNtB4_14BookmarkRouter6routess_0Bc_
FN:101,_RNCNvNtNtNtNtCsk2dDpYChjKI_14oneiros_engine7domains8bookmark8features4http4list0Bb_
FN:91,_RNCNvNtNtNtNtCsk2dDpYChjKI_14oneiros_engine7domains8bookmark8features4http5merge0Bb_
FN:111,_RNCNvNtNtNtNtCsk2dDpYChjKI_14oneiros_engine7domains8bookmark8features4http5share0Bb_
FN:72,_RNCNvNtNtNtNtCsk2dDpYChjKI_14oneiros_engine7domains8bookmark8features4http6create0Bb_
FN:121,_RNCNvNtNtNtNtCsk2dDpYChjKI_14oneiros_engine7domains8bookmark8features4http6follow0Bb_
FN:81,_RNCNvNtNtNtNtCsk2dDpYChjKI_14oneiros_engine7domains8bookmark8features4http6switch0Bb_
FN:141,_RNCNvNtNtNtNtCsk2dDpYChjKI_14oneiros_engine7domains8bookmark8features4http7collect0Bb_
FN:131,_RNCNvNtNtNtNtCsk2dDpYChjKI_14oneiros_engine7domains8bookmark8features4http8unfollow0Bb_
FN:13,_RNvMNtNtNtNtCsk2dDpYChjKI_14oneiros_engine7domains8bookmark8features4httpNtB2_14BookmarkRouter6routes
FN:97,_RNvNtNtNtNtCsk2dDpYChjKI_14oneiros_engine7domains8bookmark8features4http4list
FN:87,_RNvNtNtNtNtCsk2dDpYChjKI_14oneiros_engine7domains8bookmark8features4http5merge
FN:107,_RNvNtNtNtNtCsk2dDpYChjKI_14oneiros_engine7domains8bookmark8features4http5share
FN:68,_RNvNtNtNtNtCsk2dDpYChjKI_14oneiros_engine7domains8bookmark8features4http6create
FN:117,_RNvNtNtNtNtCsk2dDpYChjKI_14oneiros_engine7domains8bookmark8features4http6follow
FN:77,_RNvNtNtNtNtCsk2dDpYChjKI_14oneiros_engine7domains8bookmark8features4http6switch
FN:137,_RNvNtNtNtNtCsk2dDpYChjKI_14oneiros_engine7domains8bookmark8features4http7collect
FN:127,_RNvNtNtNtNtCsk2dDpYChjKI_14oneiros_engine7domains8bookmark8features4http8unfollow
FNDA:304,_RNCNvMNtNtNtNtCsk2dDpYChjKI_14oneiros_engine7domains8bookmark8features4httpNtB4_14BookmarkRouter6routes0Bc_
FNDA:304,_RNCNvMNtNtNtNtCsk2dDpYChjKI_14oneiros_engine7domains8bookmark8features4httpNtB4_14BookmarkRouter6routess0_0Bc_
FNDA:304,_RNCNvMNtNtNtNtCsk2dDpYChjKI_14oneiros_engine7domains8bookmark8features4httpNtB4_14BookmarkRouter6routess1_0Bc_
FNDA:304,_RNCNvMNtNtNtNtCsk2dDpYChjKI_14oneiros_engine7domains8bookmark8features4httpNtB4_14BookmarkRouter6routess2_0Bc_
FNDA:304,_RNCNvMNtNtNtNtCsk2dDpYChjKI_14oneiros_engine7domains8bookmark8features4httpNtB4_14BookmarkRouter6routess3_0Bc_
FNDA:304,_RNCNvMNtNtNtNtCsk2dDpYChjKI_14oneiros_engine7domains8bookmark8features4httpNtB4_14BookmarkRouter6routess4_0Bc_
FNDA:304,_RNCNvMNtNtNtNtCsk2dDpYChjKI_14oneiros_engine7domains8bookmark8features4httpNtB4_14BookmarkRouter6routess5_0Bc_
FNDA:304,_RNCNvMNtNtNtNtCsk2dDpYChjKI_14oneiros_engine7domains8bookmark8features4httpNtB4_14BookmarkRouter6routess_0Bc_
FNDA:3,_RNCNvNtNtNtNtCsk2dDpYChjKI_14oneiros_engine7domains8bookmark8features4http4list0Bb_
FNDA:4,_RNCNvNtNtNtNtCsk2dDpYChjKI_14oneiros_engine7domains8bookmark8features4http5merge0Bb_
FNDA:9,_RNCNvNtNtNtNtCsk2dDpYChjKI_14oneiros_engine7domains8bookmark8features4http5share0Bb_
FNDA:1,_RNCNvNtNtNtNtCsk2dDpYChjKI_14oneiros_engine7domains8bookmark8features4http6create0Bb_
FNDA:9,_RNCNvNtNtNtNtCsk2dDpYChjKI_14oneiros_engine7domains8bookmark8features4http6follow0Bb_
FNDA:8,_RNCNvNtNtNtNtCsk2dDpYChjKI_14oneiros_engine7domains8bookmark8features4http6switch0Bb_
FNDA:11,_RNCNvNtNtNtNtCsk2dDpYChjKI_14oneiros_engine7domains8bookmark8features4http7collect0Bb_
FNDA:1,_RNCNvNtNtNtNtCsk2dDpYChjKI_14oneiros_engine7domains8bookmark8features4http8unfollow0Bb_
FNDA:304,_RNvMNtNtNtNtCsk2dDpYChjKI_14oneiros_engine7domains8bookmark8features4httpNtB2_14BookmarkRouter6routes
FNDA:3,_RNvNtNtNtNtCsk2dDpYChjKI_14oneiros_engine7domains8bookmark8features4http4list
FNDA:4,_RNvNtNtNtNtCsk2dDpYChjKI_14oneiros_engine7domains8bookmark8features4http5merge
FNDA:9,_RNvNtNtNtNtCsk2dDpYChjKI_14oneiros_engine7domains8bookmark8features4http5share
FNDA:1,_RNvNtNtNtNtCsk2dDpYChjKI_14oneiros_engine7domains8bookmark8features4http6create
FNDA:9,_RNvNtNtNtNtCsk2dDpYChjKI_14oneiros_engine7domains8bookmark8features4http6follow
FNDA:8,_RNvNtNtNtNtCsk2dDpYChjKI_14oneiros_engine7domains8bookmark8features4http6switch
FNDA:11,_RNvNtNtNtNtCsk2dDpYChjKI_14oneiros_engine7domains8bookmark8features4http7collect
FNDA:1,_RNvNtNtNtNtCsk2dDpYChjKI_14oneiros_engine7domains8bookmark8features4http8unfollow
FNF:25
FNH:25
DA:13,304
DA:14,304
DA:15,304
DA:16,304
DA:17,304
DA:18,304
DA:19,304
DA:20,304
DA:21,304
DA:22,304
DA:23,304
DA:24,304
DA:25,304
DA:26,304
DA:28,304
DA:29,304
DA:30,304
DA:31,304
DA:32,304
DA:34,304
DA:35,304
DA:36,304
DA:37,304
DA:38,304
DA:40,304
DA:41,304
DA:42,304
DA:43,304
DA:44,304
DA:46,304
DA:47,304
DA:48,304
DA:49,304
DA:50,304
DA:52,304
DA:53,304
DA:54,304
DA:55,304
DA:56,304
DA:58,304
DA:59,304
DA:60,304
DA:61,304
DA:62,304
DA:65,304
DA:68,1
DA:69,1
DA:70,1
DA:71,1
DA:72,1
DA:73,1
DA:74,1
DA:75,1
DA:77,8
DA:78,8
DA:79,8
DA:80,8
DA:81,8
DA:83,8
DA:85,8
DA:87,4
DA:88,4
DA:89,4
DA:90,4
DA:91,4
DA:93,4
DA:95,4
DA:97,3
DA:98,3
DA:99,3
DA:100,3
DA:101,3
DA:103,3
DA:105,3
DA:107,9
DA:108,9
DA:109,9
DA:110,9
DA:111,9
DA:113,9
DA:115,9
DA:117,9
DA:118,9
DA:119,9
DA:120,9
DA:121,9
DA:123,9
DA:125,9
DA:127,1
DA:128,1
DA:129,1
DA:130,1
DA:131,1
DA:133,1
DA:135,1
DA:137,11
DA:138,11
DA:139,11
DA:140,11
DA:141,11
DA:143,11
DA:145,11
BRF:0
BRH:0
LF:118
LH:118
end_of_record
SF:/Users/esmevane/Code/projects/oneiros/crates/oneiros-engine/src/domains/bookmark/features/projections.rs
FN:13,_RNCNvNtNtNtNtCsk2dDpYChjKI_14oneiros_engine7domains8bookmark8features11projections11PROJECTIONS0Bb_
FN:15,_RNCNvNtNtNtNtCsk2dDpYChjKI_14oneiros_engine7domains8bookmark8features11projections11PROJECTIONSs0_0Bb_
FN:14,_RNCNvNtNtNtNtCsk2dDpYChjKI_14oneiros_engine7domains8bookmark8features11projections11PROJECTIONSs_0Bb_
FN:6,_RNvMNtNtNtNtCsk2dDpYChjKI_14oneiros_engine7domains8bookmark8features11projectionsNtB2_19BookmarkProjections3all
FNDA:1848,_RNCNvNtNtNtNtCsk2dDpYChjKI_14oneiros_engine7domains8bookmark8features11projections11PROJECTIONS0Bb_
FNDA:0,_RNCNvNtNtNtNtCsk2dDpYChjKI_14oneiros_engine7domains8bookmark8features11projections11PROJECTIONSs0_0Bb_
FNDA:1545,_RNCNvNtNtNtNtCsk2dDpYChjKI_14oneiros_engine7domains8bookmark8features11projections11PROJECTIONSs_0Bb_
FNDA:1848,_RNvMNtNtNtNtCsk2dDpYChjKI_14oneiros_engine7domains8bookmark8features11projectionsNtB2_19BookmarkProjections3all
FNF:4
FNH:3
DA:6,1848
DA:7,1848
DA:8,1848
DA:13,1848
DA:14,1545
DA:15,0
BRF:0
BRH:0
LF:6
LH:5
end_of_record
SF:/Users/esmevane/Code/projects/oneiros/crates/oneiros-engine/src/domains/bookmark/features/skills.rs
FN:6,_RNvMNtNtNtNtCsk2dDpYChjKI_14oneiros_engine7domains8bookmark8features6skillsNtB2_14BookmarkSkills3all
FNDA:12,_RNvMNtNtNtNtCsk2dDpYChjKI_14oneiros_engine7domains8bookmark8features6skillsNtB2_14BookmarkSkills3all
FNF:1
FNH:1
DA:6,12
DA:7,12
DA:8,12
DA:9,12
DA:10,12
DA:11,12
DA:12,12
DA:13,12
DA:14,12
DA:15,12
DA:17,12
BRF:0
BRH:0
LF:11
LH:11
end_of_record
SF:/Users/esmevane/Code/projects/oneiros/crates/oneiros-engine/src/domains/bookmark/model.rs
FN:27,_RNvMNtNtNtCsk2dDpYChjKI_14oneiros_engine7domains8bookmark5modelNtB2_12BookmarkName4main
FNDA:1439,_RNvMNtNtNtCsk2dDpYChjKI_14oneiros_engine7domains8bookmark5modelNtB2_12BookmarkName4main
FNF:1
FNH:1
DA:27,1439
DA:28,1439
DA:29,1439
BRF:0
BRH:0
LF:3
LH:3
end_of_record
SF:/Users/esmevane/Code/projects/oneiros/crates/oneiros-engine/src/domains/bookmark/protocol/errors.rs
FN:66,_RNvXNtNtNtNtCsk2dDpYChjKI_14oneiros_engine7domains8bookmark8protocol6errorsNtB2_13BookmarkErrorNtNtNtCs1iC2TOwIRjP_9axum_core8response13into_response12IntoResponse13into_response
FNDA:1,_RNvXNtNtNtNtCsk2dDpYChjKI_14oneiros_engine7domains8bookmark8protocol6errorsNtB2_13BookmarkErrorNtNtNtCs1iC2TOwIRjP_9axum_core8response13into_response12IntoResponse13into_response
FNF:1
FNH:1
DA:66,1
DA:67,1
DA:70,1
DA:71,0
DA:82,0
DA:84,0
DA:87,1
DA:88,1
BRF:0
BRH:0
LF:8
LH:5
end_of_record
SF:/Users/esmevane/Code/projects/oneiros/crates/oneiros-engine/src/domains/bookmark/protocol/events.rs
FN:41,_RNvMNtNtNtNtCsk2dDpYChjKI_14oneiros_engine7domains8bookmark8protocol6eventsNtB2_14BookmarkEvents14maybe_bookmark
FN:143,_RNvNtNtNtNtNtCsk2dDpYChjKI_14oneiros_engine7domains8bookmark8protocol6events5tests15sample_bookmark
FN:151,_RNvNtNtNtNtNtCsk2dDpYChjKI_14oneiros_engine7domains8bookmark8protocol6events5testss_27event_types_are_kebab_cased
FN:190,_RNvNtNtNtNtNtCsk2dDpYChjKI_14oneiros_engine7domains8bookmark8protocol6events5testss_35bookmark_forked_wire_format_is_flat
FN:171,_RNvNtNtNtNtNtCsk2dDpYChjKI_14oneiros_engine7domains8bookmark8protocol6events5testss_36bookmark_created_wire_format_is_flat
FN:208,_RNvNtNtNtNtNtCsk2dDpYChjKI_14oneiros_engine7domains8bookmark8protocol6events5testss_55legacy_bookmark_created_with_brain_field_decodes_via_v1
FN:229,_RNvNtNtNtNtNtCsk2dDpYChjKI_14oneiros_engine7domains8bookmark8protocol6events5testss_56legacy_bookmark_switched_with_brain_field_decodes_via_v1
FNDA:341,_RNvMNtNtNtNtCsk2dDpYChjKI_14oneiros_engine7domains8bookmark8protocol6eventsNtB2_14BookmarkEvents14maybe_bookmark
FNDA:2,_RNvNtNtNtNtNtCsk2dDpYChjKI_14oneiros_engine7domains8bookmark8protocol6events5tests15sample_bookmark
FNDA:1,_RNvNtNtNtNtNtCsk2dDpYChjKI_14oneiros_engine7domains8bookmark8protocol6events5testss_27event_types_are_kebab_cased
FNDA:1,_RNvNtNtNtNtNtCsk2dDpYChjKI_14oneiros_engine7domains8bookmark8protocol6events5testss_35bookmark_forked_wire_format_is_flat
FNDA:1,_RNvNtNtNtNtNtCsk2dDpYChjKI_14oneiros_engine7domains8bookmark8protocol6events5testss_36bookmark_created_wire_format_is_flat
FNDA:1,_RNvNtNtNtNtNtCsk2dDpYChjKI_14oneiros_engine7domains8bookmark8protocol6events5testss_55legacy_bookmark_created_with_brain_field_decodes_via_v1
FNDA:1,_RNvNtNtNtNtNtCsk2dDpYChjKI_14oneiros_engine7domains8bookmark8protocol6events5testss_56legacy_bookmark_switched_with_brain_field_decodes_via_v1
FNF:7
FNH:7
DA:41,341
DA:42,341
DA:43,299
DA:44,299
DA:46,1
DA:47,1
DA:54,41
DA:56,341
DA:143,2
DA:144,2
DA:145,2
DA:146,2
DA:147,2
DA:148,2
DA:151,1
DA:152,1
DA:153,1
DA:154,1
DA:155,1
DA:156,1
DA:157,1
DA:158,1
DA:159,1
DA:160,1
DA:161,1
DA:162,1
DA:163,1
DA:164,1
DA:165,8
DA:166,8
DA:168,1
DA:171,1
DA:172,1
DA:173,1
DA:174,1
DA:175,1
DA:176,1
DA:178,1
DA:179,1
DA:180,1
DA:183,1
DA:184,1
DA:185,1
DA:186,1
DA:187,1
DA:190,1
DA:191,1
DA:192,1
DA:193,1
DA:194,1
DA:195,1
DA:196,1
DA:198,1
DA:199,1
DA:200,1
DA:203,1
DA:204,1
DA:205,1
DA:208,1
DA:209,1
DA:210,1
DA:211,1
DA:212,1
DA:213,1
DA:214,1
DA:215,1
DA:216,1
DA:219,1
DA:220,1
DA:221,1
DA:222,0
DA:224,1
DA:225,1
DA:226,1
DA:229,1
DA:230,1
DA:231,1
DA:232,1
DA:233,1
DA:234,1
DA:237,1
DA:238,1
DA:239,1
DA:240,0
DA:242,1
DA:243,1
DA:244,1
BRF:0
BRH:0
LF:87
LH:85
end_of_record
SF:/Users/esmevane/Code/projects/oneiros/crates/oneiros-engine/src/domains/bookmark/protocol/requests.rs
FN:20,_RNCNvXNtNtNtNtCsk2dDpYChjKI_14oneiros_engine7domains8bookmark8protocol8requestsNtB4_14CreateBookmarkNtNtBc_6client13ClientRequest15execute_request0Bc_
FN:56,_RNCNvXs0_NtNtNtNtCsk2dDpYChjKI_14oneiros_engine7domains8bookmark8protocol8requestsNtB7_13MergeBookmarkNtNtBf_6client13ClientRequest15execute_request0Bf_
FN:77,_RNCNvXs1_NtNtNtNtCsk2dDpYChjKI_14oneiros_engine7domains8bookmark8protocol8requestsNtB7_13ListBookmarksNtNtBf_6client13ClientRequest15execute_request0Bf_
FN:102,_RNCNvXs2_NtNtNtNtCsk2dDpYChjKI_14oneiros_engine7domains8bookmark8protocol8requestsNtB7_13ShareBookmarkNtNtBf_6client13ClientRequest15execute_request0Bf_
FN:123,_RNCNvXs3_NtNtNtNtCsk2dDpYChjKI_14oneiros_engine7domains8bookmark8protocol8requestsNtB7_14FollowBookmarkNtNtBf_6client13ClientRequest15execute_request0Bf_
FN:141,_RNCNvXs4_NtNtNtNtCsk2dDpYChjKI_14oneiros_engine7domains8bookmark8protocol8requestsNtB7_15CollectBookmarkNtNtBf_6client13ClientRequest15execute_request0Bf_
FN:159,_RNCNvXs5_NtNtNtNtCsk2dDpYChjKI_14oneiros_engine7domains8bookmark8protocol8requestsNtB7_16UnfollowBookmarkNtNtBf_6client13ClientRequest15execute_request0Bf_
FN:38,_RNCNvXs_NtNtNtNtCsk2dDpYChjKI_14oneiros_engine7domains8bookmark8protocol8requestsNtB6_14SwitchBookmarkNtNtBe_6client13ClientRequest15execute_request0Be_
FN:20,_RNvXNtNtNtNtCsk2dDpYChjKI_14oneiros_engine7domains8bookmark8protocol8requestsNtB2_14CreateBookmarkNtNtBa_6client13ClientRequest15execute_request
FN:56,_RNvXs0_NtNtNtNtCsk2dDpYChjKI_14oneiros_engine7domains8bookmark8protocol8requestsNtB5_13MergeBookmarkNtNtBd_6client13ClientRequest15execute_request
FN:77,_RNvXs1_NtNtNtNtCsk2dDpYChjKI_14oneiros_engine7domains8bookmark8protocol8requestsNtB5_13ListBookmarksNtNtBd_6client13ClientRequest15execute_request
FN:102,_RNvXs2_NtNtNtNtCsk2dDpYChjKI_14oneiros_engine7domains8bookmark8protocol8requestsNtB5_13ShareBookmarkNtNtBd_6client13ClientRequest15execute_request
FN:123,_RNvXs3_NtNtNtNtCsk2dDpYChjKI_14oneiros_engine7domains8bookmark8protocol8requestsNtB5_14FollowBookmarkNtNtBd_6client13ClientRequest15execute_request
FN:141,_RNvXs4_NtNtNtNtCsk2dDpYChjKI_14oneiros_engine7domains8bookmark8protocol8requestsNtB5_15CollectBookmarkNtNtBd_6client13ClientRequest15execute_request
FN:159,_RNvXs5_NtNtNtNtCsk2dDpYChjKI_14oneiros_engine7domains8bookmark8protocol8requestsNtB5_16UnfollowBookmarkNtNtBd_6client13ClientRequest15execute_request
FN:38,_RNvXs_NtNtNtNtCsk2dDpYChjKI_14oneiros_engine7domains8bookmark8protocol8requestsNtB4_14SwitchBookmarkNtNtBc_6client13ClientRequest15execute_request
FNDA:1,_RNCNvXNtNtNtNtCsk2dDpYChjKI_14oneiros_engine7domains8bookmark8protocol8requestsNtB4_14CreateBookmarkNtNtBc_6client13ClientRequest15execute_request0Bc_
FNDA:4,_RNCNvXs0_NtNtNtNtCsk2dDpYChjKI_14oneiros_engine7domains8bookmark8protocol8requestsNtB7_13MergeBookmarkNtNtBf_6client13ClientRequest15execute_request0Bf_
FNDA:3,_RNCNvXs1_NtNtNtNtCsk2dDpYChjKI_14oneiros_engine7domains8bookmark8protocol8requestsNtB7_13ListBookmarksNtNtBf_6client13ClientRequest15execute_request0Bf_
FNDA:9,_RNCNvXs2_NtNtNtNtCsk2dDpYChjKI_14oneiros_engine7domains8bookmark8protocol8requestsNtB7_13ShareBookmarkNtNtBf_6client13ClientRequest15execute_request0Bf_
FNDA:9,_RNCNvXs3_NtNtNtNtCsk2dDpYChjKI_14oneiros_engine7domains8bookmark8protocol8requestsNtB7_14FollowBookmarkNtNtBf_6client13ClientRequest15execute_request0Bf_
FNDA:11,_RNCNvXs4_NtNtNtNtCsk2dDpYChjKI_14oneiros_engine7domains8bookmark8protocol8requestsNtB7_15CollectBookmarkNtNtBf_6client13ClientRequest15execute_request0Bf_
FNDA:1,_RNCNvXs5_NtNtNtNtCsk2dDpYChjKI_14oneiros_engine7domains8bookmark8protocol8requestsNtB7_16UnfollowBookmarkNtNtBf_6client13ClientRequest15execute_request0Bf_
FNDA:8,_RNCNvXs_NtNtNtNtCsk2dDpYChjKI_14oneiros_engine7domains8bookmark8protocol8requestsNtB6_14SwitchBookmarkNtNtBe_6client13ClientRequest15execute_request0Be_
FNDA:1,_RNvXNtNtNtNtCsk2dDpYChjKI_14oneiros_engine7domains8bookmark8protocol8requestsNtB2_14CreateBookmarkNtNtBa_6client13ClientRequest15execute_request
FNDA:4,_RNvXs0_NtNtNtNtCsk2dDpYChjKI_14oneiros_engine7domains8bookmark8protocol8requestsNtB5_13MergeBookmarkNtNtBd_6client13ClientRequest15execute_request
FNDA:3,_RNvXs1_NtNtNtNtCsk2dDpYChjKI_14oneiros_engine7domains8bookmark8protocol8requestsNtB5_13ListBookmarksNtNtBd_6client13ClientRequest15execute_request
FNDA:9,_RNvXs2_NtNtNtNtCsk2dDpYChjKI_14oneiros_engine7domains8bookmark8protocol8requestsNtB5_13ShareBookmarkNtNtBd_6client13ClientRequest15execute_request
FNDA:9,_RNvXs3_NtNtNtNtCsk2dDpYChjKI_14oneiros_engine7domains8bookmark8protocol8requestsNtB5_14FollowBookmarkNtNtBd_6client13ClientRequest15execute_request
FNDA:11,_RNvXs4_NtNtNtNtCsk2dDpYChjKI_14oneiros_engine7domains8bookmark8protocol8requestsNtB5_15CollectBookmarkNtNtBd_6client13ClientRequest15execute_request
FNDA:1,_RNvXs5_NtNtNtNtCsk2dDpYChjKI_14oneiros_engine7domains8bookmark8protocol8requestsNtB5_16UnfollowBookmarkNtNtBd_6client13ClientRequest15execute_request
FNDA:8,_RNvXs_NtNtNtNtCsk2dDpYChjKI_14oneiros_engine7domains8bookmark8protocol8requestsNtB4_14SwitchBookmarkNtNtBc_6client13ClientRequest15execute_request
FNF:16
FNH:16
DA:20,1
DA:21,1
DA:22,1
DA:38,8
DA:39,8
DA:40,8
DA:56,4
DA:57,4
DA:58,4
DA:77,3
DA:78,3
DA:79,3
DA:83,3
DA:84,3
DA:102,9
DA:103,9
DA:104,9
DA:123,9
DA:124,9
DA:125,9
DA:141,11
DA:142,11
DA:143,11
DA:159,1
DA:160,1
DA:161,1
BRF:0
BRH:0
LF:34
LH:34
end_of_record
SF:/Users/esmevane/Code/projects/oneiros/crates/oneiros-engine/src/domains/bookmark/repo.rs
FN:8,_RNvMNtNtNtCsk2dDpYChjKI_14oneiros_engine7domains8bookmark4repoNtB2_12BookmarkRepo3new
FN:12,_RNvMNtNtNtCsk2dDpYChjKI_14oneiros_engine7domains8bookmark4repoNtB2_12BookmarkRepo4list
FN:22,_RNCNCNvMNtNtNtCsk2dDpYChjKI_14oneiros_engine7domains8bookmark4repoNtB6_12BookmarkRepo4list00Bc_
FN:37,_RNCNCNvMNtNtNtCsk2dDpYChjKI_14oneiros_engine7domains8bookmark4repoNtB6_12BookmarkRepo4list0s_0Bc_
FN:16,_RNCNvMNtNtNtCsk2dDpYChjKI_14oneiros_engine7domains8bookmark4repoNtB4_12BookmarkRepo4list0Ba_
FNDA:12,_RNvMNtNtNtCsk2dDpYChjKI_14oneiros_engine7domains8bookmark4repoNtB2_12BookmarkRepo3new
FNDA:12,_RNvMNtNtNtCsk2dDpYChjKI_14oneiros_engine7domains8bookmark4repoNtB2_12BookmarkRepo4list
FNDA:12,_RNCNCNvMNtNtNtCsk2dDpYChjKI_14oneiros_engine7domains8bookmark4repoNtB6_12BookmarkRepo4list00Bc_
FNDA:14,_RNCNCNvMNtNtNtCsk2dDpYChjKI_14oneiros_engine7domains8bookmark4repoNtB6_12BookmarkRepo4list0s_0Bc_
FNDA:12,_RNCNvMNtNtNtCsk2dDpYChjKI_14oneiros_engine7domains8bookmark4repoNtB4_12BookmarkRepo4list0Ba_
FNF:5
FNH:5
DA:8,12
DA:9,12
DA:10,12
DA:12,12
DA:13,12
DA:14,12
DA:15,12
DA:16,12
DA:17,12
DA:19,12
DA:20,12
DA:21,12
DA:22,12
DA:23,12
DA:24,12
DA:27,12
DA:28,12
DA:29,12
DA:30,12
DA:31,12
DA:32,12
DA:34,12
DA:35,12
DA:36,12
DA:37,14
DA:38,0
DA:39,12
DA:41,12
DA:43,14
DA:44,14
DA:45,14
DA:46,14
DA:47,14
DA:48,14
DA:52,12
DA:53,12
BRF:0
BRH:0
LF:39
LH:37
end_of_record
SF:/Users/esmevane/Code/projects/oneiros/crates/oneiros-engine/src/domains/bookmark/service.rs
FN:483,_RNvMNtNtNtCsk2dDpYChjKI_14oneiros_engine7domains8bookmark7serviceNtB2_15BookmarkService15replay_bookmark
FN:316,_RNvMNtNtNtCsk2dDpYChjKI_14oneiros_engine7domains8bookmark7serviceNtB2_15BookmarkService17collect_from_peer
FN:501,_RNvMNtNtNtCsk2dDpYChjKI_14oneiros_engine7domains8bookmark7serviceNtB2_15BookmarkService18create_bookmark_db
FN:127,_RNvMNtNtNtCsk2dDpYChjKI_14oneiros_engine7domains8bookmark7serviceNtB2_15BookmarkService4list
FN:86,_RNvMNtNtNtCsk2dDpYChjKI_14oneiros_engine7domains8bookmark7serviceNtB2_15BookmarkService5merge
FN:144,_RNvMNtNtNtCsk2dDpYChjKI_14oneiros_engine7domains8bookmark7serviceNtB2_15BookmarkService5share
FN:6,_RNvMNtNtNtCsk2dDpYChjKI_14oneiros_engine7domains8bookmark7serviceNtB2_15BookmarkService6create
FN:224,_RNvMNtNtNtCsk2dDpYChjKI_14oneiros_engine7domains8bookmark7serviceNtB2_15BookmarkService6follow
FN:50,_RNvMNtNtNtCsk2dDpYChjKI_14oneiros_engine7domains8bookmark7serviceNtB2_15BookmarkService6switch
FN:280,_RNvMNtNtNtCsk2dDpYChjKI_14oneiros_engine7domains8bookmark7serviceNtB2_15BookmarkService7collect
FN:456,_RNvMNtNtNtCsk2dDpYChjKI_14oneiros_engine7domains8bookmark7serviceNtB2_15BookmarkService8unfollow
FN:415,_RNCNCNCNvMNtNtNtCsk2dDpYChjKI_14oneiros_engine7domains8bookmark7serviceNtB8_15BookmarkService17collect_from_peer0s4_00Be_
FN:343,_RNCNCNvMNtNtNtCsk2dDpYChjKI_14oneiros_engine7domains8bookmark7serviceNtB6_15BookmarkService17collect_from_peer00Bc_
FN:371,_RNCNCNvMNtNtNtCsk2dDpYChjKI_14oneiros_engine7domains8bookmark7serviceNtB6_15BookmarkService17collect_from_peer0s0_0Bc_
FN:382,_RNCNCNvMNtNtNtCsk2dDpYChjKI_14oneiros_engine7domains8bookmark7serviceNtB6_15BookmarkService17collect_from_peer0s1_0Bc_
FN:391,_RNCNCNvMNtNtNtCsk2dDpYChjKI_14oneiros_engine7domains8bookmark7serviceNtB6_15BookmarkService17collect_from_peer0s2_0Bc_
FN:407,_RNCNCNvMNtNtNtCsk2dDpYChjKI_14oneiros_engine7domains8bookmark7serviceNtB6_15BookmarkService17collect_from_peer0s3_0Bc_
FN:426,_RNCNCNvMNtNtNtCsk2dDpYChjKI_14oneiros_engine7domains8bookmark7serviceNtB6_15BookmarkService17collect_from_peer0s4_0Bc_
FN:359,_RNCNCNvMNtNtNtCsk2dDpYChjKI_14oneiros_engine7domains8bookmark7serviceNtB6_15BookmarkService17collect_from_peer0s_0Bc_
FN:163,_RNCNCNvMNtNtNtCsk2dDpYChjKI_14oneiros_engine7domains8bookmark7serviceNtB6_15BookmarkService5share00Bc_
FN:170,_RNCNCNvMNtNtNtCsk2dDpYChjKI_14oneiros_engine7domains8bookmark7serviceNtB6_15BookmarkService5share0s0_0Bc_
FN:164,_RNCNCNvMNtNtNtCsk2dDpYChjKI_14oneiros_engine7domains8bookmark7serviceNtB6_15BookmarkService5share0s_0Bc_
FN:236,_RNCNCNvMNtNtNtCsk2dDpYChjKI_14oneiros_engine7domains8bookmark7serviceNtB6_15BookmarkService6follow00Bc_
FN:291,_RNCNCNvMNtNtNtCsk2dDpYChjKI_14oneiros_engine7domains8bookmark7serviceNtB6_15BookmarkService7collect00Bc_
FN:467,_RNCNCNvMNtNtNtCsk2dDpYChjKI_14oneiros_engine7domains8bookmark7serviceNtB6_15BookmarkService8unfollow00Bc_
FN:321,_RNCNvMNtNtNtCsk2dDpYChjKI_14oneiros_engine7domains8bookmark7serviceNtB4_15BookmarkService17collect_from_peer0Ba_
FN:514,_RNCNvMNtNtNtCsk2dDpYChjKI_14oneiros_engine7domains8bookmark7serviceNtB4_15BookmarkService18create_bookmark_db0Ba_
FN:131,_RNCNvMNtNtNtCsk2dDpYChjKI_14oneiros_engine7domains8bookmark7serviceNtB4_15BookmarkService4list0Ba_
FN:90,_RNCNvMNtNtNtCsk2dDpYChjKI_14oneiros_engine7domains8bookmark7serviceNtB4_15BookmarkService5merge0Ba_
FN:148,_RNCNvMNtNtNtCsk2dDpYChjKI_14oneiros_engine7domains8bookmark7serviceNtB4_15BookmarkService5share0Ba_
FN:10,_RNCNvMNtNtNtCsk2dDpYChjKI_14oneiros_engine7domains8bookmark7serviceNtB4_15BookmarkService6create0Ba_
FN:228,_RNCNvMNtNtNtCsk2dDpYChjKI_14oneiros_engine7domains8bookmark7serviceNtB4_15BookmarkService6follow0Ba_
FN:54,_RNCNvMNtNtNtCsk2dDpYChjKI_14oneiros_engine7domains8bookmark7serviceNtB4_15BookmarkService6switch0Ba_
FN:284,_RNCNvMNtNtNtCsk2dDpYChjKI_14oneiros_engine7domains8bookmark7serviceNtB4_15BookmarkService7collect0Ba_
FN:460,_RNCNvMNtNtNtCsk2dDpYChjKI_14oneiros_engine7domains8bookmark7serviceNtB4_15BookmarkService8unfollow0Ba_
FNDA:4,_RNvMNtNtNtCsk2dDpYChjKI_14oneiros_engine7domains8bookmark7serviceNtB2_15BookmarkService15replay_bookmark
FNDA:10,_RNvMNtNtNtCsk2dDpYChjKI_14oneiros_engine7domains8bookmark7serviceNtB2_15BookmarkService17collect_from_peer
FNDA:10,_RNvMNtNtNtCsk2dDpYChjKI_14oneiros_engine7domains8bookmark7serviceNtB2_15BookmarkService18create_bookmark_db
FNDA:3,_RNvMNtNtNtCsk2dDpYChjKI_14oneiros_engine7domains8bookmark7serviceNtB2_15BookmarkService4list
FNDA:4,_RNvMNtNtNtCsk2dDpYChjKI_14oneiros_engine7domains8bookmark7serviceNtB2_15BookmarkService5merge
FNDA:9,_RNvMNtNtNtCsk2dDpYChjKI_14oneiros_engine7domains8bookmark7serviceNtB2_15BookmarkService5share
FNDA:1,_RNvMNtNtNtCsk2dDpYChjKI_14oneiros_engine7domains8bookmark7serviceNtB2_15BookmarkService6create
FNDA:9,_RNvMNtNtNtCsk2dDpYChjKI_14oneiros_engine7domains8bookmark7serviceNtB2_15BookmarkService6follow
FNDA:8,_RNvMNtNtNtCsk2dDpYChjKI_14oneiros_engine7domains8bookmark7serviceNtB2_15BookmarkService6switch
FNDA:11,_RNvMNtNtNtCsk2dDpYChjKI_14oneiros_engine7domains8bookmark7serviceNtB2_15BookmarkService7collect
FNDA:1,_RNvMNtNtNtCsk2dDpYChjKI_14oneiros_engine7domains8bookmark7serviceNtB2_15BookmarkService8unfollow
FNDA:18,_RNCNCNCNvMNtNtNtCsk2dDpYChjKI_14oneiros_engine7domains8bookmark7serviceNtB8_15BookmarkService17collect_from_peer0s4_00Be_
FNDA:901,_RNCNCNvMNtNtNtCsk2dDpYChjKI_14oneiros_engine7domains8bookmark7serviceNtB6_15BookmarkService17collect_from_peer00Bc_
FNDA:368,_RNCNCNvMNtNtNtCsk2dDpYChjKI_14oneiros_engine7domains8bookmark7serviceNtB6_15BookmarkService17collect_from_peer0s0_0Bc_
FNDA:0,_RNCNCNvMNtNtNtCsk2dDpYChjKI_14oneiros_engine7domains8bookmark7serviceNtB6_15BookmarkService17collect_from_peer0s1_0Bc_
FNDA:368,_RNCNCNvMNtNtNtCsk2dDpYChjKI_14oneiros_engine7domains8bookmark7serviceNtB6_15BookmarkService17collect_from_peer0s2_0Bc_
FNDA:337,_RNCNCNvMNtNtNtCsk2dDpYChjKI_14oneiros_engine7domains8bookmark7serviceNtB6_15BookmarkService17collect_from_peer0s3_0Bc_
FNDA:18,_RNCNCNvMNtNtNtCsk2dDpYChjKI_14oneiros_engine7domains8bookmark7serviceNtB6_15BookmarkService17collect_from_peer0s4_0Bc_
FNDA:0,_RNCNCNvMNtNtNtCsk2dDpYChjKI_14oneiros_engine7domains8bookmark7serviceNtB6_15BookmarkService17collect_from_peer0s_0Bc_
FNDA:10,_RNCNCNvMNtNtNtCsk2dDpYChjKI_14oneiros_engine7domains8bookmark7serviceNtB6_15BookmarkService5share00Bc_
FNDA:0,_RNCNCNvMNtNtNtCsk2dDpYChjKI_14oneiros_engine7domains8bookmark7serviceNtB6_15BookmarkService5share0s0_0Bc_
FNDA:0,_RNCNCNvMNtNtNtCsk2dDpYChjKI_14oneiros_engine7domains8bookmark7serviceNtB6_15BookmarkService5share0s_0Bc_
FNDA:0,_RNCNCNvMNtNtNtCsk2dDpYChjKI_14oneiros_engine7domains8bookmark7serviceNtB6_15BookmarkService6follow00Bc_
FNDA:1,_RNCNCNvMNtNtNtCsk2dDpYChjKI_14oneiros_engine7domains8bookmark7serviceNtB6_15BookmarkService7collect00Bc_
FNDA:0,_RNCNCNvMNtNtNtCsk2dDpYChjKI_14oneiros_engine7domains8bookmark7serviceNtB6_15BookmarkService8unfollow00Bc_
FNDA:10,_RNCNvMNtNtNtCsk2dDpYChjKI_14oneiros_engine7domains8bookmark7serviceNtB4_15BookmarkService17collect_from_peer0Ba_
FNDA:0,_RNCNvMNtNtNtCsk2dDpYChjKI_14oneiros_engine7domains8bookmark7serviceNtB4_15BookmarkService18create_bookmark_db0Ba_
FNDA:3,_RNCNvMNtNtNtCsk2dDpYChjKI_14oneiros_engine7domains8bookmark7serviceNtB4_15BookmarkService4list0Ba_
FNDA:4,_RNCNvMNtNtNtCsk2dDpYChjKI_14oneiros_engine7domains8bookmark7serviceNtB4_15BookmarkService5merge0Ba_
FNDA:9,_RNCNvMNtNtNtCsk2dDpYChjKI_14oneiros_engine7domains8bookmark7serviceNtB4_15BookmarkService5share0Ba_
FNDA:1,_RNCNvMNtNtNtCsk2dDpYChjKI_14oneiros_engine7domains8bookmark7serviceNtB4_15BookmarkService6create0Ba_
FNDA:9,_RNCNvMNtNtNtCsk2dDpYChjKI_14oneiros_engine7domains8bookmark7serviceNtB4_15BookmarkService6follow0Ba_
FNDA:8,_RNCNvMNtNtNtCsk2dDpYChjKI_14oneiros_engine7domains8bookmark7serviceNtB4_15BookmarkService6switch0Ba_
FNDA:11,_RNCNvMNtNtNtCsk2dDpYChjKI_14oneiros_engine7domains8bookmark7serviceNtB4_15BookmarkService7collect0Ba_
FNDA:1,_RNCNvMNtNtNtCsk2dDpYChjKI_14oneiros_engine7domains8bookmark7serviceNtB4_15BookmarkService8unfollow0Ba_
FNF:35
FNH:28
DA:6,1
DA:7,1
DA:8,1
DA:9,1
DA:10,1
DA:11,1
DA:12,1
DA:13,1
DA:14,1
DA:17,1
DA:19,1
DA:20,1
DA:21,1
DA:22,1
DA:24,1
DA:25,1
DA:26,1
DA:27,1
DA:28,1
DA:29,1
DA:30,1
DA:31,1
DA:32,1
DA:33,1
DA:34,1
DA:35,1
DA:36,1
DA:37,1
DA:38,1
DA:41,1
DA:42,1
DA:43,1
DA:44,1
DA:45,1
DA:46,1
DA:47,1
DA:48,1
DA:50,8
DA:51,8
DA:52,8
DA:53,8
DA:54,8
DA:55,8
DA:56,8
DA:57,8
DA:59,8
DA:60,8
DA:61,8
DA:62,8
DA:64,8
DA:65,8
DA:66,8
DA:67,8
DA:68,8
DA:69,8
DA:70,8
DA:71,8
DA:72,8
DA:73,8
DA:74,8
DA:77,8
DA:78,8
DA:79,8
DA:80,8
DA:81,8
DA:82,8
DA:83,8
DA:84,8
DA:86,4
DA:87,4
DA:88,4
DA:89,4
DA:90,4
DA:91,4
DA:92,4
DA:93,4
DA:94,4
DA:96,4
DA:98,4
DA:99,4
DA:100,4
DA:101,4
DA:102,4
DA:104,4
DA:105,4
DA:106,4
DA:107,4
DA:108,4
DA:109,4
DA:110,4
DA:111,4
DA:112,4
DA:113,4
DA:114,4
DA:117,4
DA:118,4
DA:119,4
DA:120,4
DA:121,4
DA:122,4
DA:123,4
DA:124,4
DA:125,4
DA:127,3
DA:128,3
DA:129,3
DA:130,3
DA:131,3
DA:132,3
DA:133,3
DA:134,3
DA:135,3
DA:136,3
DA:137,3
DA:138,3
DA:144,9
DA:145,9
DA:146,9
DA:147,9
DA:148,9
DA:149,9
DA:150,9
DA:151,9
DA:152,9
DA:153,9
DA:154,9
DA:155,9
DA:156,9
DA:157,9
DA:159,9
DA:160,9
DA:161,9
DA:162,9
DA:163,10
DA:164,9
DA:165,9
DA:167,9
DA:168,9
DA:169,9
DA:170,9
DA:172,9
DA:173,0
DA:175,9
DA:176,9
DA:177,9
DA:178,9
DA:179,9
DA:180,9
DA:184,9
DA:185,9
DA:186,9
DA:187,9
DA:188,9
DA:189,9
DA:190,9
DA:191,9
DA:192,9
DA:193,9
DA:195,9
DA:196,9
DA:197,9
DA:199,9
DA:200,9
DA:201,9
DA:202,9
DA:203,9
DA:204,9
DA:205,9
DA:206,9
DA:207,9
DA:208,9
DA:209,9
DA:210,9
DA:211,9
DA:212,9
DA:213,9
DA:214,9
DA:217,9
DA:218,9
DA:219,9
DA:220,9
DA:221,9
DA:224,9
DA:225,9
DA:226,9
DA:227,9
DA:228,9
DA:229,9
DA:230,9
DA:231,9
DA:232,9
DA:233,9
DA:234,9
DA:235,9
DA:236,9
DA:238,9
DA:239,0
DA:240,0
DA:241,9
DA:242,9
DA:243,9
DA:244,9
DA:248,9
DA:249,9
DA:250,9
DA:251,9
DA:253,9
DA:254,9
DA:255,9
DA:256,9
DA:257,9
DA:258,9
DA:259,9
DA:260,9
DA:262,9
DA:263,9
DA:264,9
DA:265,9
DA:266,9
DA:269,9
DA:272,9
DA:274,9
DA:275,9
DA:276,9
DA:277,9
DA:280,11
DA:281,11
DA:282,11
DA:283,11
DA:284,11
DA:285,11
DA:286,11
DA:287,11
DA:288,11
DA:289,11
DA:290,11
DA:291,11
DA:293,10
DA:295,0
DA:296,0
DA:297,0
DA:298,0
DA:299,0
DA:300,0
DA:301,0
DA:303,10
DA:304,10
DA:307,11
DA:316,10
DA:317,10
DA:318,10
DA:319,10
DA:320,10
DA:321,10
DA:322,10
DA:323,10
DA:324,10
DA:329,10
DA:330,10
DA:331,10
DA:332,10
DA:338,10
DA:339,10
DA:341,10
DA:342,10
DA:343,901
DA:344,901
DA:345,901
DA:346,901
DA:351,10
DA:352,10
DA:353,10
DA:354,10
DA:355,10
DA:356,10
DA:357,10
DA:358,10
DA:359,10
DA:361,10
DA:367,10
DA:368,9
DA:369,9
DA:370,9
DA:371,368
DA:372,9
DA:374,9
DA:375,9
DA:376,9
DA:377,9
DA:379,9
DA:380,9
DA:381,9
DA:382,9
DA:384,9
DA:385,9
DA:390,9
DA:391,368
DA:393,368
DA:394,368
DA:395,368
DA:396,368
DA:397,368
DA:398,368
DA:399,368
DA:400,368
DA:404,9
DA:405,9
DA:406,9
DA:407,337
DA:408,337
DA:409,337
DA:410,337
DA:412,9
DA:413,9
DA:414,9
DA:415,18
DA:416,18
DA:417,18
DA:418,18
DA:419,0
DA:421,18
DA:422,9
DA:424,9
DA:426,36
DA:427,9
DA:428,1
DA:432,10
DA:433,10
DA:434,10
DA:435,10
DA:436,10
DA:437,10
DA:439,10
DA:440,10
DA:441,10
DA:442,10
DA:443,10
DA:444,10
DA:445,10
DA:446,10
DA:448,10
DA:449,10
DA:450,10
DA:451,10
DA:452,10
DA:453,10
DA:456,1
DA:457,1
DA:458,1
DA:459,1
DA:460,1
DA:461,1
DA:462,1
DA:463,1
DA:464,1
DA:465,1
DA:466,1
DA:467,1
DA:469,1
DA:470,1
DA:472,1
DA:473,1
DA:474,1
DA:475,1
DA:476,1
DA:477,1
DA:478,1
DA:479,1
DA:480,1
DA:483,4
DA:484,4
DA:485,4
DA:486,4
DA:487,4
DA:488,4
DA:489,4
DA:490,4
DA:491,4
DA:492,4
DA:493,4
DA:494,4
DA:495,4
DA:501,10
DA:502,10
DA:503,10
DA:504,10
DA:505,10
DA:506,10
DA:507,10
DA:508,10
DA:510,10
DA:511,10
DA:512,10
DA:513,10
DA:514,10
DA:517,10
DA:518,10
DA:519,10
DA:520,10
DA:521,10
DA:523,10
DA:524,10
BRF:0
BRH:0
LF:424
LH:406
end_of_record
SF:/Users/esmevane/Code/projects/oneiros/crates/oneiros-engine/src/domains/bookmark/store.rs
FN:76,_RNCNvMNtNtNtCsk2dDpYChjKI_14oneiros_engine7domains8bookmark5storeNtB4_13BookmarkStore16list_for_project0Ba_
FN:42,_RNvMNtNtNtCsk2dDpYChjKI_14oneiros_engine7domains8bookmark5storeNtB2_13BookmarkStore14write_bookmark
FN:63,_RNvMNtNtNtCsk2dDpYChjKI_14oneiros_engine7domains8bookmark5storeNtB2_13BookmarkStore16list_for_project
FN:16,_RNvMNtNtNtCsk2dDpYChjKI_14oneiros_engine7domains8bookmark5storeNtB2_13BookmarkStore3new
FN:56,_RNvMNtNtNtCsk2dDpYChjKI_14oneiros_engine7domains8bookmark5storeNtB2_13BookmarkStore5reset
FN:33,_RNvMNtNtNtCsk2dDpYChjKI_14oneiros_engine7domains8bookmark5storeNtB2_13BookmarkStore6handle
FN:20,_RNvMNtNtNtCsk2dDpYChjKI_14oneiros_engine7domains8bookmark5storeNtB2_13BookmarkStore7migrate
FN:3,_RNvNtNtNtCsk2dDpYChjKI_14oneiros_engine7domains8bookmark5store16is_missing_table
FNDA:1356,_RNCNvMNtNtNtCsk2dDpYChjKI_14oneiros_engine7domains8bookmark5storeNtB4_13BookmarkStore16list_for_project0Ba_
FNDA:300,_RNvMNtNtNtCsk2dDpYChjKI_14oneiros_engine7domains8bookmark5storeNtB2_13BookmarkStore14write_bookmark
FNDA:1329,_RNvMNtNtNtCsk2dDpYChjKI_14oneiros_engine7domains8bookmark5storeNtB2_13BookmarkStore16list_for_project
FNDA:4723,_RNvMNtNtNtCsk2dDpYChjKI_14oneiros_engine7domains8bookmark5storeNtB2_13BookmarkStore3new
FNDA:0,_RNvMNtNtNtCsk2dDpYChjKI_14oneiros_engine7domains8bookmark5storeNtB2_13BookmarkStore5reset
FNDA:1545,_RNvMNtNtNtCsk2dDpYChjKI_14oneiros_engine7domains8bookmark5storeNtB2_13BookmarkStore6handle
FNDA:1849,_RNvMNtNtNtCsk2dDpYChjKI_14oneiros_engine7domains8bookmark5storeNtB2_13BookmarkStore7migrate
FNDA:2,_RNvNtNtNtCsk2dDpYChjKI_14oneiros_engine7domains8bookmark5store16is_missing_table
FNF:8
FNH:7
DA:3,2
DA:4,2
DA:5,2
DA:6,2
DA:7,2
DA:9,2
DA:16,4723
DA:17,4723
DA:18,4723
DA:20,1849
DA:21,1849
DA:22,1849
DA:23,1849
DA:24,1849
DA:25,1849
DA:26,1849
DA:27,1849
DA:28,1849
DA:29,0
DA:30,1849
DA:31,1849
DA:33,1545
DA:34,1545
DA:35,341
DA:37,300
DA:38,1245
DA:39,1545
DA:40,1545
DA:42,300
DA:43,300
DA:44,300
DA:45,300
DA:46,300
DA:47,300
DA:48,300
DA:49,300
DA:50,300
DA:52,0
DA:53,300
DA:54,300
DA:56,0
DA:57,0
DA:58,0
DA:59,0
DA:63,1329
DA:64,1329
DA:65,1329
DA:66,1329
DA:67,1329
DA:68,1329
DA:69,1329
DA:71,1327
DA:72,2
DA:73,0
DA:75,1327
DA:76,1356
DA:77,1327
DA:78,1327
DA:79,1329
BRF:0
BRH:0
LF:60
LH:53
end_of_record
SF:/Users/esmevane/Code/projects/oneiros/crates/oneiros-engine/src/domains/bookmark/view.rs
FN:8,_RNvMNtNtNtCsk2dDpYChjKI_14oneiros_engine7domains8bookmark4viewNtB2_12BookmarkView3new
FN:12,_RNvMNtNtNtCsk2dDpYChjKI_14oneiros_engine7domains8bookmark4viewNtB2_12BookmarkView6render
FNDA:43,_RNvMNtNtNtCsk2dDpYChjKI_14oneiros_engine7domains8bookmark4viewNtB2_12BookmarkView3new
FNDA:43,_RNvMNtNtNtCsk2dDpYChjKI_14oneiros_engine7domains8bookmark4viewNtB2_12BookmarkView6render
FNF:2
FNH:2
DA:8,43
DA:9,43
DA:10,43
DA:12,43
DA:13,43
DA:14,0
DA:15,0
DA:16,0
DA:17,0
DA:18,0
DA:19,0
DA:20,0
DA:21,0
DA:24,1
DA:25,1
DA:26,1
DA:27,1
DA:28,1
DA:29,1
DA:30,1
DA:31,1
DA:32,1
DA:33,1
DA:34,1
DA:37,8
DA:38,8
DA:39,8
DA:40,8
DA:41,8
DA:42,8
DA:43,8
DA:44,8
DA:47,4
DA:48,4
DA:49,4
DA:50,4
DA:51,4
DA:52,4
DA:53,4
DA:54,4
DA:55,4
DA:56,4
DA:57,4
DA:60,1
DA:61,1
DA:62,2
DA:63,2
DA:64,2
DA:65,1
DA:67,1
DA:69,1
DA:71,9
DA:72,9
DA:73,9
DA:75,9
DA:76,9
DA:77,9
DA:78,9
DA:80,10
DA:81,10
DA:82,10
DA:83,10
DA:84,10
DA:85,10
DA:86,10
DA:87,10
DA:89,1
DA:90,1
DA:91,1
DA:92,1
DA:93,1
DA:94,1
DA:95,1
DA:96,1
DA:100,43
BRF:0
BRH:0
LF:75
LH:67
end_of_record
SF:/Users/esmevane/Code/projects/oneiros/crates/oneiros-engine/src/domains/bridge/model.rs
FN:310,_RNvXs_NtNtNtCsk2dDpYChjKI_14oneiros_engine7domains6bridge5modelNtB4_6BridgeNtNtCsl8K0bEFm1U0_4core3fmt5Debug3fmt
FN:74,_RINvMNtNtNtCsk2dDpYChjKI_14oneiros_engine7domains6bridge5modelNtB3_6Bridge4diffNCNCNvMNtNtB7_8bookmark7serviceNtB1m_15BookmarkService17collect_from_peer00EB9_
FN:254,_RINvNtNtNtCsk2dDpYChjKI_14oneiros_engine7domains6bridge5model18collect_unresolvedNCNCNvMNtNtB6_8bookmark7serviceNtB1o_15BookmarkService17collect_from_peer00EB8_
FN:254,_RINvNtNtNtCsk2dDpYChjKI_14oneiros_engine7domains6bridge5model18collect_unresolvedNCNvNtB2_5testss_35collect_unresolved_with_cached_leaf0EB8_
FN:254,_RINvNtNtNtCsk2dDpYChjKI_14oneiros_engine7domains6bridge5model18collect_unresolvedNCNvNtB2_5testss_37collect_unresolved_with_uncached_root0EB8_
FN:254,_RINvNtNtNtCsk2dDpYChjKI_14oneiros_engine7domains6bridge5model18collect_unresolvedNCNvNtB2_5testss_38collect_unresolved_with_matching_roots0EB8_
FN:254,_RINvNtNtNtCsk2dDpYChjKI_14oneiros_engine7domains6bridge5model18collect_unresolvedNCNvNtB2_5testss_56collect_unresolved_with_interior_skips_matching_children0EB8_
FN:80,_RNCINvMNtNtNtCsk2dDpYChjKI_14oneiros_engine7domains6bridge5modelNtB5_6Bridge4diffNCNCNvMNtNtB9_8bookmark7serviceNtB1o_15BookmarkService17collect_from_peer00E0Bb_
FN:286,_RNCINvNtNtNtCsk2dDpYChjKI_14oneiros_engine7domains6bridge5model18collect_unresolvedNCNCNvMNtNtB8_8bookmark7serviceNtB1q_15BookmarkService17collect_from_peer00E0Ba_
FN:294,_RNCINvNtNtNtCsk2dDpYChjKI_14oneiros_engine7domains6bridge5model18collect_unresolvedNCNCNvMNtNtB8_8bookmark7serviceNtB1q_15BookmarkService17collect_from_peer00Es_0Ba_
FN:286,_RNCINvNtNtNtCsk2dDpYChjKI_14oneiros_engine7domains6bridge5model18collect_unresolvedNCNvNtB4_5testss_35collect_unresolved_with_cached_leaf0E0Ba_
FN:294,_RNCINvNtNtNtCsk2dDpYChjKI_14oneiros_engine7domains6bridge5model18collect_unresolvedNCNvNtB4_5testss_35collect_unresolved_with_cached_leaf0Es_0Ba_
FN:286,_RNCINvNtNtNtCsk2dDpYChjKI_14oneiros_engine7domains6bridge5model18collect_unresolvedNCNvNtB4_5testss_37collect_unresolved_with_uncached_root0E0Ba_
FN:294,_RNCINvNtNtNtCsk2dDpYChjKI_14oneiros_engine7domains6bridge5model18collect_unresolvedNCNvNtB4_5testss_37collect_unresolved_with_uncached_root0Es_0Ba_
FN:286,_RNCINvNtNtNtCsk2dDpYChjKI_14oneiros_engine7domains6bridge5model18collect_unresolvedNCNvNtB4_5testss_38collect_unresolved_with_matching_roots0E0Ba_
FN:294,_RNCINvNtNtNtCsk2dDpYChjKI_14oneiros_engine7domains6bridge5model18collect_unresolvedNCNvNtB4_5testss_38collect_unresolved_with_matching_roots0Es_0Ba_
FN:286,_RNCINvNtNtNtCsk2dDpYChjKI_14oneiros_engine7domains6bridge5model18collect_unresolvedNCNvNtB4_5testss_56collect_unresolved_with_interior_skips_matching_children0E0Ba_
FN:294,_RNCINvNtNtNtCsk2dDpYChjKI_14oneiros_engine7domains6bridge5model18collect_unresolvedNCNvNtB4_5testss_56collect_unresolved_with_interior_skips_matching_children0Es_0Ba_
FN:134,_RNCNCINvMNtNtNtCsk2dDpYChjKI_14oneiros_engine7domains6bridge5modelNtB7_6Bridge4diffNCNCNvMNtNtBb_8bookmark7serviceNtB1q_15BookmarkService17collect_from_peer00E00Bd_
FN:140,_RNCNCINvMNtNtNtCsk2dDpYChjKI_14oneiros_engine7domains6bridge5modelNtB7_6Bridge4diffNCNCNvMNtNtBb_8bookmark7serviceNtB1q_15BookmarkService17collect_from_peer00E0s_0Bd_
FN:287,_RNCNCINvNtNtNtCsk2dDpYChjKI_14oneiros_engine7domains6bridge5model18collect_unresolvedNCNCNvMNtNtBa_8bookmark7serviceNtB1s_15BookmarkService17collect_from_peer00E00Bc_
FN:287,_RNCNCINvNtNtNtCsk2dDpYChjKI_14oneiros_engine7domains6bridge5model18collect_unresolvedNCNvNtB6_5testss_35collect_unresolved_with_cached_leaf0E00Bc_
FN:287,_RNCNCINvNtNtNtCsk2dDpYChjKI_14oneiros_engine7domains6bridge5model18collect_unresolvedNCNvNtB6_5testss_37collect_unresolved_with_uncached_root0E00Bc_
FN:287,_RNCNCINvNtNtNtCsk2dDpYChjKI_14oneiros_engine7domains6bridge5model18collect_unresolvedNCNvNtB6_5testss_38collect_unresolved_with_matching_roots0E00Bc_
FN:287,_RNCNCINvNtNtNtCsk2dDpYChjKI_14oneiros_engine7domains6bridge5model18collect_unresolvedNCNvNtB6_5testss_56collect_unresolved_with_interior_skips_matching_children0E00Bc_
FN:134,_RNCNCNCINvMNtNtNtCsk2dDpYChjKI_14oneiros_engine7domains6bridge5modelNtB9_6Bridge4diffNCNCNvMNtNtBd_8bookmark7serviceNtB1s_15BookmarkService17collect_from_peer00E000Bf_
FN:44,_RNCNCNvMNtNtNtCsk2dDpYChjKI_14oneiros_engine7domains6bridge5modelNtB6_6Bridge4bind00Bc_
FN:213,_RNCNCNvMNtNtNtCsk2dDpYChjKI_14oneiros_engine7domains6bridge5modelNtB6_6Bridge4send00Bc_
FN:162,_RNCNvMNtNtNtCsk2dDpYChjKI_14oneiros_engine7domains6bridge5modelNtB4_6Bridge12fetch_events0Ba_
FN:37,_RNCNvMNtNtNtCsk2dDpYChjKI_14oneiros_engine7domains6bridge5modelNtB4_6Bridge4bind0Ba_
FN:204,_RNCNvMNtNtNtCsk2dDpYChjKI_14oneiros_engine7domains6bridge5modelNtB4_6Bridge4send0Ba_
FN:222,_RNCNvMNtNtNtCsk2dDpYChjKI_14oneiros_engine7domains6bridge5modelNtB4_6Bridge8exchange0Ba_
FN:195,_RNCNvMNtNtNtCsk2dDpYChjKI_14oneiros_engine7domains6bridge5modelNtB4_6Bridge8shutdown0Ba_
FN:158,_RNvMNtNtNtCsk2dDpYChjKI_14oneiros_engine7domains6bridge5modelNtB2_6Bridge12fetch_events
FN:189,_RNvMNtNtNtCsk2dDpYChjKI_14oneiros_engine7domains6bridge5modelNtB2_6Bridge13host_identity
FN:175,_RNvMNtNtNtCsk2dDpYChjKI_14oneiros_engine7domains6bridge5modelNtB2_6Bridge3key
FN:37,_RNvMNtNtNtCsk2dDpYChjKI_14oneiros_engine7domains6bridge5modelNtB2_6Bridge4bind
FN:200,_RNvMNtNtNtCsk2dDpYChjKI_14oneiros_engine7domains6bridge5modelNtB2_6Bridge4send
FN:57,_RNvMNtNtNtCsk2dDpYChjKI_14oneiros_engine7domains6bridge5modelNtB2_6Bridge5serve
FN:180,_RNvMNtNtNtCsk2dDpYChjKI_14oneiros_engine7domains6bridge5modelNtB2_6Bridge7address
FN:218,_RNvMNtNtNtCsk2dDpYChjKI_14oneiros_engine7domains6bridge5modelNtB2_6Bridge8exchange
FN:195,_RNvMNtNtNtCsk2dDpYChjKI_14oneiros_engine7domains6bridge5modelNtB2_6Bridge8shutdown
FN:322,_RNvNtNtNtNtCsk2dDpYChjKI_14oneiros_engine7domains6bridge5model5testss_27bridge_binds_with_fresh_key
FN:333,_RNvNtNtNtNtCsk2dDpYChjKI_14oneiros_engine7domains6bridge5model5testss_28bridge_exposes_host_identity
FN:344,_RNvNtNtNtNtCsk2dDpYChjKI_14oneiros_engine7domains6bridge5model5testss_30two_bridges_have_distinct_keys
FN:371,_RNvNtNtNtNtCsk2dDpYChjKI_14oneiros_engine7domains6bridge5model5testss_35collect_unresolved_with_cached_leaf
FN:362,_RNvNtNtNtNtCsk2dDpYChjKI_14oneiros_engine7domains6bridge5model5testss_37collect_unresolved_with_uncached_root
FN:355,_RNvNtNtNtNtCsk2dDpYChjKI_14oneiros_engine7domains6bridge5model5testss_38collect_unresolved_with_matching_roots
FN:393,_RNvNtNtNtNtCsk2dDpYChjKI_14oneiros_engine7domains6bridge5model5testss_56collect_unresolved_with_interior_skips_matching_children
FN:322,_RNCNvNtNtNtNtCsk2dDpYChjKI_14oneiros_engine7domains6bridge5model5testss_27bridge_binds_with_fresh_key0Bb_
FN:333,_RNCNvNtNtNtNtCsk2dDpYChjKI_14oneiros_engine7domains6bridge5model5testss_28bridge_exposes_host_identity0Bb_
FN:344,_RNCNvNtNtNtNtCsk2dDpYChjKI_14oneiros_engine7domains6bridge5model5testss_30two_bridges_have_distinct_keys0Bb_
FN:416,_RNCNvNtNtNtNtCsk2dDpYChjKI_14oneiros_engine7domains6bridge5model5testss_56collect_unresolved_with_interior_skips_matching_children0Bb_
FNDA:0,_RNvXs_NtNtNtCsk2dDpYChjKI_14oneiros_engine7domains6bridge5modelNtB4_6BridgeNtNtCsl8K0bEFm1U0_4core3fmt5Debug3fmt
FNDA:10,_RINvMNtNtNtCsk2dDpYChjKI_14oneiros_engine7domains6bridge5modelNtB3_6Bridge4diffNCNCNvMNtNtB7_8bookmark7serviceNtB1m_15BookmarkService17collect_from_peer00EB9_
FNDA:118,_RINvNtNtNtCsk2dDpYChjKI_14oneiros_engine7domains6bridge5model18collect_unresolvedNCNCNvMNtNtB6_8bookmark7serviceNtB1o_15BookmarkService17collect_from_peer00EB8_
FNDA:1,_RINvNtNtNtCsk2dDpYChjKI_14oneiros_engine7domains6bridge5model18collect_unresolvedNCNvNtB2_5testss_35collect_unresolved_with_cached_leaf0EB8_
FNDA:1,_RINvNtNtNtCsk2dDpYChjKI_14oneiros_engine7domains6bridge5model18collect_unresolvedNCNvNtB2_5testss_37collect_unresolved_with_uncached_root0EB8_
FNDA:1,_RINvNtNtNtCsk2dDpYChjKI_14oneiros_engine7domains6bridge5model18collect_unresolvedNCNvNtB2_5testss_38collect_unresolved_with_matching_roots0EB8_
FNDA:1,_RINvNtNtNtCsk2dDpYChjKI_14oneiros_engine7domains6bridge5model18collect_unresolvedNCNvNtB2_5testss_56collect_unresolved_with_interior_skips_matching_children0EB8_
FNDA:10,_RNCINvMNtNtNtCsk2dDpYChjKI_14oneiros_engine7domains6bridge5modelNtB5_6Bridge4diffNCNCNvMNtNtB9_8bookmark7serviceNtB1o_15BookmarkService17collect_from_peer00E0Bb_
FNDA:746,_RNCINvNtNtNtCsk2dDpYChjKI_14oneiros_engine7domains6bridge5model18collect_unresolvedNCNCNvMNtNtB8_8bookmark7serviceNtB1q_15BookmarkService17collect_from_peer00E0Ba_
FNDA:813,_RNCINvNtNtNtCsk2dDpYChjKI_14oneiros_engine7domains6bridge5model18collect_unresolvedNCNCNvMNtNtB8_8bookmark7serviceNtB1q_15BookmarkService17collect_from_peer00Es_0Ba_
FNDA:0,_RNCINvNtNtNtCsk2dDpYChjKI_14oneiros_engine7domains6bridge5model18collect_unresolvedNCNvNtB4_5testss_35collect_unresolved_with_cached_leaf0E0Ba_
FNDA:0,_RNCINvNtNtNtCsk2dDpYChjKI_14oneiros_engine7domains6bridge5model18collect_unresolvedNCNvNtB4_5testss_35collect_unresolved_with_cached_leaf0Es_0Ba_
FNDA:0,_RNCINvNtNtNtCsk2dDpYChjKI_14oneiros_engine7domains6bridge5model18collect_unresolvedNCNvNtB4_5testss_37collect_unresolved_with_uncached_root0E0Ba_
FNDA:0,_RNCINvNtNtNtCsk2dDpYChjKI_14oneiros_engine7domains6bridge5model18collect_unresolvedNCNvNtB4_5testss_37collect_unresolved_with_uncached_root0Es_0Ba_
FNDA:0,_RNCINvNtNtNtCsk2dDpYChjKI_14oneiros_engine7domains6bridge5model18collect_unresolvedNCNvNtB4_5testss_38collect_unresolved_with_matching_roots0E0Ba_
FNDA:0,_RNCINvNtNtNtCsk2dDpYChjKI_14oneiros_engine7domains6bridge5model18collect_unresolvedNCNvNtB4_5testss_38collect_unresolved_with_matching_roots0Es_0Ba_
FNDA:1,_RNCINvNtNtNtCsk2dDpYChjKI_14oneiros_engine7domains6bridge5model18collect_unresolvedNCNvNtB4_5testss_56collect_unresolved_with_interior_skips_matching_children0E0Ba_
FNDA:2,_RNCINvNtNtNtCsk2dDpYChjKI_14oneiros_engine7domains6bridge5model18collect_unresolvedNCNvNtB4_5testss_56collect_unresolved_with_interior_skips_matching_children0Es_0Ba_
FNDA:317,_RNCNCINvMNtNtNtCsk2dDpYChjKI_14oneiros_engine7domains6bridge5modelNtB7_6Bridge4diffNCNCNvMNtNtBb_8bookmark7serviceNtB1q_15BookmarkService17collect_from_peer00E00Bd_
FNDA:713,_RNCNCINvMNtNtNtCsk2dDpYChjKI_14oneiros_engine7domains6bridge5modelNtB7_6Bridge4diffNCNCNvMNtNtBb_8bookmark7serviceNtB1q_15BookmarkService17collect_from_peer00E0s_0Bd_
FNDA:746,_RNCNCINvNtNtNtCsk2dDpYChjKI_14oneiros_engine7domains6bridge5model18collect_unresolvedNCNCNvMNtNtBa_8bookmark7serviceNtB1s_15BookmarkService17collect_from_peer00E00Bc_
FNDA:0,_RNCNCINvNtNtNtCsk2dDpYChjKI_14oneiros_engine7domains6bridge5model18collect_unresolvedNCNvNtB6_5testss_35collect_unresolved_with_cached_leaf0E00Bc_
FNDA:0,_RNCNCINvNtNtNtCsk2dDpYChjKI_14oneiros_engine7domains6bridge5model18collect_unresolvedNCNvNtB6_5testss_37collect_unresolved_with_uncached_root0E00Bc_
FNDA:0,_RNCNCINvNtNtNtCsk2dDpYChjKI_14oneiros_engine7domains6bridge5model18collect_unresolvedNCNvNtB6_5testss_38collect_unresolved_with_matching_roots0E00Bc_
FNDA:1,_RNCNCINvNtNtNtCsk2dDpYChjKI_14oneiros_engine7domains6bridge5model18collect_unresolvedNCNvNtB6_5testss_56collect_unresolved_with_interior_skips_matching_children0E00Bc_
FNDA:155,_RNCNCNCINvMNtNtNtCsk2dDpYChjKI_14oneiros_engine7domains6bridge5modelNtB9_6Bridge4diffNCNCNvMNtNtBd_8bookmark7serviceNtB1s_15BookmarkService17collect_from_peer00E000Bf_
FNDA:0,_RNCNCNvMNtNtNtCsk2dDpYChjKI_14oneiros_engine7domains6bridge5modelNtB6_6Bridge4bind00Bc_
FNDA:0,_RNCNCNvMNtNtNtCsk2dDpYChjKI_14oneiros_engine7domains6bridge5modelNtB6_6Bridge4send00Bc_
FNDA:9,_RNCNvMNtNtNtCsk2dDpYChjKI_14oneiros_engine7domains6bridge5modelNtB4_6Bridge12fetch_events0Ba_
FNDA:308,_RNCNvMNtNtNtCsk2dDpYChjKI_14oneiros_engine7domains6bridge5modelNtB4_6Bridge4bind0Ba_
FNDA:127,_RNCNvMNtNtNtCsk2dDpYChjKI_14oneiros_engine7domains6bridge5modelNtB4_6Bridge4send0Ba_
FNDA:127,_RNCNvMNtNtNtCsk2dDpYChjKI_14oneiros_engine7domains6bridge5modelNtB4_6Bridge8exchange0Ba_
FNDA:4,_RNCNvMNtNtNtCsk2dDpYChjKI_14oneiros_engine7domains6bridge5modelNtB4_6Bridge8shutdown0Ba_
FNDA:9,_RNvMNtNtNtCsk2dDpYChjKI_14oneiros_engine7domains6bridge5modelNtB2_6Bridge12fetch_events
FNDA:11,_RNvMNtNtNtCsk2dDpYChjKI_14oneiros_engine7domains6bridge5modelNtB2_6Bridge13host_identity
FNDA:15,_RNvMNtNtNtCsk2dDpYChjKI_14oneiros_engine7domains6bridge5modelNtB2_6Bridge3key
FNDA:308,_RNvMNtNtNtCsk2dDpYChjKI_14oneiros_engine7domains6bridge5modelNtB2_6Bridge4bind
FNDA:127,_RNvMNtNtNtCsk2dDpYChjKI_14oneiros_engine7domains6bridge5modelNtB2_6Bridge4send
FNDA:304,_RNvMNtNtNtCsk2dDpYChjKI_14oneiros_engine7domains6bridge5modelNtB2_6Bridge5serve
FNDA:11,_RNvMNtNtNtCsk2dDpYChjKI_14oneiros_engine7domains6bridge5modelNtB2_6Bridge7address
FNDA:127,_RNvMNtNtNtCsk2dDpYChjKI_14oneiros_engine7domains6bridge5modelNtB2_6Bridge8exchange
FNDA:4,_RNvMNtNtNtCsk2dDpYChjKI_14oneiros_engine7domains6bridge5modelNtB2_6Bridge8shutdown
FNDA:1,_RNvNtNtNtNtCsk2dDpYChjKI_14oneiros_engine7domains6bridge5model5testss_27bridge_binds_with_fresh_key
FNDA:1,_RNvNtNtNtNtCsk2dDpYChjKI_14oneiros_engine7domains6bridge5model5testss_28bridge_exposes_host_identity
FNDA:1,_RNvNtNtNtNtCsk2dDpYChjKI_14oneiros_engine7domains6bridge5model5testss_30two_bridges_have_distinct_keys
FNDA:1,_RNvNtNtNtNtCsk2dDpYChjKI_14oneiros_engine7domains6bridge5model5testss_35collect_unresolved_with_cached_leaf
FNDA:1,_RNvNtNtNtNtCsk2dDpYChjKI_14oneiros_engine7domains6bridge5model5testss_37collect_unresolved_with_uncached_root
FNDA:1,_RNvNtNtNtNtCsk2dDpYChjKI_14oneiros_engine7domains6bridge5model5testss_38collect_unresolved_with_matching_roots
FNDA:1,_RNvNtNtNtNtCsk2dDpYChjKI_14oneiros_engine7domains6bridge5model5testss_56collect_unresolved_with_interior_skips_matching_children
FNDA:1,_RNCNvNtNtNtNtCsk2dDpYChjKI_14oneiros_engine7domains6bridge5model5testss_27bridge_binds_with_fresh_key0Bb_
FNDA:1,_RNCNvNtNtNtNtCsk2dDpYChjKI_14oneiros_engine7domains6bridge5model5testss_28bridge_exposes_host_identity0Bb_
FNDA:1,_RNCNvNtNtNtNtCsk2dDpYChjKI_14oneiros_engine7domains6bridge5model5testss_30two_bridges_have_distinct_keys0Bb_
FNDA:1,_RNCNvNtNtNtNtCsk2dDpYChjKI_14oneiros_engine7domains6bridge5model5testss_56collect_unresolved_with_interior_skips_matching_children0Bb_
FNF:37
FNH:34
DA:37,308
DA:38,308
DA:39,308
DA:40,308
DA:41,308
DA:42,308
DA:43,308
DA:44,308
DA:46,308
DA:48,308
DA:49,308
DA:50,308
DA:51,308
DA:52,308
DA:53,308
DA:57,304
DA:58,304
DA:59,0
DA:60,304
DA:61,304
DA:62,304
DA:63,304
DA:64,304
DA:65,304
DA:66,304
DA:74,10
DA:75,10
DA:76,10
DA:77,10
DA:78,10
DA:79,10
DA:80,10
DA:82,10
DA:83,10
DA:84,10
DA:85,10
DA:86,10
DA:88,10
DA:89,0
DA:90,0
DA:91,0
DA:92,0
DA:93,10
DA:94,10
DA:97,10
DA:98,10
DA:102,118
DA:103,118
DA:105,118
DA:106,10
DA:107,108
DA:109,108
DA:110,108
DA:111,108
DA:112,108
DA:113,108
DA:115,108
DA:116,108
DA:117,150
DA:118,150
DA:119,150
DA:121,0
DA:122,0
DA:125,0
DA:126,0
DA:127,0
DA:133,10
DA:134,317
DA:136,10
DA:138,10
DA:139,10
DA:140,713
DA:141,368
DA:142,345
DA:143,713
DA:144,10
DA:146,10
DA:147,10
DA:148,10
DA:149,10
DA:151,0
DA:152,0
DA:154,10
DA:158,9
DA:159,9
DA:160,9
DA:161,9
DA:162,9
DA:163,9
DA:165,9
DA:166,9
DA:167,0
DA:168,0
DA:169,0
DA:171,9
DA:175,15
DA:176,15
DA:177,15
DA:180,11
DA:181,11
DA:182,22
DA:183,22
DA:184,22
DA:185,11
DA:186,11
DA:189,11
DA:190,11
DA:191,11
DA:195,4
DA:196,4
DA:197,4
DA:200,127
DA:201,127
DA:202,127
DA:203,127
DA:204,127
DA:205,127
DA:206,127
DA:208,127
DA:209,0
DA:210,127
DA:212,127
DA:213,127
DA:214,127
DA:218,127
DA:219,127
DA:220,127
DA:221,127
DA:222,127
DA:223,127
DA:224,127
DA:225,127
DA:226,127
DA:228,127
DA:231,127
DA:232,127
DA:233,127
DA:234,127
DA:235,127
DA:238,127
DA:239,127
DA:240,127
DA:242,127
DA:243,127
DA:245,127
DA:246,127
DA:254,122
DA:255,122
DA:256,122
DA:257,122
DA:258,122
DA:259,122
DA:260,122
DA:263,122
DA:264,122
DA:266,1076
DA:268,954
DA:269,1
DA:270,953
DA:273,953
DA:274,152
DA:275,152
DA:278,801
DA:279,52
DA:280,52
DA:281,52
DA:283,749
DA:286,749
DA:287,747
DA:288,745
DA:289,2
DA:290,747
DA:291,747
DA:293,843
DA:294,843
DA:296,843
DA:297,11
DA:298,832
DA:300,832
DA:306,122
DA:307,122
DA:310,0
DA:311,0
DA:312,0
DA:313,0
DA:314,0
DA:322,1
DA:323,1
DA:324,1
DA:326,1
DA:327,1
DA:329,1
DA:330,1
DA:333,1
DA:334,1
DA:335,1
DA:337,1
DA:338,1
DA:340,1
DA:341,1
DA:344,1
DA:345,1
DA:346,1
DA:348,1
DA:350,1
DA:351,1
DA:352,1
DA:355,1
DA:356,1
DA:357,1
DA:358,1
DA:359,1
DA:362,1
DA:363,1
DA:364,1
DA:365,1
DA:366,1
DA:367,1
DA:368,1
DA:371,1
DA:374,1
DA:375,1
DA:377,1
DA:378,1
DA:379,1
DA:380,1
DA:381,1
DA:382,1
DA:385,1
DA:386,1
DA:387,1
DA:390,1
DA:393,1
DA:396,1
DA:397,1
DA:399,1
DA:400,1
DA:402,1
DA:403,1
DA:404,1
DA:406,1
DA:407,1
DA:408,1
DA:410,1
DA:411,1
DA:413,1
DA:414,1
DA:415,1
DA:416,1
DA:417,1
DA:418,1
DA:420,0
DA:422,1
DA:425,1
DA:426,1
DA:427,1
DA:428,1
BRF:0
BRH:0
LF:276
LH:251
end_of_record
SF:/Users/esmevane/Code/projects/oneiros/crates/oneiros-engine/src/domains/bridge/protocol/errors.rs
FN:35,_RNvXNtNtNtNtCsk2dDpYChjKI_14oneiros_engine7domains6bridge8protocol6errorsNtB2_8BridgeOpNtNtCsl8K0bEFm1U0_4core3fmt7Display3fmt
FN:74,_RNvXs0_NtNtNtNtCsk2dDpYChjKI_14oneiros_engine7domains6bridge8protocol6errorsNtB5_10OpaquePeerNtNtCsl8K0bEFm1U0_4core3fmt7Display3fmt
FN:140,_RNvXs1_NtNtNtNtCsk2dDpYChjKI_14oneiros_engine7domains6bridge8protocol6errorsNtB5_11BridgeErrorINtNtCsl8K0bEFm1U0_4core7convert4FromNtNtNtBb_6ticket5model13TicketInvalidE4from
FN:68,_RNvXs_NtNtNtNtCsk2dDpYChjKI_14oneiros_engine7domains6bridge8protocol6errorsNtB4_10OpaquePeerINtNtCsl8K0bEFm1U0_4core7convert4FromNtNtCs1OjIl8oxbrv_5alloc6string6StringE4from
FNDA:0,_RNvXNtNtNtNtCsk2dDpYChjKI_14oneiros_engine7domains6bridge8protocol6errorsNtB2_8BridgeOpNtNtCsl8K0bEFm1U0_4core3fmt7Display3fmt
FNDA:0,_RNvXs0_NtNtNtNtCsk2dDpYChjKI_14oneiros_engine7domains6bridge8protocol6errorsNtB5_10OpaquePeerNtNtCsl8K0bEFm1U0_4core3fmt7Display3fmt
FNDA:0,_RNvXs1_NtNtNtNtCsk2dDpYChjKI_14oneiros_engine7domains6bridge8protocol6errorsNtB5_11BridgeErrorINtNtCsl8K0bEFm1U0_4core7convert4FromNtNtNtBb_6ticket5model13TicketInvalidE4from
FNDA:0,_RNvXs_NtNtNtNtCsk2dDpYChjKI_14oneiros_engine7domains6bridge8protocol6errorsNtB4_10OpaquePeerINtNtCsl8K0bEFm1U0_4core7convert4FromNtNtCs1OjIl8oxbrv_5alloc6string6StringE4from
FNF:4
FNH:0
DA:35,0
DA:36,0
DA:37,0
DA:38,0
DA:39,0
DA:41,0
DA:68,0
DA:69,0
DA:70,0
DA:74,0
DA:75,0
DA:76,0
DA:140,0
DA:141,0
DA:142,0
BRF:0
BRH:0
LF:15
LH:0
end_of_record
SF:/Users/esmevane/Code/projects/oneiros/crates/oneiros-engine/src/domains/bridge/protocol/requests.rs
FN:82,_RNvNtNtNtNtNtCsk2dDpYChjKI_14oneiros_engine7domains6bridge8protocol8requests5tests11sample_diff
FN:96,_RNvNtNtNtNtNtCsk2dDpYChjKI_14oneiros_engine7domains6bridge8protocol8requests5tests12sample_fetch
FN:89,_RNvNtNtNtNtNtCsk2dDpYChjKI_14oneiros_engine7domains6bridge8protocol8requests5tests14sample_resolve
FN:136,_RNvNtNtNtNtNtCsk2dDpYChjKI_14oneiros_engine7domains6bridge8protocol8requests5testss_28diff_request_variant_matches
FN:142,_RNvNtNtNtNtNtCsk2dDpYChjKI_14oneiros_engine7domains6bridge8protocol8requests5testss_31resolve_request_variant_matches
FN:104,_RNvNtNtNtNtNtCsk2dDpYChjKI_14oneiros_engine7domains6bridge8protocol8requests5testss_36diff_request_roundtrip_through_bytes
FN:120,_RNvNtNtNtNtNtCsk2dDpYChjKI_14oneiros_engine7domains6bridge8protocol8requests5testss_37fetch_request_roundtrip_through_bytes
FN:112,_RNvNtNtNtNtNtCsk2dDpYChjKI_14oneiros_engine7domains6bridge8protocol8requests5testss_39resolve_request_roundtrip_through_bytes
FN:128,_RNvNtNtNtNtNtCsk2dDpYChjKI_14oneiros_engine7domains6bridge8protocol8requests5testss_41diff_request_roundtrip_through_serde_json
FN:72,_RNvMNtNtNtNtCsk2dDpYChjKI_14oneiros_engine7domains6bridge8protocol8requestsNtB2_13BridgeRequest10from_bytes
FN:67,_RNvMNtNtNtNtCsk2dDpYChjKI_14oneiros_engine7domains6bridge8protocol8requestsNtB2_13BridgeRequest8to_bytes
FNDA:3,_RNvNtNtNtNtNtCsk2dDpYChjKI_14oneiros_engine7domains6bridge8protocol8requests5tests11sample_diff
FNDA:1,_RNvNtNtNtNtNtCsk2dDpYChjKI_14oneiros_engine7domains6bridge8protocol8requests5tests12sample_fetch
FNDA:2,_RNvNtNtNtNtNtCsk2dDpYChjKI_14oneiros_engine7domains6bridge8protocol8requests5tests14sample_resolve
FNDA:1,_RNvNtNtNtNtNtCsk2dDpYChjKI_14oneiros_engine7domains6bridge8protocol8requests5testss_28diff_request_variant_matches
FNDA:1,_RNvNtNtNtNtNtCsk2dDpYChjKI_14oneiros_engine7domains6bridge8protocol8requests5testss_31resolve_request_variant_matches
FNDA:1,_RNvNtNtNtNtNtCsk2dDpYChjKI_14oneiros_engine7domains6bridge8protocol8requests5testss_36diff_request_roundtrip_through_bytes
FNDA:1,_RNvNtNtNtNtNtCsk2dDpYChjKI_14oneiros_engine7domains6bridge8protocol8requests5testss_37fetch_request_roundtrip_through_bytes
FNDA:1,_RNvNtNtNtNtNtCsk2dDpYChjKI_14oneiros_engine7domains6bridge8protocol8requests5testss_39resolve_request_roundtrip_through_bytes
FNDA:1,_RNvNtNtNtNtNtCsk2dDpYChjKI_14oneiros_engine7domains6bridge8protocol8requests5testss_41diff_request_roundtrip_through_serde_json
FNDA:130,_RNvMNtNtNtNtCsk2dDpYChjKI_14oneiros_engine7domains6bridge8protocol8requestsNtB2_13BridgeRequest10from_bytes
FNDA:130,_RNvMNtNtNtNtCsk2dDpYChjKI_14oneiros_engine7domains6bridge8protocol8requestsNtB2_13BridgeRequest8to_bytes
FNF:11
FNH:11
DA:67,130
DA:68,130
DA:69,130
DA:72,130
DA:73,130
DA:74,130
DA:82,3
DA:83,3
DA:84,3
DA:85,3
DA:86,3
DA:87,3
DA:89,2
DA:90,2
DA:91,2
DA:92,2
DA:93,2
DA:94,2
DA:96,1
DA:97,1
DA:98,1
DA:99,1
DA:100,1
DA:101,1
DA:104,1
DA:105,1
DA:106,1
DA:107,1
DA:108,1
DA:109,1
DA:112,1
DA:113,1
DA:114,1
DA:115,1
DA:116,1
DA:117,1
DA:120,1
DA:121,1
DA:122,1
DA:123,1
DA:124,1
DA:125,1
DA:128,1
DA:129,1
DA:130,1
DA:131,1
DA:132,1
DA:133,1
DA:136,1
DA:137,1
DA:138,1
DA:139,1
DA:142,1
DA:143,1
DA:144,1
DA:145,1
BRF:0
BRH:0
LF:56
LH:56
end_of_record
SF:/Users/esmevane/Code/projects/oneiros/crates/oneiros-engine/src/domains/bridge/protocol/responses.rs
FN:70,_RNvMNtNtNtNtCsk2dDpYChjKI_14oneiros_engine7domains6bridge8protocol9responsesNtB2_14BridgeResponse10from_bytes
FN:65,_RNvMNtNtNtNtCsk2dDpYChjKI_14oneiros_engine7domains6bridge8protocol9responsesNtB2_14BridgeResponse8to_bytes
FN:76,_RNvMNtNtNtNtCsk2dDpYChjKI_14oneiros_engine7domains6bridge8protocol9responsesNtB2_14BridgeResponse9is_denied
FN:146,_RNvNtNtNtNtNtCsk2dDpYChjKI_14oneiros_engine7domains6bridge8protocol9responses5testss_21current_is_not_denied
FN:114,_RNvNtNtNtNtNtCsk2dDpYChjKI_14oneiros_engine7domains6bridge8protocol9responses5testss_24nodes_response_roundtrip
FN:132,_RNvNtNtNtNtNtCsk2dDpYChjKI_14oneiros_engine7domains6bridge8protocol9responses5testss_25denied_response_roundtrip
FN:88,_RNvNtNtNtNtNtCsk2dDpYChjKI_14oneiros_engine7domains6bridge8protocol9responses5testss_26current_response_roundtrip
FN:96,_RNvNtNtNtNtNtCsk2dDpYChjKI_14oneiros_engine7domains6bridge8protocol9responses5testss_28root_node_response_roundtrip
FNDA:131,_RNvMNtNtNtNtCsk2dDpYChjKI_14oneiros_engine7domains6bridge8protocol9responsesNtB2_14BridgeResponse10from_bytes
FNDA:131,_RNvMNtNtNtNtCsk2dDpYChjKI_14oneiros_engine7domains6bridge8protocol9responsesNtB2_14BridgeResponse8to_bytes
FNDA:2,_RNvMNtNtNtNtCsk2dDpYChjKI_14oneiros_engine7domains6bridge8protocol9responsesNtB2_14BridgeResponse9is_denied
FNDA:1,_RNvNtNtNtNtNtCsk2dDpYChjKI_14oneiros_engine7domains6bridge8protocol9responses5testss_21current_is_not_denied
FNDA:1,_RNvNtNtNtNtNtCsk2dDpYChjKI_14oneiros_engine7domains6bridge8protocol9responses5testss_24nodes_response_roundtrip
FNDA:1,_RNvNtNtNtNtNtCsk2dDpYChjKI_14oneiros_engine7domains6bridge8protocol9responses5testss_25denied_response_roundtrip
FNDA:1,_RNvNtNtNtNtNtCsk2dDpYChjKI_14oneiros_engine7domains6bridge8protocol9responses5testss_26current_response_roundtrip
FNDA:1,_RNvNtNtNtNtNtCsk2dDpYChjKI_14oneiros_engine7domains6bridge8protocol9responses5testss_28root_node_response_roundtrip
FNF:8
FNH:8
DA:65,131
DA:66,131
DA:67,131
DA:70,131
DA:71,131
DA:72,131
DA:76,2
DA:77,2
DA:78,2
DA:88,1
DA:89,1
DA:90,1
DA:91,1
DA:92,1
DA:93,1
DA:96,1
DA:97,1
DA:98,1
DA:99,1
DA:100,1
DA:101,1
DA:102,1
DA:103,1
DA:104,1
DA:105,1
DA:106,1
DA:107,1
DA:109,0
DA:111,1
DA:114,1
DA:115,1
DA:116,1
DA:117,1
DA:118,1
DA:119,1
DA:120,1
DA:121,1
DA:122,1
DA:123,1
DA:124,1
DA:125,1
DA:126,1
DA:127,0
DA:129,1
DA:132,1
DA:133,1
DA:134,1
DA:135,1
DA:136,1
DA:137,1
DA:138,1
DA:139,1
DA:140,1
DA:141,0
DA:143,1
DA:146,1
DA:147,1
DA:148,1
BRF:0
BRH:0
LF:58
LH:55
end_of_record
SF:/Users/esmevane/Code/projects/oneiros/crates/oneiros-engine/src/domains/bridge/service.rs
FN:42,_RNvMs_NtNtNtCsk2dDpYChjKI_14oneiros_engine7domains6bridge7serviceNtB4_11SyncHandler11handle_diff
FN:71,_RNvMs_NtNtNtCsk2dDpYChjKI_14oneiros_engine7domains6bridge7serviceNtB4_11SyncHandler14handle_resolve
FN:23,_RNvMs_NtNtNtCsk2dDpYChjKI_14oneiros_engine7domains6bridge7serviceNtB4_11SyncHandler15validate_ticket
FN:92,_RNvMs_NtNtNtCsk2dDpYChjKI_14oneiros_engine7domains6bridge7serviceNtB4_11SyncHandler19handle_fetch_events
FN:19,_RNvMs_NtNtNtCsk2dDpYChjKI_14oneiros_engine7domains6bridge7serviceNtB4_11SyncHandler3new
FN:187,_RNvNtNtNtCsk2dDpYChjKI_14oneiros_engine7domains6bridge7service14write_response
FN:13,_RNvXNtNtNtCsk2dDpYChjKI_14oneiros_engine7domains6bridge7serviceNtB2_11SyncHandlerNtNtCsl8K0bEFm1U0_4core3fmt5Debug3fmt
FN:120,_RNvXs0_NtNtNtCsk2dDpYChjKI_14oneiros_engine7domains6bridge7serviceNtB5_11SyncHandlerNtNtCs2XrvaUZZOXL_4iroh8protocol15ProtocolHandler6accept
FN:86,_RNCNCNCNvMs_NtNtNtCsk2dDpYChjKI_14oneiros_engine7domains6bridge7serviceNtBa_11SyncHandler14handle_resolve000Bg_
FN:86,_RNCNCNvMs_NtNtNtCsk2dDpYChjKI_14oneiros_engine7domains6bridge7serviceNtB8_11SyncHandler14handle_resolve00Be_
FN:110,_RNCNCNvMs_NtNtNtCsk2dDpYChjKI_14oneiros_engine7domains6bridge7serviceNtB8_11SyncHandler19handle_fetch_events00Be_
FN:196,_RNCNCNvNtNtNtCsk2dDpYChjKI_14oneiros_engine7domains6bridge7service14write_response00Bb_
FN:150,_RNCNCNvXs0_NtNtNtCsk2dDpYChjKI_14oneiros_engine7domains6bridge7serviceNtB9_11SyncHandlerNtNtCs2XrvaUZZOXL_4iroh8protocol15ProtocolHandler6accept00Bf_
FN:164,_RNCNCNvXs0_NtNtNtCsk2dDpYChjKI_14oneiros_engine7domains6bridge7serviceNtB9_11SyncHandlerNtNtCs2XrvaUZZOXL_4iroh8protocol15ProtocolHandler6accept0s0_0Bf_
FN:157,_RNCNCNvXs0_NtNtNtCsk2dDpYChjKI_14oneiros_engine7domains6bridge7serviceNtB9_11SyncHandlerNtNtCs2XrvaUZZOXL_4iroh8protocol15ProtocolHandler6accept0s_0Bf_
FN:42,_RNCNvMs_NtNtNtCsk2dDpYChjKI_14oneiros_engine7domains6bridge7serviceNtB6_11SyncHandler11handle_diff0Bc_
FN:74,_RNCNvMs_NtNtNtCsk2dDpYChjKI_14oneiros_engine7domains6bridge7serviceNtB6_11SyncHandler14handle_resolve0Bc_
FN:27,_RNCNvMs_NtNtNtCsk2dDpYChjKI_14oneiros_engine7domains6bridge7serviceNtB6_11SyncHandler15validate_ticket0Bc_
FN:95,_RNCNvMs_NtNtNtCsk2dDpYChjKI_14oneiros_engine7domains6bridge7serviceNtB6_11SyncHandler19handle_fetch_events0Bc_
FN:190,_RNCNvNtNtNtCsk2dDpYChjKI_14oneiros_engine7domains6bridge7service14write_response0B9_
FN:123,_RNCNvXs0_NtNtNtCsk2dDpYChjKI_14oneiros_engine7domains6bridge7serviceNtB7_11SyncHandlerNtNtCs2XrvaUZZOXL_4iroh8protocol15ProtocolHandler6accept0Bd_
FNDA:10,_RNvMs_NtNtNtCsk2dDpYChjKI_14oneiros_engine7domains6bridge7serviceNtB4_11SyncHandler11handle_diff
FNDA:108,_RNvMs_NtNtNtCsk2dDpYChjKI_14oneiros_engine7domains6bridge7serviceNtB4_11SyncHandler14handle_resolve
FNDA:127,_RNvMs_NtNtNtCsk2dDpYChjKI_14oneiros_engine7domains6bridge7serviceNtB4_11SyncHandler15validate_ticket
FNDA:9,_RNvMs_NtNtNtCsk2dDpYChjKI_14oneiros_engine7domains6bridge7serviceNtB4_11SyncHandler19handle_fetch_events
FNDA:304,_RNvMs_NtNtNtCsk2dDpYChjKI_14oneiros_engine7domains6bridge7serviceNtB4_11SyncHandler3new
FNDA:127,_RNvNtNtNtCsk2dDpYChjKI_14oneiros_engine7domains6bridge7service14write_response
FNDA:0,_RNvXNtNtNtCsk2dDpYChjKI_14oneiros_engine7domains6bridge7serviceNtB2_11SyncHandlerNtNtCsl8K0bEFm1U0_4core3fmt5Debug3fmt
FNDA:127,_RNvXs0_NtNtNtCsk2dDpYChjKI_14oneiros_engine7domains6bridge7serviceNtB5_11SyncHandlerNtNtCs2XrvaUZZOXL_4iroh8protocol15ProtocolHandler6accept
FNDA:150,_RNCNCNCNvMs_NtNtNtCsk2dDpYChjKI_14oneiros_engine7domains6bridge7serviceNtBa_11SyncHandler14handle_resolve000Bg_
FNDA:150,_RNCNCNvMs_NtNtNtCsk2dDpYChjKI_14oneiros_engine7domains6bridge7serviceNtB8_11SyncHandler14handle_resolve00Be_
FNDA:368,_RNCNCNvMs_NtNtNtCsk2dDpYChjKI_14oneiros_engine7domains6bridge7serviceNtB8_11SyncHandler19handle_fetch_events00Be_
FNDA:0,_RNCNCNvNtNtNtCsk2dDpYChjKI_14oneiros_engine7domains6bridge7service14write_response00Bb_
FNDA:0,_RNCNCNvXs0_NtNtNtCsk2dDpYChjKI_14oneiros_engine7domains6bridge7serviceNtB9_11SyncHandlerNtNtCs2XrvaUZZOXL_4iroh8protocol15ProtocolHandler6accept00Bf_
FNDA:0,_RNCNCNvXs0_NtNtNtCsk2dDpYChjKI_14oneiros_engine7domains6bridge7serviceNtB9_11SyncHandlerNtNtCs2XrvaUZZOXL_4iroh8protocol15ProtocolHandler6accept0s0_0Bf_
FNDA:0,_RNCNCNvXs0_NtNtNtCsk2dDpYChjKI_14oneiros_engine7domains6bridge7serviceNtB9_11SyncHandlerNtNtCs2XrvaUZZOXL_4iroh8protocol15ProtocolHandler6accept0s_0Bf_
FNDA:10,_RNCNvMs_NtNtNtCsk2dDpYChjKI_14oneiros_engine7domains6bridge7serviceNtB6_11SyncHandler11handle_diff0Bc_
FNDA:108,_RNCNvMs_NtNtNtCsk2dDpYChjKI_14oneiros_engine7domains6bridge7serviceNtB6_11SyncHandler14handle_resolve0Bc_
FNDA:127,_RNCNvMs_NtNtNtCsk2dDpYChjKI_14oneiros_engine7domains6bridge7serviceNtB6_11SyncHandler15validate_ticket0Bc_
FNDA:9,_RNCNvMs_NtNtNtCsk2dDpYChjKI_14oneiros_engine7domains6bridge7serviceNtB6_11SyncHandler19handle_fetch_events0Bc_
FNDA:127,_RNCNvNtNtNtCsk2dDpYChjKI_14oneiros_engine7domains6bridge7service14write_response0B9_
FNDA:127,_RNCNvXs0_NtNtNtCsk2dDpYChjKI_14oneiros_engine7domains6bridge7serviceNtB7_11SyncHandlerNtNtCs2XrvaUZZOXL_4iroh8protocol15ProtocolHandler6accept0Bd_
FNF:21
FNH:16
DA:13,0
DA:14,0
DA:15,0
DA:19,304
DA:20,304
DA:21,304
DA:23,127
DA:24,127
DA:25,127
DA:26,127
DA:27,127
DA:28,127
DA:29,127
DA:30,127
DA:31,127
DA:33,127
DA:34,0
DA:35,127
DA:37,127
DA:39,127
DA:40,127
DA:42,10
DA:43,10
DA:44,10
DA:45,10
DA:46,10
DA:49,10
DA:50,0
DA:51,10
DA:54,10
DA:55,0
DA:59,10
DA:60,10
DA:61,10
DA:63,10
DA:65,10
DA:66,10
DA:67,10
DA:68,10
DA:69,10
DA:71,108
DA:72,108
DA:73,108
DA:74,108
DA:75,108
DA:76,108
DA:79,108
DA:80,108
DA:81,108
DA:83,108
DA:84,108
DA:85,108
DA:86,150
DA:87,108
DA:89,108
DA:90,108
DA:92,9
DA:93,9
DA:94,9
DA:95,9
DA:96,9
DA:97,9
DA:101,9
DA:102,9
DA:105,9
DA:107,9
DA:108,9
DA:109,9
DA:110,368
DA:111,9
DA:113,9
DA:115,9
DA:116,9
DA:120,127
DA:121,127
DA:122,127
DA:123,127
DA:124,127
DA:125,127
DA:126,127
DA:127,127
DA:130,127
DA:131,127
DA:132,127
DA:133,127
DA:134,127
DA:135,127
DA:136,0
DA:137,0
DA:138,0
DA:139,0
DA:140,0
DA:141,0
DA:142,127
DA:143,127
DA:144,127
DA:145,127
DA:146,127
DA:148,127
DA:149,10
DA:150,10
DA:151,0
DA:152,0
DA:153,0
DA:154,0
DA:156,108
DA:157,108
DA:158,0
DA:159,0
DA:160,0
DA:161,0
DA:163,9
DA:164,9
DA:165,0
DA:166,0
DA:167,0
DA:168,0
DA:170,0
DA:171,0
DA:172,0
DA:175,127
DA:176,0
DA:177,0
DA:178,0
DA:179,127
DA:181,127
DA:183,127
DA:184,127
DA:187,127
DA:188,127
DA:189,127
DA:190,127
DA:191,127
DA:192,127
DA:193,127
DA:194,127
DA:195,127
DA:196,127
DA:197,127
DA:198,127
BRF:0
BRH:0
LF:153
LH:119
end_of_record
SF:/Users/esmevane/Code/projects/oneiros/crates/oneiros-engine/src/domains/chronicle/store.rs
FN:50,_RNCNvMNtNtNtCsk2dDpYChjKI_14oneiros_engine7domains9chronicle5storeNtB4_14ChronicleStore3get0Ba_
FN:63,_RNCNvMNtNtNtCsk2dDpYChjKI_14oneiros_engine7domains9chronicle5storeNtB4_14ChronicleStore6writer0Ba_
FN:58,_RNCNvMNtNtNtCsk2dDpYChjKI_14oneiros_engine7domains9chronicle5storeNtB4_14ChronicleStore8resolver0Ba_
FN:43,_RNvMNtNtNtCsk2dDpYChjKI_14oneiros_engine7domains9chronicle5storeNtB2_14ChronicleStore3get
FN:14,_RNvMNtNtNtCsk2dDpYChjKI_14oneiros_engine7domains9chronicle5storeNtB2_14ChronicleStore3new
FN:30,_RNvMNtNtNtCsk2dDpYChjKI_14oneiros_engine7domains9chronicle5storeNtB2_14ChronicleStore3put
FN:62,_RNvMNtNtNtCsk2dDpYChjKI_14oneiros_engine7domains9chronicle5storeNtB2_14ChronicleStore6writer
FN:18,_RNvMNtNtNtCsk2dDpYChjKI_14oneiros_engine7domains9chronicle5storeNtB2_14ChronicleStore7migrate
FN:57,_RNvMNtNtNtCsk2dDpYChjKI_14oneiros_engine7domains9chronicle5storeNtB2_14ChronicleStore8resolver
FNDA:39041,_RNCNvMNtNtNtCsk2dDpYChjKI_14oneiros_engine7domains9chronicle5storeNtB4_14ChronicleStore3get0Ba_
FNDA:39703,_RNCNvMNtNtNtCsk2dDpYChjKI_14oneiros_engine7domains9chronicle5storeNtB4_14ChronicleStore6writer0Ba_
FNDA:37807,_RNCNvMNtNtNtCsk2dDpYChjKI_14oneiros_engine7domains9chronicle5storeNtB4_14ChronicleStore8resolver0Ba_
FNDA:39045,_RNvMNtNtNtCsk2dDpYChjKI_14oneiros_engine7domains9chronicle5storeNtB2_14ChronicleStore3get
FNDA:6881,_RNvMNtNtNtCsk2dDpYChjKI_14oneiros_engine7domains9chronicle5storeNtB2_14ChronicleStore3new
FNDA:39703,_RNvMNtNtNtCsk2dDpYChjKI_14oneiros_engine7domains9chronicle5storeNtB2_14ChronicleStore3put
FNDA:6229,_RNvMNtNtNtCsk2dDpYChjKI_14oneiros_engine7domains9chronicle5storeNtB2_14ChronicleStore6writer
FNDA:5525,_RNvMNtNtNtCsk2dDpYChjKI_14oneiros_engine7domains9chronicle5storeNtB2_14ChronicleStore7migrate
FNDA:6347,_RNvMNtNtNtCsk2dDpYChjKI_14oneiros_engine7domains9chronicle5storeNtB2_14ChronicleStore8resolver
FNF:9
FNH:9
DA:14,6881
DA:15,6881
DA:16,6881
DA:18,5525
DA:19,5525
DA:20,5525
DA:21,5525
DA:22,5525
DA:23,5525
DA:24,0
DA:25,5525
DA:26,5525
DA:30,39703
DA:31,39703
DA:32,39703
DA:34,39703
DA:35,39703
DA:36,39703
DA:37,39703
DA:39,39703
DA:40,39703
DA:43,39045
DA:44,39045
DA:45,39045
DA:46,39045
DA:47,39045
DA:49,39045
DA:50,39045
DA:51,39045
DA:53,39041
DA:54,39045
DA:57,6347
DA:58,37807
DA:59,6347
DA:62,6229
DA:63,39703
DA:64,6229
BRF:0
BRH:0
LF:38
LH:37
end_of_record
SF:/Users/esmevane/Code/projects/oneiros/crates/oneiros-engine/src/domains/cognition/docs.rs
FN:17,_RNvMNtNtNtCsk2dDpYChjKI_14oneiros_engine7domains9cognition4docsNtB2_13CognitionDocs13resource_docs
FN:10,_RNvMNtNtNtCsk2dDpYChjKI_14oneiros_engine7domains9cognition4docsNtB2_13CognitionDocs3tag
FNDA:912,_RNvMNtNtNtCsk2dDpYChjKI_14oneiros_engine7domains9cognition4docsNtB2_13CognitionDocs13resource_docs
FNDA:1216,_RNvMNtNtNtCsk2dDpYChjKI_14oneiros_engine7domains9cognition4docsNtB2_13CognitionDocs3tag
FNF:2
FNH:2
DA:10,1216
DA:11,1216
DA:12,1216
DA:13,1216
DA:14,1216
DA:15,1216
DA:17,912
DA:18,912
DA:19,912
DA:20,304
DA:21,304
DA:22,304
DA:23,304
DA:24,304
DA:25,304
DA:26,304
DA:27,304
DA:28,304
DA:29,304
DA:30,304
DA:31,304
DA:32,304
DA:33,304
DA:34,304
DA:35,304
DA:36,304
DA:37,304
DA:39,912
BRF:0
BRH:0
LF:28
LH:28
end_of_record
SF:/Users/esmevane/Code/projects/oneiros/crates/oneiros-engine/src/domains/cognition/features/cli.rs
FN:13,_RNvMNtNtNtNtCsk2dDpYChjKI_14oneiros_engine7domains9cognition8features3cliNtB2_17CognitionCommands7execute
FN:16,_RNCNvMNtNtNtNtCsk2dDpYChjKI_14oneiros_engine7domains9cognition8features3cliNtB4_17CognitionCommands7execute0Bc_
FNDA:184,_RNvMNtNtNtNtCsk2dDpYChjKI_14oneiros_engine7domains9cognition8features3cliNtB2_17CognitionCommands7execute
FNDA:184,_RNCNvMNtNtNtNtCsk2dDpYChjKI_14oneiros_engine7domains9cognition8features3cliNtB4_17CognitionCommands7execute0Bc_
FNF:2
FNH:2
DA:13,184
DA:14,184
DA:15,184
DA:16,184
DA:17,184
DA:19,184
DA:20,170
DA:21,170
DA:22,169
DA:24,4
DA:25,4
DA:26,4
DA:28,10
DA:29,10
DA:30,10
DA:34,183
DA:35,183
DA:36,183
DA:37,183
DA:38,184
BRF:0
BRH:0
LF:21
LH:21
end_of_record
SF:/Users/esmevane/Code/projects/oneiros/crates/oneiros-engine/src/domains/cognition/features/http.rs
FN:13,_RNvMNtNtNtNtCsk2dDpYChjKI_14oneiros_engine7domains9cognition8features4httpNtB2_15CognitionRouter6routes
FN:38,_RNvNtNtNtNtCsk2dDpYChjKI_14oneiros_engine7domains9cognition8features4http3add
FN:47,_RNvNtNtNtNtCsk2dDpYChjKI_14oneiros_engine7domains9cognition8features4http4list
FN:54,_RNvNtNtNtNtCsk2dDpYChjKI_14oneiros_engine7domains9cognition8features4http4show
FN:19,_RNCNvMNtNtNtNtCsk2dDpYChjKI_14oneiros_engine7domains9cognition8features4httpNtB4_15CognitionRouter6routes0Bc_
FN:30,_RNCNvMNtNtNtNtCsk2dDpYChjKI_14oneiros_engine7domains9cognition8features4httpNtB4_15CognitionRouter6routess0_0Bc_
FN:22,_RNCNvMNtNtNtNtCsk2dDpYChjKI_14oneiros_engine7domains9cognition8features4httpNtB4_15CognitionRouter6routess_0Bc_
FN:42,_RNCNvNtNtNtNtCsk2dDpYChjKI_14oneiros_engine7domains9cognition8features4http3add0Bb_
FN:50,_RNCNvNtNtNtNtCsk2dDpYChjKI_14oneiros_engine7domains9cognition8features4http4list0Bb_
FN:57,_RNCNvNtNtNtNtCsk2dDpYChjKI_14oneiros_engine7domains9cognition8features4http4show0Bb_
FNDA:304,_RNvMNtNtNtNtCsk2dDpYChjKI_14oneiros_engine7domains9cognition8features4httpNtB2_15CognitionRouter6routes
FNDA:238,_RNvNtNtNtNtCsk2dDpYChjKI_14oneiros_engine7domains9cognition8features4http3add
FNDA:30,_RNvNtNtNtNtCsk2dDpYChjKI_14oneiros_engine7domains9cognition8features4http4list
FNDA:4,_RNvNtNtNtNtCsk2dDpYChjKI_14oneiros_engine7domains9cognition8features4http4show
FNDA:304,_RNCNvMNtNtNtNtCsk2dDpYChjKI_14oneiros_engine7domains9cognition8features4httpNtB4_15CognitionRouter6routes0Bc_
FNDA:304,_RNCNvMNtNtNtNtCsk2dDpYChjKI_14oneiros_engine7domains9cognition8features4httpNtB4_15CognitionRouter6routess0_0Bc_
FNDA:304,_RNCNvMNtNtNtNtCsk2dDpYChjKI_14oneiros_engine7domains9cognition8features4httpNtB4_15CognitionRouter6routess_0Bc_
FNDA:238,_RNCNvNtNtNtNtCsk2dDpYChjKI_14oneiros_engine7domains9cognition8features4http3add0Bb_
FNDA:30,_RNCNvNtNtNtNtCsk2dDpYChjKI_14oneiros_engine7domains9cognition8features4http4list0Bb_
FNDA:4,_RNCNvNtNtNtNtCsk2dDpYChjKI_14oneiros_engine7domains9cognition8features4http4show0Bb_
FNF:10
FNH:10
DA:13,304
DA:14,304
DA:15,304
DA:16,304
DA:17,304
DA:18,304
DA:19,304
DA:20,304
DA:21,304
DA:22,304
DA:23,304
DA:24,304
DA:25,304
DA:26,304
DA:28,304
DA:29,304
DA:30,304
DA:31,304
DA:32,304
DA:35,304
DA:38,238
DA:39,238
DA:40,238
DA:41,238
DA:42,238
DA:43,238
DA:44,236
DA:45,238
DA:47,30
DA:48,30
DA:49,30
DA:50,30
DA:51,30
DA:52,30
DA:54,4
DA:55,4
DA:56,4
DA:57,4
DA:59,4
DA:61,4
BRF:0
BRH:0
LF:46
LH:46
end_of_record
SF:/Users/esmevane/Code/projects/oneiros/crates/oneiros-engine/src/domains/cognition/features/mcp.rs
FN:51,_RNCNCNvNtNtNtNtNtCsk2dDpYChjKI_14oneiros_engine7domains9cognition8features3mcp13cognition_mcp8dispatch00Bf_
FN:47,_RNCNvNtNtNtNtNtCsk2dDpYChjKI_14oneiros_engine7domains9cognition8features3mcp13cognition_mcp8dispatch0Bd_
FN:72,_RNCNvNtNtNtNtNtCsk2dDpYChjKI_14oneiros_engine7domains9cognition8features3mcp13cognition_mcp8resource0Bd_
FN:42,_RNvNtNtNtNtNtCsk2dDpYChjKI_14oneiros_engine7domains9cognition8features3mcp13cognition_mcp8dispatch
FN:69,_RNvNtNtNtNtNtCsk2dDpYChjKI_14oneiros_engine7domains9cognition8features3mcp13cognition_mcp8resource
FN:36,_RNvNtNtNtNtNtCsk2dDpYChjKI_14oneiros_engine7domains9cognition8features3mcp13cognition_mcp9tool_defs
FN:20,_RNvMNtNtNtNtCsk2dDpYChjKI_14oneiros_engine7domains9cognition8features3mcpNtB2_12CognitionMcp18resource_templates
FN:6,_RNvMNtNtNtNtCsk2dDpYChjKI_14oneiros_engine7domains9cognition8features3mcpNtB2_12CognitionMcp4defs
FN:10,_RNvMNtNtNtNtCsk2dDpYChjKI_14oneiros_engine7domains9cognition8features3mcpNtB2_12CognitionMcp8dispatch
FN:24,_RNvMNtNtNtNtCsk2dDpYChjKI_14oneiros_engine7domains9cognition8features3mcpNtB2_12CognitionMcp8resource
FN:16,_RNCNvMNtNtNtNtCsk2dDpYChjKI_14oneiros_engine7domains9cognition8features3mcpNtB4_12CognitionMcp8dispatch0Bc_
FN:28,_RNCNvMNtNtNtNtCsk2dDpYChjKI_14oneiros_engine7domains9cognition8features3mcpNtB4_12CognitionMcp8resource0Bc_
FNDA:0,_RNCNCNvNtNtNtNtNtCsk2dDpYChjKI_14oneiros_engine7domains9cognition8features3mcp13cognition_mcp8dispatch00Bf_
FNDA:1,_RNCNvNtNtNtNtNtCsk2dDpYChjKI_14oneiros_engine7domains9cognition8features3mcp13cognition_mcp8dispatch0Bd_
FNDA:0,_RNCNvNtNtNtNtNtCsk2dDpYChjKI_14oneiros_engine7domains9cognition8features3mcp13cognition_mcp8resource0Bd_
FNDA:1,_RNvNtNtNtNtNtCsk2dDpYChjKI_14oneiros_engine7domains9cognition8features3mcp13cognition_mcp8dispatch
FNDA:0,_RNvNtNtNtNtNtCsk2dDpYChjKI_14oneiros_engine7domains9cognition8features3mcp13cognition_mcp8resource
FNDA:1,_RNvNtNtNtNtNtCsk2dDpYChjKI_14oneiros_engine7domains9cognition8features3mcp13cognition_mcp9tool_defs
FNDA:1,_RNvMNtNtNtNtCsk2dDpYChjKI_14oneiros_engine7domains9cognition8features3mcpNtB2_12CognitionMcp18resource_templates
FNDA:1,_RNvMNtNtNtNtCsk2dDpYChjKI_14oneiros_engine7domains9cognition8features3mcpNtB2_12CognitionMcp4defs
FNDA:1,_RNvMNtNtNtNtCsk2dDpYChjKI_14oneiros_engine7domains9cognition8features3mcpNtB2_12CognitionMcp8dispatch
FNDA:0,_RNvMNtNtNtNtCsk2dDpYChjKI_14oneiros_engine7domains9cognition8features3mcpNtB2_12CognitionMcp8resource
FNDA:1,_RNCNvMNtNtNtNtCsk2dDpYChjKI_14oneiros_engine7domains9cognition8features3mcpNtB4_12CognitionMcp8dispatch0Bc_
FNDA:0,_RNCNvMNtNtNtNtCsk2dDpYChjKI_14oneiros_engine7domains9cognition8features3mcpNtB4_12CognitionMcp8resource0Bc_
FNF:12
FNH:7
DA:6,1
DA:7,1
DA:8,1
DA:10,1
DA:11,1
DA:12,1
DA:13,1
DA:14,1
DA:15,1
DA:16,1
DA:17,1
DA:18,1
DA:20,1
DA:21,1
DA:22,1
DA:24,0
DA:25,0
DA:26,0
DA:27,0
DA:28,0
DA:29,0
DA:30,0
DA:36,1
DA:37,1
DA:38,1
DA:40,1
DA:42,1
DA:43,1
DA:44,1
DA:45,1
DA:46,1
DA:47,1
DA:48,1
DA:49,1
DA:50,1
DA:51,1
DA:53,1
DA:55,1
DA:56,0
DA:57,0
DA:58,0
DA:59,0
DA:60,0
DA:61,0
DA:64,0
DA:67,1
DA:69,0
DA:70,0
DA:71,0
DA:72,0
DA:73,0
DA:74,0
DA:75,0
DA:76,0
DA:77,0
DA:78,0
DA:79,0
DA:80,0
DA:82,0
DA:83,0
DA:84,0
DA:88,0
DA:90,0
DA:92,0
DA:94,0
BRF:0
BRH:0
LF:70
LH:34
end_of_record
SF:/Users/esmevane/Code/projects/oneiros/crates/oneiros-engine/src/domains/cognition/features/projections.rs
FN:6,_RNvMNtNtNtNtCsk2dDpYChjKI_14oneiros_engine7domains9cognition8features11projectionsNtB2_20CognitionProjections3all
FN:13,_RNCNvNtNtNtNtCsk2dDpYChjKI_14oneiros_engine7domains9cognition8features11projections11PROJECTIONS0Bb_
FN:15,_RNCNvNtNtNtNtCsk2dDpYChjKI_14oneiros_engine7domains9cognition8features11projections11PROJECTIONSs0_0Bb_
FN:14,_RNCNvNtNtNtNtCsk2dDpYChjKI_14oneiros_engine7domains9cognition8features11projections11PROJECTIONSs_0Bb_
FNDA:5825,_RNvMNtNtNtNtCsk2dDpYChjKI_14oneiros_engine7domains9cognition8features11projectionsNtB2_20CognitionProjections3all
FNDA:574,_RNCNvNtNtNtNtCsk2dDpYChjKI_14oneiros_engine7domains9cognition8features11projections11PROJECTIONS0Bb_
FNDA:288,_RNCNvNtNtNtNtCsk2dDpYChjKI_14oneiros_engine7domains9cognition8features11projections11PROJECTIONSs0_0Bb_
FNDA:7005,_RNCNvNtNtNtNtCsk2dDpYChjKI_14oneiros_engine7domains9cognition8features11projections11PROJECTIONSs_0Bb_
FNF:4
FNH:4
DA:6,5825
DA:7,5825
DA:8,5825
DA:13,574
DA:14,7005
DA:15,288
BRF:0
BRH:0
LF:6
LH:6
end_of_record
SF:/Users/esmevane/Code/projects/oneiros/crates/oneiros-engine/src/domains/cognition/features/skills.rs
FN:6,_RNvMNtNtNtNtCsk2dDpYChjKI_14oneiros_engine7domains9cognition8features6skillsNtB2_15CognitionSkills3all
FNDA:12,_RNvMNtNtNtNtCsk2dDpYChjKI_14oneiros_engine7domains9cognition8features6skillsNtB2_15CognitionSkills3all
FNF:1
FNH:1
DA:6,12
DA:7,12
DA:8,12
DA:9,12
DA:10,12
DA:12,12
BRF:0
BRH:0
LF:6
LH:6
end_of_record
SF:/Users/esmevane/Code/projects/oneiros/crates/oneiros-engine/src/domains/cognition/features/state.rs
FN:6,_RNvMNtNtNtNtCsk2dDpYChjKI_14oneiros_engine7domains9cognition8features5stateNtB2_14CognitionState6reduce
FN:16,_RNvMNtNtNtNtCsk2dDpYChjKI_14oneiros_engine7domains9cognition8features5stateNtB2_14CognitionState7reducer
FN:26,_RNvNtNtNtNtNtCsk2dDpYChjKI_14oneiros_engine7domains9cognition8features5state5testss_14adds_cognition
FNDA:7007,_RNvMNtNtNtNtCsk2dDpYChjKI_14oneiros_engine7domains9cognition8features5stateNtB2_14CognitionState6reduce
FNDA:580,_RNvMNtNtNtNtCsk2dDpYChjKI_14oneiros_engine7domains9cognition8features5stateNtB2_14CognitionState7reducer
FNDA:1,_RNvNtNtNtNtNtCsk2dDpYChjKI_14oneiros_engine7domains9cognition8features5state5testss_14adds_cognition
FNF:3
FNH:3
DA:6,7007
DA:7,7007
DA:8,346
DA:9,346
DA:10,346
DA:11,6661
DA:13,7007
DA:14,7007
DA:16,580
DA:17,580
DA:18,580
DA:26,1
DA:27,1
DA:28,1
DA:29,1
DA:30,1
DA:31,1
DA:32,1
DA:33,1
DA:34,1
DA:35,1
DA:36,1
DA:37,1
DA:39,1
DA:41,1
DA:42,1
BRF:0
BRH:0
LF:26
LH:26
end_of_record
SF:/Users/esmevane/Code/projects/oneiros/crates/oneiros-engine/src/domains/cognition/model.rs
FN:21,_RNvMNtNtNtCsk2dDpYChjKI_14oneiros_engine7domains9cognition5modelNtB2_9Cognition9ref_token
FN:27,_RNvXs_NtNtNtCsk2dDpYChjKI_14oneiros_engine7domains9cognition5modelNtB4_9CognitionINtNtNtBa_6values12entity_index9IndexableNtB4_11CognitionIdE2id
FNDA:11,_RNvMNtNtNtCsk2dDpYChjKI_14oneiros_engine7domains9cognition5modelNtB2_9Cognition9ref_token
FNDA:349,_RNvXs_NtNtNtCsk2dDpYChjKI_14oneiros_engine7domains9cognition5modelNtB4_9CognitionINtNtNtBa_6values12entity_index9IndexableNtB4_11CognitionIdE2id
FNF:2
FNH:2
DA:21,11
DA:22,11
DA:23,11
DA:27,349
DA:28,349
DA:29,349
BRF:0
BRH:0
LF:6
LH:6
end_of_record
SF:/Users/esmevane/Code/projects/oneiros/crates/oneiros-engine/src/domains/cognition/protocol/errors.rs
FN:40,_RNvXNtNtNtNtCsk2dDpYChjKI_14oneiros_engine7domains9cognition8protocol6errorsNtB2_14CognitionErrorNtNtNtCs1iC2TOwIRjP_9axum_core8response13into_response12IntoResponse13into_response
FNDA:2,_RNvXNtNtNtNtCsk2dDpYChjKI_14oneiros_engine7domains9cognition8protocol6errorsNtB2_14CognitionErrorNtNtNtCs1iC2TOwIRjP_9axum_core8response13into_response12IntoResponse13into_response
FNF:1
FNH:1
DA:40,2
DA:41,2
DA:42,2
DA:43,0
DA:44,0
DA:45,0
DA:47,0
DA:49,0
DA:50,0
DA:51,0
DA:53,2
DA:54,2
BRF:0
BRH:0
LF:12
LH:5
end_of_record
SF:/Users/esmevane/Code/projects/oneiros/crates/oneiros-engine/src/domains/cognition/protocol/events.rs
FN:25,_RNvNtNtNtNtNtCsk2dDpYChjKI_14oneiros_engine7domains9cognition8protocol6events5tests16sample_cognition
FN:34,_RNvNtNtNtNtNtCsk2dDpYChjKI_14oneiros_engine7domains9cognition8protocol6events5testss_27event_types_are_kebab_cased
FN:42,_RNvNtNtNtNtNtCsk2dDpYChjKI_14oneiros_engine7domains9cognition8protocol6events5testss_35cognition_added_wire_format_is_flat
FNDA:1,_RNvNtNtNtNtNtCsk2dDpYChjKI_14oneiros_engine7domains9cognition8protocol6events5tests16sample_cognition
FNDA:1,_RNvNtNtNtNtNtCsk2dDpYChjKI_14oneiros_engine7domains9cognition8protocol6events5testss_27event_types_are_kebab_cased
FNDA:1,_RNvNtNtNtNtNtCsk2dDpYChjKI_14oneiros_engine7domains9cognition8protocol6events5testss_35cognition_added_wire_format_is_flat
FNF:3
FNH:3
DA:25,1
DA:26,1
DA:27,1
DA:28,1
DA:29,1
DA:30,1
DA:31,1
DA:34,1
DA:35,1
DA:36,1
DA:39,1
DA:42,1
DA:45,1
DA:46,1
DA:47,1
DA:49,1
DA:50,1
DA:51,1
DA:52,1
DA:55,1
DA:56,1
DA:57,1
DA:58,1
DA:59,1
DA:62,1
BRF:0
BRH:0
LF:25
LH:25
end_of_record
SF:/Users/esmevane/Code/projects/oneiros/crates/oneiros-engine/src/domains/cognition/protocol/requests.rs
FN:92,_RNCNCNvXs0_NtNtNtNtCsk2dDpYChjKI_14oneiros_engine7domains9cognition8protocol8requestsNtB9_14ListCognitionsNtNtBh_6client13ClientRequest15execute_request00Bh_
FN:22,_RNCNvXNtNtNtNtCsk2dDpYChjKI_14oneiros_engine7domains9cognition8protocol8requestsNtB4_12AddCognitionNtNtBc_6client13ClientRequest15execute_request0Bc_
FN:71,_RNCNvXs0_NtNtNtNtCsk2dDpYChjKI_14oneiros_engine7domains9cognition8protocol8requestsNtB7_14ListCognitionsNtNtBf_6client13ClientRequest15execute_request0Bf_
FN:40,_RNCNvXs_NtNtNtNtCsk2dDpYChjKI_14oneiros_engine7domains9cognition8protocol8requestsNtB6_12GetCognitionNtNtBe_6client13ClientRequest15execute_request0Be_
FN:114,_RNvNtNtNtNtNtCsk2dDpYChjKI_14oneiros_engine7domains9cognition8protocol8requests5testss_29request_types_are_kebab_cased
FN:22,_RNvXNtNtNtNtCsk2dDpYChjKI_14oneiros_engine7domains9cognition8protocol8requestsNtB2_12AddCognitionNtNtBa_6client13ClientRequest15execute_request
FN:71,_RNvXs0_NtNtNtNtCsk2dDpYChjKI_14oneiros_engine7domains9cognition8protocol8requestsNtB5_14ListCognitionsNtNtBd_6client13ClientRequest15execute_request
FN:40,_RNvXs_NtNtNtNtCsk2dDpYChjKI_14oneiros_engine7domains9cognition8protocol8requestsNtB4_12GetCognitionNtNtBc_6client13ClientRequest15execute_request
FNDA:88,_RNCNCNvXs0_NtNtNtNtCsk2dDpYChjKI_14oneiros_engine7domains9cognition8protocol8requestsNtB9_14ListCognitionsNtNtBh_6client13ClientRequest15execute_request00Bh_
FNDA:238,_RNCNvXNtNtNtNtCsk2dDpYChjKI_14oneiros_engine7domains9cognition8protocol8requestsNtB4_12AddCognitionNtNtBc_6client13ClientRequest15execute_request0Bc_
FNDA:30,_RNCNvXs0_NtNtNtNtCsk2dDpYChjKI_14oneiros_engine7domains9cognition8protocol8requestsNtB7_14ListCognitionsNtNtBf_6client13ClientRequest15execute_request0Bf_
FNDA:4,_RNCNvXs_NtNtNtNtCsk2dDpYChjKI_14oneiros_engine7domains9cognition8protocol8requestsNtB6_12GetCognitionNtNtBe_6client13ClientRequest15execute_request0Be_
FNDA:1,_RNvNtNtNtNtNtCsk2dDpYChjKI_14oneiros_engine7domains9cognition8protocol8requests5testss_29request_types_are_kebab_cased
FNDA:238,_RNvXNtNtNtNtCsk2dDpYChjKI_14oneiros_engine7domains9cognition8protocol8requestsNtB2_12AddCognitionNtNtBa_6client13ClientRequest15execute_request
FNDA:30,_RNvXs0_NtNtNtNtCsk2dDpYChjKI_14oneiros_engine7domains9cognition8protocol8requestsNtB5_14ListCognitionsNtNtBd_6client13ClientRequest15execute_request
FNDA:4,_RNvXs_NtNtNtNtCsk2dDpYChjKI_14oneiros_engine7domains9cognition8protocol8requestsNtB4_12GetCognitionNtNtBc_6client13ClientRequest15execute_request
FNF:8
FNH:8
DA:22,238
DA:23,238
DA:24,238
DA:40,4
DA:41,4
DA:42,4
DA:43,4
DA:71,30
DA:72,30
DA:73,30
DA:75,30
DA:76,26
DA:77,26
DA:79,30
DA:80,1
DA:81,29
DA:83,30
DA:84,1
DA:85,29
DA:87,30
DA:88,30
DA:90,30
DA:91,30
DA:92,88
DA:93,30
DA:94,30
DA:96,30
DA:97,30
DA:114,1
DA:115,1
DA:116,1
DA:117,1
DA:118,1
DA:119,1
DA:121,3
DA:122,3
DA:124,1
BRF:0
BRH:0
LF:41
LH:41
end_of_record
SF:/Users/esmevane/Code/projects/oneiros/crates/oneiros-engine/src/domains/cognition/repo.rs
FN:32,_RNCNCNvMNtNtNtCsk2dDpYChjKI_14oneiros_engine7domains9cognition4repoNtB6_13CognitionRepo3get00Bc_
FN:22,_RNCNCNvMNtNtNtCsk2dDpYChjKI_14oneiros_engine7domains9cognition4repoNtB6_13CognitionRepo5fetch00Bc_
FN:66,_RNCNCNvMNtNtNtCsk2dDpYChjKI_14oneiros_engine7domains9cognition4repoNtB6_13CognitionRepo8get_many00Bc_
FN:98,_RNCNCNvMNtNtNtCsk2dDpYChjKI_14oneiros_engine7domains9cognition4repoNtB6_13CognitionRepo8get_many0s0_0Bc_
FN:76,_RNCNCNvMNtNtNtCsk2dDpYChjKI_14oneiros_engine7domains9cognition4repoNtB6_13CognitionRepo8get_many0s_0Bc_
FN:25,_RNCNvMNtNtNtCsk2dDpYChjKI_14oneiros_engine7domains9cognition4repoNtB4_13CognitionRepo3get0Ba_
FN:21,_RNCNvMNtNtNtCsk2dDpYChjKI_14oneiros_engine7domains9cognition4repoNtB4_13CognitionRepo5fetch0Ba_
FN:60,_RNCNvMNtNtNtCsk2dDpYChjKI_14oneiros_engine7domains9cognition4repoNtB4_13CognitionRepo8get_many0Ba_
FN:25,_RNvMNtNtNtCsk2dDpYChjKI_14oneiros_engine7domains9cognition4repoNtB2_13CognitionRepo3get
FN:13,_RNvMNtNtNtCsk2dDpYChjKI_14oneiros_engine7domains9cognition4repoNtB2_13CognitionRepo3new
FN:21,_RNvMNtNtNtCsk2dDpYChjKI_14oneiros_engine7domains9cognition4repoNtB2_13CognitionRepo5fetch
FN:60,_RNvMNtNtNtCsk2dDpYChjKI_14oneiros_engine7domains9cognition4repoNtB2_13CognitionRepo8get_many
FNDA:240,_RNCNCNvMNtNtNtCsk2dDpYChjKI_14oneiros_engine7domains9cognition4repoNtB6_13CognitionRepo3get00Bc_
FNDA:476,_RNCNCNvMNtNtNtCsk2dDpYChjKI_14oneiros_engine7domains9cognition4repoNtB6_13CognitionRepo5fetch00Bc_
FNDA:105,_RNCNCNvMNtNtNtCsk2dDpYChjKI_14oneiros_engine7domains9cognition4repoNtB6_13CognitionRepo8get_many00Bc_
FNDA:105,_RNCNCNvMNtNtNtCsk2dDpYChjKI_14oneiros_engine7domains9cognition4repoNtB6_13CognitionRepo8get_many0s0_0Bc_
FNDA:105,_RNCNCNvMNtNtNtCsk2dDpYChjKI_14oneiros_engine7domains9cognition4repoNtB6_13CognitionRepo8get_many0s_0Bc_
FNDA:476,_RNCNvMNtNtNtCsk2dDpYChjKI_14oneiros_engine7domains9cognition4repoNtB4_13CognitionRepo3get0Ba_
FNDA:240,_RNCNvMNtNtNtCsk2dDpYChjKI_14oneiros_engine7domains9cognition4repoNtB4_13CognitionRepo5fetch0Ba_
FNDA:53,_RNCNvMNtNtNtCsk2dDpYChjKI_14oneiros_engine7domains9cognition4repoNtB4_13CognitionRepo8get_many0Ba_
FNDA:476,_RNvMNtNtNtCsk2dDpYChjKI_14oneiros_engine7domains9cognition4repoNtB2_13CognitionRepo3get
FNDA:293,_RNvMNtNtNtCsk2dDpYChjKI_14oneiros_engine7domains9cognition4repoNtB2_13CognitionRepo3new
FNDA:240,_RNvMNtNtNtCsk2dDpYChjKI_14oneiros_engine7domains9cognition4repoNtB2_13CognitionRepo5fetch
FNDA:53,_RNvMNtNtNtCsk2dDpYChjKI_14oneiros_engine7domains9cognition4repoNtB2_13CognitionRepo8get_many
FNF:12
FNH:12
DA:13,293
DA:14,293
DA:15,293
DA:21,240
DA:22,476
DA:23,240
DA:25,476
DA:26,476
DA:27,476
DA:28,476
DA:29,476
DA:30,476
DA:32,476
DA:33,240
DA:35,240
DA:36,240
DA:37,240
DA:38,240
DA:39,240
DA:41,240
DA:43,236
DA:44,240
DA:45,240
DA:46,240
DA:47,240
DA:48,240
DA:49,240
DA:50,240
DA:51,240
DA:53,236
DA:54,0
DA:56,476
DA:60,53
DA:61,53
DA:62,12
DA:63,41
DA:64,41
DA:65,41
DA:66,105
DA:67,41
DA:68,41
DA:69,41
DA:73,41
DA:74,41
DA:75,41
DA:76,105
DA:78,105
DA:79,105
DA:80,105
DA:81,105
DA:82,105
DA:84,105
DA:85,41
DA:87,41
DA:88,105
DA:89,105
DA:90,105
DA:91,105
DA:92,105
DA:93,105
DA:94,105
DA:95,105
DA:96,105
DA:98,105
DA:99,53
BRF:0
BRH:0
LF:74
LH:72
end_of_record
SF:/Users/esmevane/Code/projects/oneiros/crates/oneiros-engine/src/domains/cognition/service.rs
FN:13,_RNvMNtNtNtCsk2dDpYChjKI_14oneiros_engine7domains9cognition7serviceNtB2_16CognitionService3add
FN:60,_RNvMNtNtNtCsk2dDpYChjKI_14oneiros_engine7domains9cognition7serviceNtB2_16CognitionService3get
FN:78,_RNvMNtNtNtCsk2dDpYChjKI_14oneiros_engine7domains9cognition7serviceNtB2_16CognitionService4list
FN:22,_RNCNCNvMNtNtNtCsk2dDpYChjKI_14oneiros_engine7domains9cognition7serviceNtB6_16CognitionService3add00Bc_
FN:88,_RNCNCNvMNtNtNtCsk2dDpYChjKI_14oneiros_engine7domains9cognition7serviceNtB6_16CognitionService4list00Bc_
FN:112,_RNCNCNvMNtNtNtCsk2dDpYChjKI_14oneiros_engine7domains9cognition7serviceNtB6_16CognitionService4list0s_0Bc_
FN:17,_RNCNvMNtNtNtCsk2dDpYChjKI_14oneiros_engine7domains9cognition7serviceNtB4_16CognitionService3add0Ba_
FN:63,_RNCNvMNtNtNtCsk2dDpYChjKI_14oneiros_engine7domains9cognition7serviceNtB4_16CognitionService3get0Ba_
FN:81,_RNCNvMNtNtNtCsk2dDpYChjKI_14oneiros_engine7domains9cognition7serviceNtB4_16CognitionService4list0Ba_
FNDA:238,_RNvMNtNtNtCsk2dDpYChjKI_14oneiros_engine7domains9cognition7serviceNtB2_16CognitionService3add
FNDA:4,_RNvMNtNtNtCsk2dDpYChjKI_14oneiros_engine7domains9cognition7serviceNtB2_16CognitionService3get
FNDA:30,_RNvMNtNtNtCsk2dDpYChjKI_14oneiros_engine7domains9cognition7serviceNtB2_16CognitionService4list
FNDA:2,_RNCNCNvMNtNtNtCsk2dDpYChjKI_14oneiros_engine7domains9cognition7serviceNtB6_16CognitionService3add00Bc_
FNDA:0,_RNCNCNvMNtNtNtCsk2dDpYChjKI_14oneiros_engine7domains9cognition7serviceNtB6_16CognitionService4list00Bc_
FNDA:82,_RNCNCNvMNtNtNtCsk2dDpYChjKI_14oneiros_engine7domains9cognition7serviceNtB6_16CognitionService4list0s_0Bc_
FNDA:238,_RNCNvMNtNtNtCsk2dDpYChjKI_14oneiros_engine7domains9cognition7serviceNtB4_16CognitionService3add0Ba_
FNDA:4,_RNCNvMNtNtNtCsk2dDpYChjKI_14oneiros_engine7domains9cognition7serviceNtB4_16CognitionService3get0Ba_
FNDA:30,_RNCNvMNtNtNtCsk2dDpYChjKI_14oneiros_engine7domains9cognition7serviceNtB4_16CognitionService4list0Ba_
FNF:9
FNH:8
DA:13,238
DA:14,238
DA:15,238
DA:16,238
DA:17,238
DA:18,238
DA:19,238
DA:20,238
DA:21,238
DA:22,238
DA:24,236
DA:25,236
DA:26,236
DA:27,236
DA:28,236
DA:29,236
DA:31,236
DA:32,236
DA:33,236
DA:34,236
DA:35,236
DA:36,236
DA:37,236
DA:38,236
DA:40,236
DA:41,236
DA:42,236
DA:43,236
DA:44,236
DA:47,236
DA:48,236
DA:49,236
DA:50,236
DA:52,236
DA:53,236
DA:54,236
DA:55,236
DA:56,236
DA:57,236
DA:58,238
DA:60,4
DA:61,4
DA:62,4
DA:63,4
DA:64,4
DA:65,4
DA:66,4
DA:67,4
DA:68,4
DA:69,4
DA:70,4
DA:71,4
DA:72,4
DA:73,4
DA:74,4
DA:75,4
DA:76,4
DA:78,30
DA:79,30
DA:80,30
DA:81,30
DA:82,30
DA:83,30
DA:84,26
DA:85,26
DA:86,26
DA:87,26
DA:88,26
DA:89,26
DA:91,4
DA:94,30
DA:95,30
DA:96,30
DA:97,30
DA:98,30
DA:99,30
DA:101,30
DA:102,30
DA:103,30
DA:105,30
DA:106,2
DA:107,28
DA:109,28
DA:110,28
DA:111,28
DA:112,82
DA:113,82
DA:114,0
DA:115,82
DA:116,28
DA:117,28
DA:119,28
DA:120,28
DA:121,28
DA:122,28
DA:123,28
DA:124,28
DA:125,28
DA:126,30
BRF:0
BRH:0
LF:105
LH:103
end_of_record
SF:/Users/esmevane/Code/projects/oneiros/crates/oneiros-engine/src/domains/cognition/store.rs
FN:145,_RNvMNtNtNtCsk2dDpYChjKI_14oneiros_engine7domains9cognition5storeNtB2_14CognitionStore11list_recent
FN:188,_RNvMNtNtNtCsk2dDpYChjKI_14oneiros_engine7domains9cognition5storeNtB2_14CognitionStore15write_cognition
FN:46,_RNvMNtNtNtCsk2dDpYChjKI_14oneiros_engine7domains9cognition5storeNtB2_14CognitionStore3get
FN:11,_RNvMNtNtNtCsk2dDpYChjKI_14oneiros_engine7domains9cognition5storeNtB2_14CognitionStore3new
FN:77,_RNvMNtNtNtCsk2dDpYChjKI_14oneiros_engine7domains9cognition5storeNtB2_14CognitionStore4list
FN:28,_RNvMNtNtNtCsk2dDpYChjKI_14oneiros_engine7domains9cognition5storeNtB2_14CognitionStore5reset
FN:15,_RNvMNtNtNtCsk2dDpYChjKI_14oneiros_engine7domains9cognition5storeNtB2_14CognitionStore6handle
FN:33,_RNvMNtNtNtCsk2dDpYChjKI_14oneiros_engine7domains9cognition5storeNtB2_14CognitionStore7migrate
FN:158,_RNCNvMNtNtNtCsk2dDpYChjKI_14oneiros_engine7domains9cognition5storeNtB4_14CognitionStore11list_recent0Ba_
FN:52,_RNCNvMNtNtNtCsk2dDpYChjKI_14oneiros_engine7domains9cognition5storeNtB4_14CognitionStore3get0Ba_
FN:110,_RNCNvMNtNtNtCsk2dDpYChjKI_14oneiros_engine7domains9cognition5storeNtB4_14CognitionStore4list0Ba_
FNDA:8,_RNvMNtNtNtCsk2dDpYChjKI_14oneiros_engine7domains9cognition5storeNtB2_14CognitionStore11list_recent
FNDA:344,_RNvMNtNtNtCsk2dDpYChjKI_14oneiros_engine7domains9cognition5storeNtB2_14CognitionStore15write_cognition
FNDA:0,_RNvMNtNtNtCsk2dDpYChjKI_14oneiros_engine7domains9cognition5storeNtB2_14CognitionStore3get
FNDA:7981,_RNvMNtNtNtCsk2dDpYChjKI_14oneiros_engine7domains9cognition5storeNtB2_14CognitionStore3new
FNDA:106,_RNvMNtNtNtCsk2dDpYChjKI_14oneiros_engine7domains9cognition5storeNtB2_14CognitionStore4list
FNDA:288,_RNvMNtNtNtCsk2dDpYChjKI_14oneiros_engine7domains9cognition5storeNtB2_14CognitionStore5reset
FNDA:7005,_RNvMNtNtNtCsk2dDpYChjKI_14oneiros_engine7domains9cognition5storeNtB2_14CognitionStore6handle
FNDA:574,_RNvMNtNtNtCsk2dDpYChjKI_14oneiros_engine7domains9cognition5storeNtB2_14CognitionStore7migrate
FNDA:19,_RNCNvMNtNtNtCsk2dDpYChjKI_14oneiros_engine7domains9cognition5storeNtB4_14CognitionStore11list_recent0Ba_
FNDA:0,_RNCNvMNtNtNtCsk2dDpYChjKI_14oneiros_engine7domains9cognition5storeNtB4_14CognitionStore3get0Ba_
FNDA:106,_RNCNvMNtNtNtCsk2dDpYChjKI_14oneiros_engine7domains9cognition5storeNtB4_14CognitionStore4list0Ba_
FNF:11
FNH:9
DA:11,7981
DA:12,7981
DA:13,7981
DA:15,7005
DA:16,7005
DA:17,344
DA:18,344
DA:19,344
DA:20,344
DA:21,344
DA:24,6661
DA:25,7005
DA:26,7005
DA:28,288
DA:29,288
DA:30,288
DA:31,288
DA:33,574
DA:34,574
DA:35,574
DA:36,574
DA:37,574
DA:38,574
DA:39,574
DA:40,574
DA:41,574
DA:42,0
DA:43,574
DA:44,574
DA:46,0
DA:47,0
DA:48,0
DA:49,0
DA:50,0
DA:52,0
DA:54,0
DA:55,0
DA:56,0
DA:57,0
DA:58,0
DA:60,0
DA:62,0
DA:63,0
DA:64,0
DA:65,0
DA:66,0
DA:67,0
DA:68,0
DA:69,0
DA:70,0
DA:72,0
DA:73,0
DA:75,0
DA:77,106
DA:78,106
DA:79,106
DA:80,106
DA:81,106
DA:82,106
DA:84,0
DA:85,0
DA:86,0
DA:87,0
DA:90,106
DA:91,106
DA:92,106
DA:93,106
DA:96,0
DA:97,0
DA:98,0
DA:99,0
DA:102,0
DA:103,0
DA:104,0
DA:108,106
DA:110,106
DA:112,106
DA:113,106
DA:114,106
DA:115,106
DA:116,106
DA:118,106
DA:120,106
DA:121,0
DA:122,106
DA:123,0
DA:124,0
DA:125,0
DA:126,106
DA:128,106
DA:129,106
DA:130,106
DA:131,106
DA:132,106
DA:133,106
DA:134,106
DA:135,106
DA:136,106
DA:137,106
DA:141,106
DA:142,106
DA:145,8
DA:146,8
DA:147,8
DA:148,8
DA:149,8
DA:150,8
DA:151,8
DA:152,8
DA:153,8
DA:154,8
DA:155,8
DA:156,0
DA:158,19
DA:160,19
DA:161,19
DA:162,19
DA:163,19
DA:164,19
DA:166,19
DA:168,8
DA:169,8
DA:170,8
DA:172,8
DA:173,19
DA:174,19
DA:175,19
DA:176,19
DA:177,19
DA:178,19
DA:179,19
DA:180,19
DA:181,19
DA:185,8
DA:186,8
DA:188,344
DA:189,344
DA:190,344
DA:191,344
DA:192,344
DA:193,344
DA:194,344
DA:195,344
DA:196,344
DA:197,344
DA:199,0
DA:200,344
DA:201,344
BRF:0
BRH:0
LF:151
LH:108
end_of_record
SF:/Users/esmevane/Code/projects/oneiros/crates/oneiros-engine/src/domains/cognition/view.rs
FN:13,_RNvMNtNtNtCsk2dDpYChjKI_14oneiros_engine7domains9cognition4viewNtB2_13CognitionView3mcp
FN:9,_RNvMNtNtNtCsk2dDpYChjKI_14oneiros_engine7domains9cognition4viewNtB2_13CognitionView3new
FN:81,_RNvMNtNtNtCsk2dDpYChjKI_14oneiros_engine7domains9cognition4viewNtB2_13CognitionView6render
FNDA:0,_RNvMNtNtNtCsk2dDpYChjKI_14oneiros_engine7domains9cognition4viewNtB2_13CognitionView3mcp
FNDA:183,_RNvMNtNtNtCsk2dDpYChjKI_14oneiros_engine7domains9cognition4viewNtB2_13CognitionView3new
FNDA:183,_RNvMNtNtNtCsk2dDpYChjKI_14oneiros_engine7domains9cognition4viewNtB2_13CognitionView6render
FNF:3
FNH:2
DA:9,183
DA:10,183
DA:11,183
DA:13,0
DA:14,0
DA:15,0
DA:16,0
DA:17,0
DA:21,0
DA:22,0
DA:23,0
DA:24,0
DA:25,0
DA:28,0
DA:29,0
DA:30,0
DA:37,0
DA:38,0
DA:41,0
DA:43,0
DA:44,0
DA:45,0
DA:46,0
DA:47,0
DA:48,0
DA:51,0
DA:53,0
DA:55,0
DA:58,0
DA:59,0
DA:60,0
DA:61,0
DA:62,0
DA:63,0
DA:64,0
DA:65,0
DA:66,0
DA:67,0
DA:68,0
DA:69,0
DA:70,0
DA:71,0
DA:72,0
DA:73,0
DA:74,0
DA:76,0
DA:77,0
DA:79,0
DA:81,183
DA:82,183
DA:84,169
DA:85,169
DA:87,169
DA:88,169
DA:90,169
DA:91,169
DA:93,169
DA:94,169
DA:95,169
DA:96,169
DA:97,169
DA:100,169
DA:101,169
DA:102,169
DA:103,169
DA:105,169
DA:107,4
DA:108,4
DA:109,4
DA:110,4
DA:111,4
DA:112,4
DA:113,4
DA:115,4
DA:116,4
DA:117,4
DA:118,4
DA:120,4
DA:122,8
DA:123,8
DA:124,8
DA:125,8
DA:126,8
DA:129,14
DA:130,14
DA:131,14
DA:132,14
DA:133,14
DA:134,14
DA:135,14
DA:136,14
DA:138,8
DA:140,8
DA:143,8
DA:144,8
DA:145,8
DA:146,8
DA:149,2
DA:150,2
DA:151,2
DA:152,2
DA:154,0
DA:156,183
BRF:0
BRH:0
LF:103
LH:57
end_of_record
SF:/Users/esmevane/Code/projects/oneiros/crates/oneiros-engine/src/domains/connection/docs.rs
FN:18,_RNvMNtNtNtCsk2dDpYChjKI_14oneiros_engine7domains10connection4docsNtB2_14ConnectionDocs13resource_docs
FN:11,_RNvMNtNtNtCsk2dDpYChjKI_14oneiros_engine7domains10connection4docsNtB2_14ConnectionDocs3tag
FNDA:1216,_RNvMNtNtNtCsk2dDpYChjKI_14oneiros_engine7domains10connection4docsNtB2_14ConnectionDocs13resource_docs
FNDA:1520,_RNvMNtNtNtCsk2dDpYChjKI_14oneiros_engine7domains10connection4docsNtB2_14ConnectionDocs3tag
FNF:2
FNH:2
DA:11,1520
DA:12,1520
DA:13,1520
DA:14,1520
DA:15,1520
DA:16,1520
DA:18,1216
DA:19,1216
DA:20,1216
DA:21,304
DA:22,304
DA:23,304
DA:24,304
DA:25,304
DA:26,304
DA:27,304
DA:28,304
DA:29,304
DA:30,304
DA:31,304
DA:32,304
DA:33,304
DA:34,304
DA:35,304
DA:36,304
DA:37,304
DA:38,304
DA:39,304
DA:40,304
DA:41,304
DA:42,304
DA:43,304
DA:44,304
DA:46,1216
BRF:0
BRH:0
LF:34
LH:34
end_of_record
SF:/Users/esmevane/Code/projects/oneiros/crates/oneiros-engine/src/domains/connection/features/cli.rs
FN:17,_RNCNvMNtNtNtNtCsk2dDpYChjKI_14oneiros_engine7domains10connection8features3cliNtB4_18ConnectionCommands7execute0Bc_
FN:14,_RNvMNtNtNtNtCsk2dDpYChjKI_14oneiros_engine7domains10connection8features3cliNtB2_18ConnectionCommands7execute
FNDA:16,_RNCNvMNtNtNtNtCsk2dDpYChjKI_14oneiros_engine7domains10connection8features3cliNtB4_18ConnectionCommands7execute0Bc_
FNDA:16,_RNvMNtNtNtNtCsk2dDpYChjKI_14oneiros_engine7domains10connection8features3cliNtB2_18ConnectionCommands7execute
FNF:2
FNH:2
DA:14,16
DA:15,16
DA:16,16
DA:17,16
DA:18,16
DA:20,16
DA:21,8
DA:22,8
DA:23,8
DA:25,2
DA:26,2
DA:27,2
DA:29,4
DA:30,4
DA:31,4
DA:33,2
DA:34,2
DA:35,2
DA:39,16
DA:40,16
DA:41,16
DA:42,16
DA:43,16
BRF:0
BRH:0
LF:24
LH:24
end_of_record
SF:/Users/esmevane/Code/projects/oneiros/crates/oneiros-engine/src/domains/connection/features/http.rs
FN:19,_RNCNvMNtNtNtNtCsk2dDpYChjKI_14oneiros_engine7domains10connection8features4httpNtB4_16ConnectionRouter6routes0Bc_
FN:30,_RNCNvMNtNtNtNtCsk2dDpYChjKI_14oneiros_engine7domains10connection8features4httpNtB4_16ConnectionRouter6routess0_0Bc_
FN:33,_RNCNvMNtNtNtNtCsk2dDpYChjKI_14oneiros_engine7domains10connection8features4httpNtB4_16ConnectionRouter6routess1_0Bc_
FN:22,_RNCNvMNtNtNtNtCsk2dDpYChjKI_14oneiros_engine7domains10connection8features4httpNtB4_16ConnectionRouter6routess_0Bc_
FN:53,_RNCNvNtNtNtNtCsk2dDpYChjKI_14oneiros_engine7domains10connection8features4http4list0Bb_
FN:60,_RNCNvNtNtNtNtCsk2dDpYChjKI_14oneiros_engine7domains10connection8features4http4show0Bb_
FN:45,_RNCNvNtNtNtNtCsk2dDpYChjKI_14oneiros_engine7domains10connection8features4http6create0Bb_
FN:71,_RNCNvNtNtNtNtCsk2dDpYChjKI_14oneiros_engine7domains10connection8features4http6remove0Bb_
FN:13,_RNvMNtNtNtNtCsk2dDpYChjKI_14oneiros_engine7domains10connection8features4httpNtB2_16ConnectionRouter6routes
FN:50,_RNvNtNtNtNtCsk2dDpYChjKI_14oneiros_engine7domains10connection8features4http4list
FN:57,_RNvNtNtNtNtCsk2dDpYChjKI_14oneiros_engine7domains10connection8features4http4show
FN:41,_RNvNtNtNtNtCsk2dDpYChjKI_14oneiros_engine7domains10connection8features4http6create
FN:67,_RNvNtNtNtNtCsk2dDpYChjKI_14oneiros_engine7domains10connection8features4http6remove
FNDA:304,_RNCNvMNtNtNtNtCsk2dDpYChjKI_14oneiros_engine7domains10connection8features4httpNtB4_16ConnectionRouter6routes0Bc_
FNDA:304,_RNCNvMNtNtNtNtCsk2dDpYChjKI_14oneiros_engine7domains10connection8features4httpNtB4_16ConnectionRouter6routess0_0Bc_
FNDA:304,_RNCNvMNtNtNtNtCsk2dDpYChjKI_14oneiros_engine7domains10connection8features4httpNtB4_16ConnectionRouter6routess1_0Bc_
FNDA:304,_RNCNvMNtNtNtNtCsk2dDpYChjKI_14oneiros_engine7domains10connection8features4httpNtB4_16ConnectionRouter6routess_0Bc_
FNDA:6,_RNCNvNtNtNtNtCsk2dDpYChjKI_14oneiros_engine7domains10connection8features4http4list0Bb_
FNDA:3,_RNCNvNtNtNtNtCsk2dDpYChjKI_14oneiros_engine7domains10connection8features4http4show0Bb_
FNDA:19,_RNCNvNtNtNtNtCsk2dDpYChjKI_14oneiros_engine7domains10connection8features4http6create0Bb_
FNDA:3,_RNCNvNtNtNtNtCsk2dDpYChjKI_14oneiros_engine7domains10connection8features4http6remove0Bb_
FNDA:304,_RNvMNtNtNtNtCsk2dDpYChjKI_14oneiros_engine7domains10connection8features4httpNtB2_16ConnectionRouter6routes
FNDA:6,_RNvNtNtNtNtCsk2dDpYChjKI_14oneiros_engine7domains10connection8features4http4list
FNDA:3,_RNvNtNtNtNtCsk2dDpYChjKI_14oneiros_engine7domains10connection8features4http4show
FNDA:19,_RNvNtNtNtNtCsk2dDpYChjKI_14oneiros_engine7domains10connection8features4http6create
FNDA:3,_RNvNtNtNtNtCsk2dDpYChjKI_14oneiros_engine7domains10connection8features4http6remove
FNF:13
FNH:13
DA:13,304
DA:14,304
DA:15,304
DA:16,304
DA:17,304
DA:18,304
DA:19,304
DA:20,304
DA:21,304
DA:22,304
DA:23,304
DA:24,304
DA:25,304
DA:26,304
DA:28,304
DA:29,304
DA:30,304
DA:31,304
DA:32,304
DA:33,304
DA:34,304
DA:35,304
DA:38,304
DA:41,19
DA:42,19
DA:43,19
DA:44,19
DA:45,19
DA:46,19
DA:47,19
DA:48,19
DA:50,6
DA:51,6
DA:52,6
DA:53,6
DA:54,6
DA:55,6
DA:57,3
DA:58,3
DA:59,3
DA:60,3
DA:62,3
DA:63,3
DA:65,3
DA:67,3
DA:68,3
DA:69,3
DA:70,3
DA:71,3
DA:73,3
DA:74,3
DA:75,3
DA:76,3
DA:77,3
DA:78,3
DA:80,3
BRF:0
BRH:0
LF:64
LH:64
end_of_record
SF:/Users/esmevane/Code/projects/oneiros/crates/oneiros-engine/src/domains/connection/features/mcp.rs
FN:16,_RNCNvMNtNtNtNtCsk2dDpYChjKI_14oneiros_engine7domains10connection8features3mcpNtB4_13ConnectionMcp8dispatch0Bc_
FN:28,_RNCNvMNtNtNtNtCsk2dDpYChjKI_14oneiros_engine7domains10connection8features3mcpNtB4_13ConnectionMcp8resource0Bc_
FN:20,_RNvMNtNtNtNtCsk2dDpYChjKI_14oneiros_engine7domains10connection8features3mcpNtB2_13ConnectionMcp18resource_templates
FN:6,_RNvMNtNtNtNtCsk2dDpYChjKI_14oneiros_engine7domains10connection8features3mcpNtB2_13ConnectionMcp4defs
FN:10,_RNvMNtNtNtNtCsk2dDpYChjKI_14oneiros_engine7domains10connection8features3mcpNtB2_13ConnectionMcp8dispatch
FN:24,_RNvMNtNtNtNtCsk2dDpYChjKI_14oneiros_engine7domains10connection8features3mcpNtB2_13ConnectionMcp8resource
FN:46,_RNvNtNtNtNtNtCsk2dDpYChjKI_14oneiros_engine7domains10connection8features3mcp14connection_mcp8dispatch
FN:75,_RNvNtNtNtNtNtCsk2dDpYChjKI_14oneiros_engine7domains10connection8features3mcp14connection_mcp8resource
FN:36,_RNvNtNtNtNtNtCsk2dDpYChjKI_14oneiros_engine7domains10connection8features3mcp14connection_mcp9tool_defs
FN:55,_RNCNCNvNtNtNtNtNtCsk2dDpYChjKI_14oneiros_engine7domains10connection8features3mcp14connection_mcp8dispatch00Bf_
FN:51,_RNCNvNtNtNtNtNtCsk2dDpYChjKI_14oneiros_engine7domains10connection8features3mcp14connection_mcp8dispatch0Bd_
FN:78,_RNCNvNtNtNtNtNtCsk2dDpYChjKI_14oneiros_engine7domains10connection8features3mcp14connection_mcp8resource0Bd_
FNDA:0,_RNCNvMNtNtNtNtCsk2dDpYChjKI_14oneiros_engine7domains10connection8features3mcpNtB4_13ConnectionMcp8dispatch0Bc_
FNDA:0,_RNCNvMNtNtNtNtCsk2dDpYChjKI_14oneiros_engine7domains10connection8features3mcpNtB4_13ConnectionMcp8resource0Bc_
FNDA:1,_RNvMNtNtNtNtCsk2dDpYChjKI_14oneiros_engine7domains10connection8features3mcpNtB2_13ConnectionMcp18resource_templates
FNDA:1,_RNvMNtNtNtNtCsk2dDpYChjKI_14oneiros_engine7domains10connection8features3mcpNtB2_13ConnectionMcp4defs
FNDA:0,_RNvMNtNtNtNtCsk2dDpYChjKI_14oneiros_engine7domains10connection8features3mcpNtB2_13ConnectionMcp8dispatch
FNDA:0,_RNvMNtNtNtNtCsk2dDpYChjKI_14oneiros_engine7domains10connection8features3mcpNtB2_13ConnectionMcp8resource
FNDA:0,_RNvNtNtNtNtNtCsk2dDpYChjKI_14oneiros_engine7domains10connection8features3mcp14connection_mcp8dispatch
FNDA:0,_RNvNtNtNtNtNtCsk2dDpYChjKI_14oneiros_engine7domains10connection8features3mcp14connection_mcp8resource
FNDA:1,_RNvNtNtNtNtNtCsk2dDpYChjKI_14oneiros_engine7domains10connection8features3mcp14connection_mcp9tool_defs
FNDA:0,_RNCNCNvNtNtNtNtNtCsk2dDpYChjKI_14oneiros_engine7domains10connection8features3mcp14connection_mcp8dispatch00Bf_
FNDA:0,_RNCNvNtNtNtNtNtCsk2dDpYChjKI_14oneiros_engine7domains10connection8features3mcp14connection_mcp8dispatch0Bd_
FNDA:0,_RNCNvNtNtNtNtNtCsk2dDpYChjKI_14oneiros_engine7domains10connection8features3mcp14connection_mcp8resource0Bd_
FNF:12
FNH:3
DA:6,1
DA:7,1
DA:8,1
DA:10,0
DA:11,0
DA:12,0
DA:13,0
DA:14,0
DA:15,0
DA:16,0
DA:17,0
DA:18,0
DA:20,1
DA:21,1
DA:22,1
DA:24,0
DA:25,0
DA:26,0
DA:27,0
DA:28,0
DA:29,0
DA:30,0
DA:36,1
DA:37,1
DA:38,1
DA:39,1
DA:40,1
DA:41,1
DA:42,1
DA:44,1
DA:46,0
DA:47,0
DA:48,0
DA:49,0
DA:50,0
DA:51,0
DA:52,0
DA:53,0
DA:54,0
DA:55,0
DA:57,0
DA:59,0
DA:60,0
DA:61,0
DA:62,0
DA:63,0
DA:64,0
DA:65,0
DA:70,0
DA:73,0
DA:75,0
DA:76,0
DA:77,0
DA:78,0
DA:79,0
DA:80,0
DA:81,0
DA:82,0
DA:83,0
DA:84,0
DA:85,0
DA:86,0
DA:88,0
DA:89,0
DA:90,0
DA:94,0
DA:96,0
DA:98,0
DA:100,0
BRF:0
BRH:0
LF:74
LH:14
end_of_record
SF:/Users/esmevane/Code/projects/oneiros/crates/oneiros-engine/src/domains/connection/features/projections.rs
FN:6,_RNvMNtNtNtNtCsk2dDpYChjKI_14oneiros_engine7domains10connection8features11projectionsNtB2_21ConnectionProjections3all
FN:13,_RNCNvNtNtNtNtCsk2dDpYChjKI_14oneiros_engine7domains10connection8features11projections11PROJECTIONS0Bb_
FN:15,_RNCNvNtNtNtNtCsk2dDpYChjKI_14oneiros_engine7domains10connection8features11projections11PROJECTIONSs0_0Bb_
FN:14,_RNCNvNtNtNtNtCsk2dDpYChjKI_14oneiros_engine7domains10connection8features11projections11PROJECTIONSs_0Bb_
FNDA:5825,_RNvMNtNtNtNtCsk2dDpYChjKI_14oneiros_engine7domains10connection8features11projectionsNtB2_21ConnectionProjections3all
FNDA:574,_RNCNvNtNtNtNtCsk2dDpYChjKI_14oneiros_engine7domains10connection8features11projections11PROJECTIONS0Bb_
FNDA:288,_RNCNvNtNtNtNtCsk2dDpYChjKI_14oneiros_engine7domains10connection8features11projections11PROJECTIONSs0_0Bb_
FNDA:7005,_RNCNvNtNtNtNtCsk2dDpYChjKI_14oneiros_engine7domains10connection8features11projections11PROJECTIONSs_0Bb_
FNF:4
FNH:4
DA:6,5825
DA:7,5825
DA:8,5825
DA:13,574
DA:14,7005
DA:15,288
BRF:0
BRH:0
LF:6
LH:6
end_of_record
SF:/Users/esmevane/Code/projects/oneiros/crates/oneiros-engine/src/domains/connection/features/skills.rs
FN:6,_RNvMNtNtNtNtCsk2dDpYChjKI_14oneiros_engine7domains10connection8features6skillsNtB2_16ConnectionSkills3all
FNDA:12,_RNvMNtNtNtNtCsk2dDpYChjKI_14oneiros_engine7domains10connection8features6skillsNtB2_16ConnectionSkills3all
FNF:1
FNH:1
DA:6,12
DA:7,12
DA:8,12
DA:9,12
DA:10,12
DA:11,12
DA:13,12
BRF:0
BRH:0
LF:7
LH:7
end_of_record
SF:/Users/esmevane/Code/projects/oneiros/crates/oneiros-engine/src/domains/connection/features/state.rs
FN:6,_RNvMNtNtNtNtCsk2dDpYChjKI_14oneiros_engine7domains10connection8features5stateNtB2_15ConnectionState6reduce
FN:25,_RNvMNtNtNtNtCsk2dDpYChjKI_14oneiros_engine7domains10connection8features5stateNtB2_15ConnectionState7reducer
FNDA:7005,_RNvMNtNtNtNtCsk2dDpYChjKI_14oneiros_engine7domains10connection8features5stateNtB2_15ConnectionState6reduce
FNDA:580,_RNvMNtNtNtNtCsk2dDpYChjKI_14oneiros_engine7domains10connection8features5stateNtB2_15ConnectionState7reducer
FNF:2
FNH:2
DA:6,7005
DA:7,7005
DA:8,21
DA:9,19
DA:10,19
DA:11,19
DA:12,19
DA:14,2
DA:15,2
DA:16,2
DA:17,2
DA:20,6984
DA:22,7005
DA:23,7005
DA:25,580
DA:26,580
DA:27,580
BRF:0
BRH:0
LF:17
LH:17
end_of_record
SF:/Users/esmevane/Code/projects/oneiros/crates/oneiros-engine/src/domains/connection/model.rs
FN:24,_RNvMNtNtNtCsk2dDpYChjKI_14oneiros_engine7domains10connection5modelNtB2_10Connection12get_to_token
FN:20,_RNvMNtNtNtCsk2dDpYChjKI_14oneiros_engine7domains10connection5modelNtB2_10Connection14get_from_token
FN:30,_RNvXs_NtNtNtCsk2dDpYChjKI_14oneiros_engine7domains10connection5modelNtB4_10ConnectionINtNtNtBa_6values12entity_index9IndexableNtB4_12ConnectionIdE2id
FNDA:1,_RNvMNtNtNtCsk2dDpYChjKI_14oneiros_engine7domains10connection5modelNtB2_10Connection12get_to_token
FNDA:1,_RNvMNtNtNtCsk2dDpYChjKI_14oneiros_engine7domains10connection5modelNtB2_10Connection14get_from_token
FNDA:20,_RNvXs_NtNtNtCsk2dDpYChjKI_14oneiros_engine7domains10connection5modelNtB4_10ConnectionINtNtNtBa_6values12entity_index9IndexableNtB4_12ConnectionIdE2id
FNF:3
FNH:3
DA:20,1
DA:21,1
DA:22,1
DA:24,1
DA:25,1
DA:26,1
DA:30,20
DA:31,20
DA:32,20
BRF:0
BRH:0
LF:9
LH:9
end_of_record
SF:/Users/esmevane/Code/projects/oneiros/crates/oneiros-engine/src/domains/connection/protocol/errors.rs
FN:37,_RNvXNtNtNtNtCsk2dDpYChjKI_14oneiros_engine7domains10connection8protocol6errorsNtB2_15ConnectionErrorNtNtNtCs1iC2TOwIRjP_9axum_core8response13into_response12IntoResponse13into_response
FNDA:2,_RNvXNtNtNtNtCsk2dDpYChjKI_14oneiros_engine7domains10connection8protocol6errorsNtB2_15ConnectionErrorNtNtNtCs1iC2TOwIRjP_9axum_core8response13into_response12IntoResponse13into_response
FNF:1
FNH:1
DA:37,2
DA:38,2
DA:39,2
DA:40,0
DA:41,0
DA:43,0
DA:45,0
DA:46,0
DA:47,0
DA:49,2
DA:50,2
BRF:0
BRH:0
LF:11
LH:5
end_of_record
SF:/Users/esmevane/Code/projects/oneiros/crates/oneiros-engine/src/domains/connection/protocol/events.rs
FN:34,_RNvNtNtNtNtNtCsk2dDpYChjKI_14oneiros_engine7domains10connection8protocol6events5tests17sample_connection
FN:43,_RNvNtNtNtNtNtCsk2dDpYChjKI_14oneiros_engine7domains10connection8protocol6events5testss_27event_types_are_kebab_cased
FN:60,_RNvNtNtNtNtNtCsk2dDpYChjKI_14oneiros_engine7domains10connection8protocol6events5testss_38connection_created_wire_format_is_flat
FNDA:1,_RNvNtNtNtNtNtCsk2dDpYChjKI_14oneiros_engine7domains10connection8protocol6events5tests17sample_connection
FNDA:1,_RNvNtNtNtNtNtCsk2dDpYChjKI_14oneiros_engine7domains10connection8protocol6events5testss_27event_types_are_kebab_cased
FNDA:1,_RNvNtNtNtNtNtCsk2dDpYChjKI_14oneiros_engine7domains10connection8protocol6events5testss_38connection_created_wire_format_is_flat
FNF:3
FNH:3
DA:34,1
DA:35,1
DA:36,1
DA:37,1
DA:38,1
DA:39,1
DA:40,1
DA:43,1
DA:44,1
DA:45,1
DA:46,1
DA:47,1
DA:48,1
DA:49,1
DA:50,1
DA:51,1
DA:52,1
DA:53,1
DA:54,2
DA:55,2
DA:57,1
DA:60,1
DA:61,1
DA:62,1
DA:63,1
DA:64,1
DA:66,1
DA:67,1
DA:68,1
DA:69,1
DA:72,1
DA:73,1
DA:74,1
DA:75,1
DA:76,1
DA:79,1
BRF:0
BRH:0
LF:36
LH:36
end_of_record
SF:/Users/esmevane/Code/projects/oneiros/crates/oneiros-engine/src/domains/connection/protocol/requests.rs
FN:22,_RNvXNtNtNtNtCsk2dDpYChjKI_14oneiros_engine7domains10connection8protocol8requestsNtB2_16CreateConnectionNtNtBa_6client13ClientRequest15execute_request
FN:64,_RNvXs0_NtNtNtNtCsk2dDpYChjKI_14oneiros_engine7domains10connection8protocol8requestsNtB5_15ListConnectionsNtNtBd_6client13ClientRequest15execute_request
FN:98,_RNvXs1_NtNtNtNtCsk2dDpYChjKI_14oneiros_engine7domains10connection8protocol8requestsNtB5_16RemoveConnectionNtNtBd_6client13ClientRequest15execute_request
FN:40,_RNvXs_NtNtNtNtCsk2dDpYChjKI_14oneiros_engine7domains10connection8protocol8requestsNtB4_13GetConnectionNtNtBc_6client13ClientRequest15execute_request
FN:119,_RNvNtNtNtNtNtCsk2dDpYChjKI_14oneiros_engine7domains10connection8protocol8requests5testss_29request_types_are_kebab_cased
FN:77,_RNCNCNvXs0_NtNtNtNtCsk2dDpYChjKI_14oneiros_engine7domains10connection8protocol8requestsNtB9_15ListConnectionsNtNtBh_6client13ClientRequest15execute_request00Bh_
FN:22,_RNCNvXNtNtNtNtCsk2dDpYChjKI_14oneiros_engine7domains10connection8protocol8requestsNtB4_16CreateConnectionNtNtBc_6client13ClientRequest15execute_request0Bc_
FN:64,_RNCNvXs0_NtNtNtNtCsk2dDpYChjKI_14oneiros_engine7domains10connection8protocol8requestsNtB7_15ListConnectionsNtNtBf_6client13ClientRequest15execute_request0Bf_
FN:98,_RNCNvXs1_NtNtNtNtCsk2dDpYChjKI_14oneiros_engine7domains10connection8protocol8requestsNtB7_16RemoveConnectionNtNtBf_6client13ClientRequest15execute_request0Bf_
FN:40,_RNCNvXs_NtNtNtNtCsk2dDpYChjKI_14oneiros_engine7domains10connection8protocol8requestsNtB6_13GetConnectionNtNtBe_6client13ClientRequest15execute_request0Be_
FNDA:19,_RNvXNtNtNtNtCsk2dDpYChjKI_14oneiros_engine7domains10connection8protocol8requestsNtB2_16CreateConnectionNtNtBa_6client13ClientRequest15execute_request
FNDA:6,_RNvXs0_NtNtNtNtCsk2dDpYChjKI_14oneiros_engine7domains10connection8protocol8requestsNtB5_15ListConnectionsNtNtBd_6client13ClientRequest15execute_request
FNDA:3,_RNvXs1_NtNtNtNtCsk2dDpYChjKI_14oneiros_engine7domains10connection8protocol8requestsNtB5_16RemoveConnectionNtNtBd_6client13ClientRequest15execute_request
FNDA:3,_RNvXs_NtNtNtNtCsk2dDpYChjKI_14oneiros_engine7domains10connection8protocol8requestsNtB4_13GetConnectionNtNtBc_6client13ClientRequest15execute_request
FNDA:1,_RNvNtNtNtNtNtCsk2dDpYChjKI_14oneiros_engine7domains10connection8protocol8requests5testss_29request_types_are_kebab_cased
FNDA:12,_RNCNCNvXs0_NtNtNtNtCsk2dDpYChjKI_14oneiros_engine7domains10connection8protocol8requestsNtB9_15ListConnectionsNtNtBh_6client13ClientRequest15execute_request00Bh_
FNDA:19,_RNCNvXNtNtNtNtCsk2dDpYChjKI_14oneiros_engine7domains10connection8protocol8requestsNtB4_16CreateConnectionNtNtBc_6client13ClientRequest15execute_request0Bc_
FNDA:6,_RNCNvXs0_NtNtNtNtCsk2dDpYChjKI_14oneiros_engine7domains10connection8protocol8requestsNtB7_15ListConnectionsNtNtBf_6client13ClientRequest15execute_request0Bf_
FNDA:3,_RNCNvXs1_NtNtNtNtCsk2dDpYChjKI_14oneiros_engine7domains10connection8protocol8requestsNtB7_16RemoveConnectionNtNtBf_6client13ClientRequest15execute_request0Bf_
FNDA:3,_RNCNvXs_NtNtNtNtCsk2dDpYChjKI_14oneiros_engine7domains10connection8protocol8requestsNtB6_13GetConnectionNtNtBe_6client13ClientRequest15execute_request0Be_
FNF:10
FNH:10
DA:22,19
DA:23,19
DA:24,19
DA:40,3
DA:41,3
DA:42,3
DA:43,3
DA:64,6
DA:65,6
DA:66,6
DA:68,6
DA:69,0
DA:70,6
DA:72,6
DA:73,6
DA:75,6
DA:76,6
DA:77,12
DA:78,6
DA:79,6
DA:81,6
DA:82,6
DA:98,3
DA:99,3
DA:100,3
DA:101,3
DA:119,1
DA:120,1
DA:121,1
DA:122,1
DA:123,1
DA:124,1
DA:125,1
DA:127,4
DA:128,4
DA:130,1
BRF:0
BRH:0
LF:41
LH:40
end_of_record
SF:/Users/esmevane/Code/projects/oneiros/crates/oneiros-engine/src/domains/connection/repo.rs
FN:30,_RNCNCNvMNtNtNtCsk2dDpYChjKI_14oneiros_engine7domains10connection4repoNtB6_14ConnectionRepo3get00Bc_
FN:84,_RNCNCNvMNtNtNtCsk2dDpYChjKI_14oneiros_engine7domains10connection4repoNtB6_14ConnectionRepo4list00Bc_
FN:101,_RNCNCNvMNtNtNtCsk2dDpYChjKI_14oneiros_engine7domains10connection4repoNtB6_14ConnectionRepo4list0s0_0Bc_
FN:113,_RNCNCNvMNtNtNtCsk2dDpYChjKI_14oneiros_engine7domains10connection4repoNtB6_14ConnectionRepo4list0s1_0Bc_
FN:118,_RNCNCNvMNtNtNtCsk2dDpYChjKI_14oneiros_engine7domains10connection4repoNtB6_14ConnectionRepo4list0s2_0Bc_
FN:86,_RNCNCNvMNtNtNtCsk2dDpYChjKI_14oneiros_engine7domains10connection4repoNtB6_14ConnectionRepo4list0s_0Bc_
FN:20,_RNCNCNvMNtNtNtCsk2dDpYChjKI_14oneiros_engine7domains10connection4repoNtB6_14ConnectionRepo5fetch00Bc_
FN:23,_RNCNvMNtNtNtCsk2dDpYChjKI_14oneiros_engine7domains10connection4repoNtB4_14ConnectionRepo3get0Ba_
FN:59,_RNCNvMNtNtNtCsk2dDpYChjKI_14oneiros_engine7domains10connection4repoNtB4_14ConnectionRepo4list0Ba_
FN:19,_RNCNvMNtNtNtCsk2dDpYChjKI_14oneiros_engine7domains10connection4repoNtB4_14ConnectionRepo5fetch0Ba_
FN:23,_RNvMNtNtNtCsk2dDpYChjKI_14oneiros_engine7domains10connection4repoNtB2_14ConnectionRepo3get
FN:11,_RNvMNtNtNtCsk2dDpYChjKI_14oneiros_engine7domains10connection4repoNtB2_14ConnectionRepo3new
FN:55,_RNvMNtNtNtCsk2dDpYChjKI_14oneiros_engine7domains10connection4repoNtB2_14ConnectionRepo4list
FN:19,_RNvMNtNtNtCsk2dDpYChjKI_14oneiros_engine7domains10connection4repoNtB2_14ConnectionRepo5fetch
FNDA:25,_RNCNCNvMNtNtNtCsk2dDpYChjKI_14oneiros_engine7domains10connection4repoNtB6_14ConnectionRepo3get00Bc_
FNDA:0,_RNCNCNvMNtNtNtCsk2dDpYChjKI_14oneiros_engine7domains10connection4repoNtB6_14ConnectionRepo4list00Bc_
FNDA:4,_RNCNCNvMNtNtNtCsk2dDpYChjKI_14oneiros_engine7domains10connection4repoNtB6_14ConnectionRepo4list0s0_0Bc_
FNDA:0,_RNCNCNvMNtNtNtCsk2dDpYChjKI_14oneiros_engine7domains10connection4repoNtB6_14ConnectionRepo4list0s1_0Bc_
FNDA:12,_RNCNCNvMNtNtNtCsk2dDpYChjKI_14oneiros_engine7domains10connection4repoNtB6_14ConnectionRepo4list0s2_0Bc_
FNDA:6,_RNCNCNvMNtNtNtCsk2dDpYChjKI_14oneiros_engine7domains10connection4repoNtB6_14ConnectionRepo4list0s_0Bc_
FNDA:75,_RNCNCNvMNtNtNtCsk2dDpYChjKI_14oneiros_engine7domains10connection4repoNtB6_14ConnectionRepo5fetch00Bc_
FNDA:79,_RNCNvMNtNtNtCsk2dDpYChjKI_14oneiros_engine7domains10connection4repoNtB4_14ConnectionRepo3get0Ba_
FNDA:6,_RNCNvMNtNtNtCsk2dDpYChjKI_14oneiros_engine7domains10connection4repoNtB4_14ConnectionRepo4list0Ba_
FNDA:25,_RNCNvMNtNtNtCsk2dDpYChjKI_14oneiros_engine7domains10connection4repoNtB4_14ConnectionRepo5fetch0Ba_
FNDA:79,_RNvMNtNtNtCsk2dDpYChjKI_14oneiros_engine7domains10connection4repoNtB2_14ConnectionRepo3get
FNDA:35,_RNvMNtNtNtCsk2dDpYChjKI_14oneiros_engine7domains10connection4repoNtB2_14ConnectionRepo3new
FNDA:6,_RNvMNtNtNtCsk2dDpYChjKI_14oneiros_engine7domains10connection4repoNtB2_14ConnectionRepo4list
FNDA:25,_RNvMNtNtNtCsk2dDpYChjKI_14oneiros_engine7domains10connection4repoNtB2_14ConnectionRepo5fetch
FNF:14
FNH:12
DA:11,35
DA:12,35
DA:13,35
DA:19,25
DA:20,75
DA:21,25
DA:23,79
DA:24,79
DA:25,79
DA:26,79
DA:27,79
DA:28,79
DA:30,79
DA:32,25
DA:33,25
DA:34,25
DA:35,25
DA:36,25
DA:38,25
DA:40,54
DA:41,25
DA:42,25
DA:43,25
DA:44,25
DA:45,25
DA:46,25
DA:47,25
DA:48,25
DA:50,54
DA:51,0
DA:53,79
DA:55,6
DA:56,6
DA:57,6
DA:58,6
DA:59,6
DA:60,6
DA:63,6
DA:64,6
DA:66,6
DA:67,0
DA:68,0
DA:69,0
DA:70,6
DA:72,6
DA:73,6
DA:75,0
DA:79,6
DA:80,6
DA:81,6
DA:82,6
DA:83,6
DA:84,6
DA:85,6
DA:86,6
DA:90,6
DA:95,6
DA:96,6
DA:99,6
DA:101,6
DA:103,4
DA:104,4
DA:105,4
DA:106,4
DA:107,4
DA:109,4
DA:111,6
DA:112,6
DA:113,6
DA:114,6
DA:115,6
DA:116,6
DA:118,12
DA:120,6
DA:121,6
DA:122,6
DA:124,6
DA:125,6
DA:126,4
DA:127,4
DA:128,4
DA:129,4
DA:130,4
DA:131,4
DA:132,4
DA:133,4
DA:137,6
DA:138,6
BRF:0
BRH:0
LF:98
LH:91
end_of_record
SF:/Users/esmevane/Code/projects/oneiros/crates/oneiros-engine/src/domains/connection/service.rs
FN:49,_RNvMNtNtNtCsk2dDpYChjKI_14oneiros_engine7domains10connection7serviceNtB2_17ConnectionService3get
FN:67,_RNvMNtNtNtCsk2dDpYChjKI_14oneiros_engine7domains10connection7serviceNtB2_17ConnectionService4list
FN:6,_RNvMNtNtNtCsk2dDpYChjKI_14oneiros_engine7domains10connection7serviceNtB2_17ConnectionService6create
FN:97,_RNvMNtNtNtCsk2dDpYChjKI_14oneiros_engine7domains10connection7serviceNtB2_17ConnectionService6remove
FN:77,_RNCNCNCNvMNtNtNtCsk2dDpYChjKI_14oneiros_engine7domains10connection7serviceNtB8_17ConnectionService4list000Be_
FN:130,_RNCNCNCNvMNtNtNtCsk2dDpYChjKI_14oneiros_engine7domains10connection7serviceNtB8_17ConnectionService6remove000Be_
FN:75,_RNCNCNvMNtNtNtCsk2dDpYChjKI_14oneiros_engine7domains10connection7serviceNtB6_17ConnectionService4list00Bc_
FN:130,_RNCNCNvMNtNtNtCsk2dDpYChjKI_14oneiros_engine7domains10connection7serviceNtB6_17ConnectionService6remove00Bc_
FN:52,_RNCNvMNtNtNtCsk2dDpYChjKI_14oneiros_engine7domains10connection7serviceNtB4_17ConnectionService3get0Ba_
FN:70,_RNCNvMNtNtNtCsk2dDpYChjKI_14oneiros_engine7domains10connection7serviceNtB4_17ConnectionService4list0Ba_
FN:10,_RNCNvMNtNtNtCsk2dDpYChjKI_14oneiros_engine7domains10connection7serviceNtB4_17ConnectionService6create0Ba_
FN:101,_RNCNvMNtNtNtCsk2dDpYChjKI_14oneiros_engine7domains10connection7serviceNtB4_17ConnectionService6remove0Ba_
FNDA:3,_RNvMNtNtNtCsk2dDpYChjKI_14oneiros_engine7domains10connection7serviceNtB2_17ConnectionService3get
FNDA:6,_RNvMNtNtNtCsk2dDpYChjKI_14oneiros_engine7domains10connection7serviceNtB2_17ConnectionService4list
FNDA:19,_RNvMNtNtNtCsk2dDpYChjKI_14oneiros_engine7domains10connection7serviceNtB2_17ConnectionService6create
FNDA:3,_RNvMNtNtNtCsk2dDpYChjKI_14oneiros_engine7domains10connection7serviceNtB2_17ConnectionService6remove
FNDA:0,_RNCNCNCNvMNtNtNtCsk2dDpYChjKI_14oneiros_engine7domains10connection7serviceNtB8_17ConnectionService4list000Be_
FNDA:4,_RNCNCNCNvMNtNtNtCsk2dDpYChjKI_14oneiros_engine7domains10connection7serviceNtB8_17ConnectionService6remove000Be_
FNDA:0,_RNCNCNvMNtNtNtCsk2dDpYChjKI_14oneiros_engine7domains10connection7serviceNtB6_17ConnectionService4list00Bc_
FNDA:4,_RNCNCNvMNtNtNtCsk2dDpYChjKI_14oneiros_engine7domains10connection7serviceNtB6_17ConnectionService6remove00Bc_
FNDA:3,_RNCNvMNtNtNtCsk2dDpYChjKI_14oneiros_engine7domains10connection7serviceNtB4_17ConnectionService3get0Ba_
FNDA:6,_RNCNvMNtNtNtCsk2dDpYChjKI_14oneiros_engine7domains10connection7serviceNtB4_17ConnectionService4list0Ba_
FNDA:19,_RNCNvMNtNtNtCsk2dDpYChjKI_14oneiros_engine7domains10connection7serviceNtB4_17ConnectionService6create0Ba_
FNDA:3,_RNCNvMNtNtNtCsk2dDpYChjKI_14oneiros_engine7domains10connection7serviceNtB4_17ConnectionService6remove0Ba_
FNF:12
FNH:10
DA:6,19
DA:7,19
DA:8,19
DA:9,19
DA:10,19
DA:11,19
DA:13,19
DA:14,19
DA:15,19
DA:16,19
DA:17,19
DA:18,19
DA:20,19
DA:21,19
DA:22,19
DA:23,19
DA:24,19
DA:25,19
DA:26,19
DA:27,19
DA:29,19
DA:30,19
DA:31,19
DA:32,19
DA:33,19
DA:36,19
DA:37,19
DA:38,19
DA:39,19
DA:41,19
DA:42,19
DA:43,19
DA:44,19
DA:45,19
DA:46,19
DA:47,19
DA:49,3
DA:50,3
DA:51,3
DA:52,3
DA:53,3
DA:54,3
DA:55,3
DA:56,3
DA:57,3
DA:58,3
DA:59,2
DA:60,2
DA:61,2
DA:62,2
DA:63,2
DA:64,2
DA:65,3
DA:67,6
DA:68,6
DA:69,6
DA:70,6
DA:71,6
DA:72,6
DA:73,6
DA:74,6
DA:75,6
DA:76,0
DA:77,0
DA:78,0
DA:79,6
DA:81,6
DA:82,6
DA:83,6
DA:84,6
DA:85,2
DA:87,4
DA:88,4
DA:89,4
DA:90,4
DA:91,4
DA:92,4
DA:93,4
DA:95,6
DA:97,3
DA:98,3
DA:99,3
DA:100,3
DA:101,3
DA:102,3
DA:103,3
DA:104,3
DA:105,3
DA:106,3
DA:108,1
DA:109,2
DA:111,2
DA:112,2
DA:113,2
DA:114,2
DA:115,2
DA:116,2
DA:117,2
DA:118,2
DA:120,2
DA:121,2
DA:122,2
DA:123,2
DA:124,2
DA:127,2
DA:128,2
DA:129,2
DA:130,8
DA:131,2
DA:133,2
DA:134,2
DA:135,2
DA:136,2
DA:137,2
DA:138,2
DA:139,3
BRF:0
BRH:0
LF:124
LH:119
end_of_record
SF:/Users/esmevane/Code/projects/oneiros/crates/oneiros-engine/src/domains/connection/store.rs
FN:95,_RNvMNtNtNtCsk2dDpYChjKI_14oneiros_engine7domains10connection5storeNtB2_15ConnectionStore16write_connection
FN:11,_RNvMNtNtNtCsk2dDpYChjKI_14oneiros_engine7domains10connection5storeNtB2_15ConnectionStore3new
FN:49,_RNvMNtNtNtCsk2dDpYChjKI_14oneiros_engine7domains10connection5storeNtB2_15ConnectionStore4list
FN:31,_RNvMNtNtNtCsk2dDpYChjKI_14oneiros_engine7domains10connection5storeNtB2_15ConnectionStore5reset
FN:15,_RNvMNtNtNtCsk2dDpYChjKI_14oneiros_engine7domains10connection5storeNtB2_15ConnectionStore6handle
FN:111,_RNvMNtNtNtCsk2dDpYChjKI_14oneiros_engine7domains10connection5storeNtB2_15ConnectionStore6remove
FN:36,_RNvMNtNtNtCsk2dDpYChjKI_14oneiros_engine7domains10connection5storeNtB2_15ConnectionStore7migrate
FN:63,_RNCNvMNtNtNtCsk2dDpYChjKI_14oneiros_engine7domains10connection5storeNtB4_15ConnectionStore4list0Ba_
FNDA:19,_RNvMNtNtNtCsk2dDpYChjKI_14oneiros_engine7domains10connection5storeNtB2_15ConnectionStore16write_connection
FNDA:7936,_RNvMNtNtNtCsk2dDpYChjKI_14oneiros_engine7domains10connection5storeNtB2_15ConnectionStore3new
FNDA:69,_RNvMNtNtNtCsk2dDpYChjKI_14oneiros_engine7domains10connection5storeNtB2_15ConnectionStore4list
FNDA:288,_RNvMNtNtNtCsk2dDpYChjKI_14oneiros_engine7domains10connection5storeNtB2_15ConnectionStore5reset
FNDA:7005,_RNvMNtNtNtCsk2dDpYChjKI_14oneiros_engine7domains10connection5storeNtB2_15ConnectionStore6handle
FNDA:2,_RNvMNtNtNtCsk2dDpYChjKI_14oneiros_engine7domains10connection5storeNtB2_15ConnectionStore6remove
FNDA:574,_RNvMNtNtNtCsk2dDpYChjKI_14oneiros_engine7domains10connection5storeNtB2_15ConnectionStore7migrate
FNDA:20,_RNCNvMNtNtNtCsk2dDpYChjKI_14oneiros_engine7domains10connection5storeNtB4_15ConnectionStore4list0Ba_
FNF:8
FNH:8
DA:11,7936
DA:12,7936
DA:13,7936
DA:15,7005
DA:16,7005
DA:17,21
DA:18,19
DA:19,19
DA:20,19
DA:22,2
DA:23,2
DA:24,2
DA:27,6984
DA:28,7005
DA:29,7005
DA:31,288
DA:32,288
DA:33,288
DA:34,288
DA:36,574
DA:37,574
DA:38,574
DA:39,574
DA:40,574
DA:41,574
DA:42,574
DA:43,574
DA:44,574
DA:45,0
DA:46,574
DA:47,574
DA:49,69
DA:50,69
DA:51,69
DA:52,69
DA:53,69
DA:54,69
DA:55,69
DA:56,0
DA:57,0
DA:58,0
DA:59,0
DA:60,0
DA:63,69
DA:65,20
DA:66,20
DA:67,20
DA:68,20
DA:69,20
DA:71,20
DA:73,69
DA:74,69
DA:75,0
DA:76,0
DA:77,69
DA:79,69
DA:80,69
DA:81,20
DA:82,20
DA:83,20
DA:84,20
DA:85,20
DA:86,20
DA:87,20
DA:88,20
DA:92,69
DA:93,69
DA:95,19
DA:96,19
DA:97,19
DA:98,19
DA:99,19
DA:100,19
DA:101,19
DA:102,19
DA:103,19
DA:104,19
DA:105,19
DA:107,0
DA:108,19
DA:109,19
DA:111,2
DA:112,2
DA:113,2
DA:114,2
DA:115,0
DA:116,2
DA:117,2
BRF:0
BRH:0
LF:89
LH:79
end_of_record
SF:/Users/esmevane/Code/projects/oneiros/crates/oneiros-engine/src/domains/connection/view.rs
FN:15,_RNvMNtNtNtCsk2dDpYChjKI_14oneiros_engine7domains10connection4viewNtB2_14ConnectionView3mcp
FN:11,_RNvMNtNtNtCsk2dDpYChjKI_14oneiros_engine7domains10connection4viewNtB2_14ConnectionView3new
FN:73,_RNvMNtNtNtCsk2dDpYChjKI_14oneiros_engine7domains10connection4viewNtB2_14ConnectionView6render
FNDA:0,_RNvMNtNtNtCsk2dDpYChjKI_14oneiros_engine7domains10connection4viewNtB2_14ConnectionView3mcp
FNDA:16,_RNvMNtNtNtCsk2dDpYChjKI_14oneiros_engine7domains10connection4viewNtB2_14ConnectionView3new
FNDA:16,_RNvMNtNtNtCsk2dDpYChjKI_14oneiros_engine7domains10connection4viewNtB2_14ConnectionView6render
FNF:3
FNH:2
DA:11,16
DA:12,16
DA:13,16
DA:15,0
DA:16,0
DA:17,0
DA:18,0
DA:19,0
DA:26,0
DA:28,0
DA:29,0
DA:36,0
DA:38,0
DA:39,0
DA:40,0
DA:41,0
DA:42,0
DA:43,0
DA:46,0
DA:48,0
DA:50,0
DA:53,0
DA:54,0
DA:55,0
DA:56,0
DA:57,0
DA:58,0
DA:59,0
DA:60,0
DA:64,0
DA:66,0
DA:67,0
DA:68,0
DA:71,0
DA:73,16
DA:74,16
DA:75,8
DA:76,8
DA:77,8
DA:79,8
DA:80,8
DA:82,8
DA:83,8
DA:84,8
DA:85,8
DA:86,8
DA:87,8
DA:89,8
DA:91,2
DA:92,2
DA:93,2
DA:94,2
DA:95,2
DA:96,2
DA:97,2
DA:98,2
DA:99,2
DA:100,2
DA:101,2
DA:102,2
DA:104,2
DA:106,2
DA:107,2
DA:108,2
DA:109,2
DA:110,2
DA:111,2
DA:113,2
DA:114,2
DA:115,2
DA:116,2
DA:117,2
DA:118,2
DA:119,2
DA:120,2
DA:121,2
DA:122,2
DA:124,2
DA:126,2
DA:127,2
DA:128,2
DA:129,2
DA:132,2
DA:133,2
DA:134,2
DA:135,2
DA:137,2
DA:138,2
DA:139,2
DA:140,2
DA:141,2
DA:142,2
DA:143,2
DA:147,16
BRF:0
BRH:0
LF:94
LH:63
end_of_record
SF:/Users/esmevane/Code/projects/oneiros/crates/oneiros-engine/src/domains/continuity/docs.rs
FN:24,_RNvMNtNtNtCsk2dDpYChjKI_14oneiros_engine7domains10continuity4docsNtB2_14ContinuityDocs13resource_docs
FN:17,_RNvMNtNtNtCsk2dDpYChjKI_14oneiros_engine7domains10continuity4docsNtB2_14ContinuityDocs3tag
FNDA:3040,_RNvMNtNtNtCsk2dDpYChjKI_14oneiros_engine7domains10continuity4docsNtB2_14ContinuityDocs13resource_docs
FNDA:3344,_RNvMNtNtNtCsk2dDpYChjKI_14oneiros_engine7domains10continuity4docsNtB2_14ContinuityDocs3tag
FNF:2
FNH:2
DA:17,3344
DA:18,3344
DA:19,3344
DA:20,3344
DA:21,3344
DA:22,3344
DA:24,3040
DA:25,3040
DA:26,3040
DA:27,304
DA:28,304
DA:29,304
DA:30,304
DA:31,304
DA:32,304
DA:33,304
DA:34,304
DA:35,304
DA:36,304
DA:37,304
DA:38,304
DA:39,304
DA:40,304
DA:41,304
DA:42,304
DA:43,304
DA:44,304
DA:45,304
DA:46,304
DA:47,304
DA:48,304
DA:49,304
DA:50,304
DA:51,304
DA:52,304
DA:53,304
DA:54,304
DA:55,304
DA:56,304
DA:57,304
DA:58,304
DA:59,304
DA:60,304
DA:61,304
DA:62,304
DA:63,304
DA:64,304
DA:65,304
DA:66,304
DA:67,304
DA:68,304
DA:69,304
DA:70,304
DA:71,304
DA:72,304
DA:73,304
DA:74,304
DA:75,304
DA:76,304
DA:77,304
DA:78,304
DA:79,304
DA:80,304
DA:81,304
DA:82,304
DA:83,304
DA:84,304
DA:85,304
DA:86,304
DA:88,3040
BRF:0
BRH:0
LF:70
LH:70
end_of_record
SF:/Users/esmevane/Code/projects/oneiros/crates/oneiros-engine/src/domains/continuity/features/cli.rs
FN:20,_RNvMNtNtNtNtCsk2dDpYChjKI_14oneiros_engine7domains10continuity8features3cliNtB2_18ContinuityCommands7execute
FN:23,_RNCNvMNtNtNtNtCsk2dDpYChjKI_14oneiros_engine7domains10continuity8features3cliNtB4_18ContinuityCommands7execute0Bc_
FNDA:51,_RNvMNtNtNtNtCsk2dDpYChjKI_14oneiros_engine7domains10continuity8features3cliNtB2_18ContinuityCommands7execute
FNDA:51,_RNCNvMNtNtNtNtCsk2dDpYChjKI_14oneiros_engine7domains10continuity8features3cliNtB4_18ContinuityCommands7execute0Bc_
FNF:2
FNH:2
DA:20,51
DA:21,51
DA:22,51
DA:23,51
DA:24,51
DA:26,51
DA:27,2
DA:28,10
DA:29,4
DA:30,3
DA:31,1
DA:32,3
DA:33,2
DA:34,20
DA:35,2
DA:36,4
DA:39,48
DA:40,48
DA:41,51
BRF:0
BRH:0
LF:20
LH:20
end_of_record
SF:/Users/esmevane/Code/projects/oneiros/crates/oneiros-engine/src/domains/continuity/features/http.rs
FN:19,_RNCNvMNtNtNtNtCsk2dDpYChjKI_14oneiros_engine7domains10continuity8features4httpNtB4_16ContinuityRouter6routes0Bc_
FN:30,_RNCNvMNtNtNtNtCsk2dDpYChjKI_14oneiros_engine7domains10continuity8features4httpNtB4_16ContinuityRouter6routess0_0Bc_
FN:36,_RNCNvMNtNtNtNtCsk2dDpYChjKI_14oneiros_engine7domains10continuity8features4httpNtB4_16ContinuityRouter6routess1_0Bc_
FN:42,_RNCNvMNtNtNtNtCsk2dDpYChjKI_14oneiros_engine7domains10continuity8features4httpNtB4_16ContinuityRouter6routess2_0Bc_
FN:48,_RNCNvMNtNtNtNtCsk2dDpYChjKI_14oneiros_engine7domains10continuity8features4httpNtB4_16ContinuityRouter6routess3_0Bc_
FN:55,_RNCNvMNtNtNtNtCsk2dDpYChjKI_14oneiros_engine7domains10continuity8features4httpNtB4_16ContinuityRouter6routess4_0Bc_
FN:62,_RNCNvMNtNtNtNtCsk2dDpYChjKI_14oneiros_engine7domains10continuity8features4httpNtB4_16ContinuityRouter6routess5_0Bc_
FN:68,_RNCNvMNtNtNtNtCsk2dDpYChjKI_14oneiros_engine7domains10continuity8features4httpNtB4_16ContinuityRouter6routess6_0Bc_
FN:74,_RNCNvMNtNtNtNtCsk2dDpYChjKI_14oneiros_engine7domains10continuity8features4httpNtB4_16ContinuityRouter6routess7_0Bc_
FN:22,_RNCNvMNtNtNtNtCsk2dDpYChjKI_14oneiros_engine7domains10continuity8features4httpNtB4_16ContinuityRouter6routess_0Bc_
FN:155,_RNCNvNtNtNtNtCsk2dDpYChjKI_14oneiros_engine7domains10continuity8features4http10introspect0Bb_
FN:121,_RNCNvNtNtNtNtCsk2dDpYChjKI_14oneiros_engine7domains10continuity8features4http4wake0Bb_
FN:138,_RNCNvNtNtNtNtCsk2dDpYChjKI_14oneiros_engine7domains10continuity8features4http5dream0Bb_
FN:189,_RNCNvNtNtNtNtCsk2dDpYChjKI_14oneiros_engine7domains10continuity8features4http5sense0Bb_
FN:206,_RNCNvNtNtNtNtCsk2dDpYChjKI_14oneiros_engine7domains10continuity8features4http5sleep0Bb_
FN:87,_RNCNvNtNtNtNtCsk2dDpYChjKI_14oneiros_engine7domains10continuity8features4http6emerge0Bb_
FN:98,_RNCNvNtNtNtNtCsk2dDpYChjKI_14oneiros_engine7domains10continuity8features4http6recede0Bb_
FN:112,_RNCNvNtNtNtNtCsk2dDpYChjKI_14oneiros_engine7domains10continuity8features4http6status0Bb_
FN:172,_RNCNvNtNtNtNtCsk2dDpYChjKI_14oneiros_engine7domains10continuity8features4http7reflect0Bb_
FN:222,_RNCNvNtNtNtNtCsk2dDpYChjKI_14oneiros_engine7domains10continuity8features4http9guidebook0Bb_
FN:13,_RNvMNtNtNtNtCsk2dDpYChjKI_14oneiros_engine7domains10continuity8features4httpNtB2_16ContinuityRouter6routes
FN:150,_RNvNtNtNtNtCsk2dDpYChjKI_14oneiros_engine7domains10continuity8features4http10introspect
FN:116,_RNvNtNtNtNtCsk2dDpYChjKI_14oneiros_engine7domains10continuity8features4http4wake
FN:133,_RNvNtNtNtNtCsk2dDpYChjKI_14oneiros_engine7domains10continuity8features4http5dream
FN:184,_RNvNtNtNtNtCsk2dDpYChjKI_14oneiros_engine7domains10continuity8features4http5sense
FN:201,_RNvNtNtNtNtCsk2dDpYChjKI_14oneiros_engine7domains10continuity8features4http5sleep
FN:83,_RNvNtNtNtNtCsk2dDpYChjKI_14oneiros_engine7domains10continuity8features4http6emerge
FN:94,_RNvNtNtNtNtCsk2dDpYChjKI_14oneiros_engine7domains10continuity8features4http6recede
FN:109,_RNvNtNtNtNtCsk2dDpYChjKI_14oneiros_engine7domains10continuity8features4http6status
FN:167,_RNvNtNtNtNtCsk2dDpYChjKI_14oneiros_engine7domains10continuity8features4http7reflect
FN:218,_RNvNtNtNtNtCsk2dDpYChjKI_14oneiros_engine7domains10continuity8features4http9guidebook
FNDA:304,_RNCNvMNtNtNtNtCsk2dDpYChjKI_14oneiros_engine7domains10continuity8features4httpNtB4_16ContinuityRouter6routes0Bc_
FNDA:304,_RNCNvMNtNtNtNtCsk2dDpYChjKI_14oneiros_engine7domains10continuity8features4httpNtB4_16ContinuityRouter6routess0_0Bc_
FNDA:304,_RNCNvMNtNtNtNtCsk2dDpYChjKI_14oneiros_engine7domains10continuity8features4httpNtB4_16ContinuityRouter6routess1_0Bc_
FNDA:304,_RNCNvMNtNtNtNtCsk2dDpYChjKI_14oneiros_engine7domains10continuity8features4httpNtB4_16ContinuityRouter6routess2_0Bc_
FNDA:304,_RNCNvMNtNtNtNtCsk2dDpYChjKI_14oneiros_engine7domains10continuity8features4httpNtB4_16ContinuityRouter6routess3_0Bc_
FNDA:304,_RNCNvMNtNtNtNtCsk2dDpYChjKI_14oneiros_engine7domains10continuity8features4httpNtB4_16ContinuityRouter6routess4_0Bc_
FNDA:304,_RNCNvMNtNtNtNtCsk2dDpYChjKI_14oneiros_engine7domains10continuity8features4httpNtB4_16ContinuityRouter6routess5_0Bc_
FNDA:304,_RNCNvMNtNtNtNtCsk2dDpYChjKI_14oneiros_engine7domains10continuity8features4httpNtB4_16ContinuityRouter6routess6_0Bc_
FNDA:304,_RNCNvMNtNtNtNtCsk2dDpYChjKI_14oneiros_engine7domains10continuity8features4httpNtB4_16ContinuityRouter6routess7_0Bc_
FNDA:304,_RNCNvMNtNtNtNtCsk2dDpYChjKI_14oneiros_engine7domains10continuity8features4httpNtB4_16ContinuityRouter6routess_0Bc_
FNDA:7,_RNCNvNtNtNtNtCsk2dDpYChjKI_14oneiros_engine7domains10continuity8features4http10introspect0Bb_
FNDA:2,_RNCNvNtNtNtNtCsk2dDpYChjKI_14oneiros_engine7domains10continuity8features4http4wake0Bb_
FNDA:51,_RNCNvNtNtNtNtCsk2dDpYChjKI_14oneiros_engine7domains10continuity8features4http5dream0Bb_
FNDA:1,_RNCNvNtNtNtNtCsk2dDpYChjKI_14oneiros_engine7domains10continuity8features4http5sense0Bb_
FNDA:5,_RNCNvNtNtNtNtCsk2dDpYChjKI_14oneiros_engine7domains10continuity8features4http5sleep0Bb_
FNDA:23,_RNCNvNtNtNtNtCsk2dDpYChjKI_14oneiros_engine7domains10continuity8features4http6emerge0Bb_
FNDA:3,_RNCNvNtNtNtNtCsk2dDpYChjKI_14oneiros_engine7domains10continuity8features4http6recede0Bb_
FNDA:5,_RNCNvNtNtNtNtCsk2dDpYChjKI_14oneiros_engine7domains10continuity8features4http6status0Bb_
FNDA:4,_RNCNvNtNtNtNtCsk2dDpYChjKI_14oneiros_engine7domains10continuity8features4http7reflect0Bb_
FNDA:3,_RNCNvNtNtNtNtCsk2dDpYChjKI_14oneiros_engine7domains10continuity8features4http9guidebook0Bb_
FNDA:304,_RNvMNtNtNtNtCsk2dDpYChjKI_14oneiros_engine7domains10continuity8features4httpNtB2_16ContinuityRouter6routes
FNDA:7,_RNvNtNtNtNtCsk2dDpYChjKI_14oneiros_engine7domains10continuity8features4http10introspect
FNDA:2,_RNvNtNtNtNtCsk2dDpYChjKI_14oneiros_engine7domains10continuity8features4http4wake
FNDA:51,_RNvNtNtNtNtCsk2dDpYChjKI_14oneiros_engine7domains10continuity8features4http5dream
FNDA:1,_RNvNtNtNtNtCsk2dDpYChjKI_14oneiros_engine7domains10continuity8features4http5sense
FNDA:5,_RNvNtNtNtNtCsk2dDpYChjKI_14oneiros_engine7domains10continuity8features4http5sleep
FNDA:23,_RNvNtNtNtNtCsk2dDpYChjKI_14oneiros_engine7domains10continuity8features4http6emerge
FNDA:3,_RNvNtNtNtNtCsk2dDpYChjKI_14oneiros_engine7domains10continuity8features4http6recede
FNDA:5,_RNvNtNtNtNtCsk2dDpYChjKI_14oneiros_engine7domains10continuity8features4http6status
FNDA:4,_RNvNtNtNtNtCsk2dDpYChjKI_14oneiros_engine7domains10continuity8features4http7reflect
FNDA:3,_RNvNtNtNtNtCsk2dDpYChjKI_14oneiros_engine7domains10continuity8features4http9guidebook
FNF:31
FNH:31
DA:13,304
DA:14,304
DA:15,304
DA:16,304
DA:17,304
DA:18,304
DA:19,304
DA:20,304
DA:21,304
DA:22,304
DA:23,304
DA:24,304
DA:25,304
DA:26,304
DA:28,304
DA:29,304
DA:30,304
DA:31,304
DA:32,304
DA:34,304
DA:35,304
DA:36,304
DA:37,304
DA:38,304
DA:40,304
DA:41,304
DA:42,304
DA:43,304
DA:44,304
DA:46,304
DA:47,304
DA:48,304
DA:49,304
DA:50,304
DA:51,304
DA:53,304
DA:54,304
DA:55,304
DA:56,304
DA:57,304
DA:58,304
DA:60,304
DA:61,304
DA:62,304
DA:63,304
DA:64,304
DA:66,304
DA:67,304
DA:68,304
DA:69,304
DA:70,304
DA:72,304
DA:73,304
DA:74,304
DA:75,304
DA:76,304
DA:77,304
DA:80,304
DA:83,23
DA:84,23
DA:85,23
DA:86,23
DA:87,23
DA:90,23
DA:92,23
DA:94,3
DA:95,3
DA:96,3
DA:97,3
DA:98,3
DA:100,3
DA:101,3
DA:102,3
DA:103,3
DA:104,3
DA:105,3
DA:107,3
DA:109,5
DA:110,5
DA:111,5
DA:112,5
DA:113,5
DA:114,5
DA:116,2
DA:117,2
DA:118,2
DA:119,2
DA:120,2
DA:121,2
DA:123,2
DA:124,2
DA:125,2
DA:126,2
DA:127,2
DA:128,2
DA:129,2
DA:131,2
DA:133,51
DA:134,51
DA:135,51
DA:136,51
DA:137,51
DA:138,51
DA:140,51
DA:141,51
DA:142,51
DA:143,51
DA:144,51
DA:145,51
DA:146,51
DA:148,51
DA:150,7
DA:151,7
DA:152,7
DA:153,7
DA:154,7
DA:155,7
DA:157,7
DA:158,7
DA:159,7
DA:160,7
DA:161,7
DA:162,7
DA:163,7
DA:165,7
DA:167,4
DA:168,4
DA:169,4
DA:170,4
DA:171,4
DA:172,4
DA:174,4
DA:175,4
DA:176,4
DA:177,4
DA:178,4
DA:179,4
DA:180,4
DA:182,4
DA:184,1
DA:185,1
DA:186,1
DA:187,1
DA:188,1
DA:189,1
DA:190,1
DA:191,1
DA:192,1
DA:193,1
DA:194,1
DA:195,1
DA:197,1
DA:199,1
DA:201,5
DA:202,5
DA:203,5
DA:204,5
DA:205,5
DA:206,5
DA:208,5
DA:209,5
DA:210,5
DA:211,5
DA:212,5
DA:213,5
DA:214,5
DA:216,5
DA:218,3
DA:219,3
DA:220,3
DA:221,3
DA:222,3
DA:224,3
DA:225,3
DA:226,3
DA:227,3
DA:228,3
DA:229,3
DA:231,3
BRF:0
BRH:0
LF:199
LH:199
end_of_record
SF:/Users/esmevane/Code/projects/oneiros/crates/oneiros-engine/src/domains/continuity/features/mcp.rs
FN:10,_RNvMNtNtNtNtCsk2dDpYChjKI_14oneiros_engine7domains10continuity8features3mcpNtB2_13ContinuityMcp8resource
FN:6,_RNvMNtNtNtNtCsk2dDpYChjKI_14oneiros_engine7domains10continuity8features3mcpNtB2_13ContinuityMcp9resources
FN:26,_RNCNvNtNtNtNtNtCsk2dDpYChjKI_14oneiros_engine7domains10continuity8features3mcp14continuity_mcp8resource0Bd_
FN:23,_RNvNtNtNtNtNtCsk2dDpYChjKI_14oneiros_engine7domains10continuity8features3mcp14continuity_mcp8resource
FN:14,_RNCNvMNtNtNtNtCsk2dDpYChjKI_14oneiros_engine7domains10continuity8features3mcpNtB4_13ContinuityMcp8resource0Bc_
FNDA:1,_RNvMNtNtNtNtCsk2dDpYChjKI_14oneiros_engine7domains10continuity8features3mcpNtB2_13ContinuityMcp8resource
FNDA:1,_RNvMNtNtNtNtCsk2dDpYChjKI_14oneiros_engine7domains10continuity8features3mcpNtB2_13ContinuityMcp9resources
FNDA:1,_RNCNvNtNtNtNtNtCsk2dDpYChjKI_14oneiros_engine7domains10continuity8features3mcp14continuity_mcp8resource0Bd_
FNDA:1,_RNvNtNtNtNtNtCsk2dDpYChjKI_14oneiros_engine7domains10continuity8features3mcp14continuity_mcp8resource
FNDA:1,_RNCNvMNtNtNtNtCsk2dDpYChjKI_14oneiros_engine7domains10continuity8features3mcpNtB4_13ContinuityMcp8resource0Bc_
FNF:5
FNH:5
DA:6,1
DA:7,1
DA:8,1
DA:10,1
DA:11,1
DA:12,1
DA:13,1
DA:14,1
DA:15,1
DA:16,1
DA:17,1
DA:23,1
DA:24,1
DA:25,1
DA:26,1
DA:27,1
DA:28,1
DA:29,1
DA:30,1
DA:31,1
DA:32,1
DA:34,0
DA:35,0
DA:36,0
DA:38,1
BRF:0
BRH:0
LF:27
LH:24
end_of_record
SF:/Users/esmevane/Code/projects/oneiros/crates/oneiros-engine/src/domains/continuity/features/skills.rs
FN:6,_RNvMNtNtNtNtCsk2dDpYChjKI_14oneiros_engine7domains10continuity8features6skillsNtB2_16ContinuitySkills3all
FNDA:12,_RNvMNtNtNtNtCsk2dDpYChjKI_14oneiros_engine7domains10continuity8features6skillsNtB2_16ContinuitySkills3all
FNF:1
FNH:1
DA:6,12
DA:7,12
DA:8,12
DA:9,12
DA:10,12
DA:11,12
DA:12,12
DA:13,12
DA:14,12
DA:15,12
DA:16,12
DA:17,12
DA:19,12
BRF:0
BRH:0
LF:13
LH:13
end_of_record
SF:/Users/esmevane/Code/projects/oneiros/crates/oneiros-engine/src/domains/continuity/features/template.rs
FN:52,_RINvMNtNtNtNtCsk2dDpYChjKI_14oneiros_engine7domains10continuity8features8templateNtB3_13DreamTemplate4tailNtNtNtB9_10connection5model10ConnectionEBb_
FN:52,_RINvMNtNtNtNtCsk2dDpYChjKI_14oneiros_engine7domains10continuity8features8templateNtB3_13DreamTemplate4tailNtNtNtB9_10experience5model10ExperienceEBb_
FN:52,_RINvMNtNtNtNtCsk2dDpYChjKI_14oneiros_engine7domains10continuity8features8templateNtB3_13DreamTemplate4tailNtNtNtB9_9cognition5model9CognitionEBb_
FN:36,_RNCNvMNtNtNtNtCsk2dDpYChjKI_14oneiros_engine7domains10continuity8features8templateNtB4_13DreamTemplate13core_memories0Bc_
FN:22,_RNCNvMNtNtNtNtCsk2dDpYChjKI_14oneiros_engine7domains10continuity8features8templateNtB4_13DreamTemplate3new0Bc_
FN:32,_RNvMNtNtNtNtCsk2dDpYChjKI_14oneiros_engine7domains10continuity8features8templateNtB2_13DreamTemplate13core_memories
FN:48,_RNvMNtNtNtNtCsk2dDpYChjKI_14oneiros_engine7domains10continuity8features8templateNtB2_13DreamTemplate14latest_threads
FN:40,_RNvMNtNtNtNtCsk2dDpYChjKI_14oneiros_engine7domains10continuity8features8templateNtB2_13DreamTemplate17latest_cognitions
FN:44,_RNvMNtNtNtNtCsk2dDpYChjKI_14oneiros_engine7domains10continuity8features8templateNtB2_13DreamTemplate18latest_experiences
FN:17,_RNvMNtNtNtNtCsk2dDpYChjKI_14oneiros_engine7domains10continuity8features8templateNtB2_13DreamTemplate3new
FN:28,_RNvMNtNtNtNtCsk2dDpYChjKI_14oneiros_engine7domains10continuity8features8templateNtB2_13DreamTemplate5today
FN:80,_RNvMs0_NtNtNtNtCsk2dDpYChjKI_14oneiros_engine7domains10continuity8features8templateNtB5_15ReflectTemplate3new
FN:100,_RNvMs1_NtNtNtNtCsk2dDpYChjKI_14oneiros_engine7domains10continuity8features8templateNtB5_17GuidebookTemplate3new
FN:67,_RNvMs_NtNtNtNtCsk2dDpYChjKI_14oneiros_engine7domains10continuity8features8templateNtB4_18IntrospectTemplate3new
FNDA:44,_RINvMNtNtNtNtCsk2dDpYChjKI_14oneiros_engine7domains10continuity8features8templateNtB3_13DreamTemplate4tailNtNtNtB9_10connection5model10ConnectionEBb_
FNDA:44,_RINvMNtNtNtNtCsk2dDpYChjKI_14oneiros_engine7domains10continuity8features8templateNtB3_13DreamTemplate4tailNtNtNtB9_10experience5model10ExperienceEBb_
FNDA:49,_RINvMNtNtNtNtCsk2dDpYChjKI_14oneiros_engine7domains10continuity8features8templateNtB3_13DreamTemplate4tailNtNtNtB9_9cognition5model9CognitionEBb_
FNDA:14,_RNCNvMNtNtNtNtCsk2dDpYChjKI_14oneiros_engine7domains10continuity8features8templateNtB4_13DreamTemplate13core_memories0Bc_
FNDA:48,_RNCNvMNtNtNtNtCsk2dDpYChjKI_14oneiros_engine7domains10continuity8features8templateNtB4_13DreamTemplate3new0Bc_
FNDA:48,_RNvMNtNtNtNtCsk2dDpYChjKI_14oneiros_engine7domains10continuity8features8templateNtB2_13DreamTemplate13core_memories
FNDA:44,_RNvMNtNtNtNtCsk2dDpYChjKI_14oneiros_engine7domains10continuity8features8templateNtB2_13DreamTemplate14latest_threads
FNDA:49,_RNvMNtNtNtNtCsk2dDpYChjKI_14oneiros_engine7domains10continuity8features8templateNtB2_13DreamTemplate17latest_cognitions
FNDA:44,_RNvMNtNtNtNtCsk2dDpYChjKI_14oneiros_engine7domains10continuity8features8templateNtB2_13DreamTemplate18latest_experiences
FNDA:43,_RNvMNtNtNtNtCsk2dDpYChjKI_14oneiros_engine7domains10continuity8features8templateNtB2_13DreamTemplate3new
FNDA:43,_RNvMNtNtNtNtCsk2dDpYChjKI_14oneiros_engine7domains10continuity8features8templateNtB2_13DreamTemplate5today
FNDA:3,_RNvMs0_NtNtNtNtCsk2dDpYChjKI_14oneiros_engine7domains10continuity8features8templateNtB5_15ReflectTemplate3new
FNDA:3,_RNvMs1_NtNtNtNtCsk2dDpYChjKI_14oneiros_engine7domains10continuity8features8templateNtB5_17GuidebookTemplate3new
FNDA:7,_RNvMs_NtNtNtNtCsk2dDpYChjKI_14oneiros_engine7domains10continuity8features8templateNtB4_18IntrospectTemplate3new
FNF:12
FNH:12
DA:17,43
DA:18,43
DA:19,43
DA:20,43
DA:21,43
DA:22,48
DA:23,43
DA:25,43
DA:26,43
DA:28,43
DA:29,43
DA:30,43
DA:32,48
DA:33,48
DA:34,48
DA:35,48
DA:36,48
DA:37,48
DA:38,48
DA:40,49
DA:41,49
DA:42,49
DA:44,44
DA:45,44
DA:46,44
DA:48,44
DA:49,44
DA:50,44
DA:52,137
DA:53,137
DA:54,137
DA:55,137
DA:56,137
DA:67,7
DA:68,7
DA:69,7
DA:80,3
DA:81,3
DA:82,3
DA:100,3
DA:101,3
DA:102,3
BRF:0
BRH:0
LF:44
LH:44
end_of_record
SF:/Users/esmevane/Code/projects/oneiros/crates/oneiros-engine/src/domains/continuity/presenter.rs
FN:143,_RNCNvMNtNtNtCsk2dDpYChjKI_14oneiros_engine7domains10continuity9presenterNtB4_19ContinuityPresenter18relevant_pressures0Ba_
FN:63,_RNCNvMNtNtNtCsk2dDpYChjKI_14oneiros_engine7domains10continuity9presenterNtB4_19ContinuityPresenter6render0Ba_
FN:138,_RNvMNtNtNtCsk2dDpYChjKI_14oneiros_engine7domains10continuity9presenterNtB2_19ContinuityPresenter18relevant_pressures
FN:18,_RNvMNtNtNtCsk2dDpYChjKI_14oneiros_engine7domains10continuity9presenterNtB2_19ContinuityPresenter3mcp
FN:14,_RNvMNtNtNtCsk2dDpYChjKI_14oneiros_engine7domains10continuity9presenterNtB2_19ContinuityPresenter3new
FN:43,_RNvMNtNtNtCsk2dDpYChjKI_14oneiros_engine7domains10continuity9presenterNtB2_19ContinuityPresenter6render
FNDA:8,_RNCNvMNtNtNtCsk2dDpYChjKI_14oneiros_engine7domains10continuity9presenterNtB4_19ContinuityPresenter18relevant_pressures0Ba_
FNDA:0,_RNCNvMNtNtNtCsk2dDpYChjKI_14oneiros_engine7domains10continuity9presenterNtB4_19ContinuityPresenter6render0Ba_
FNDA:9,_RNvMNtNtNtCsk2dDpYChjKI_14oneiros_engine7domains10continuity9presenterNtB2_19ContinuityPresenter18relevant_pressures
FNDA:1,_RNvMNtNtNtCsk2dDpYChjKI_14oneiros_engine7domains10continuity9presenterNtB2_19ContinuityPresenter3mcp
FNDA:49,_RNvMNtNtNtCsk2dDpYChjKI_14oneiros_engine7domains10continuity9presenterNtB2_19ContinuityPresenter3new
FNDA:48,_RNvMNtNtNtCsk2dDpYChjKI_14oneiros_engine7domains10continuity9presenterNtB2_19ContinuityPresenter6render
FNF:6
FNH:5
DA:14,49
DA:15,49
DA:16,49
DA:18,1
DA:19,1
DA:20,1
DA:21,1
DA:22,1
DA:23,1
DA:24,1
DA:25,1
DA:26,0
DA:27,0
DA:28,0
DA:29,0
DA:30,0
DA:31,1
DA:32,1
DA:33,1
DA:36,1
DA:38,0
DA:40,1
DA:43,48
DA:44,48
DA:45,9
DA:46,9
DA:47,9
DA:48,9
DA:49,9
DA:51,20
DA:52,20
DA:53,20
DA:54,20
DA:55,20
DA:57,2
DA:58,2
DA:59,2
DA:60,2
DA:61,2
DA:62,2
DA:63,2
DA:64,2
DA:65,2
DA:66,2
DA:67,2
DA:68,2
DA:69,2
DA:71,2
DA:72,2
DA:73,2
DA:74,2
DA:75,2
DA:77,4
DA:78,4
DA:79,4
DA:80,4
DA:81,4
DA:82,4
DA:83,4
DA:85,3
DA:86,3
DA:87,3
DA:88,3
DA:89,3
DA:90,3
DA:91,3
DA:92,3
DA:94,3
DA:95,3
DA:96,3
DA:97,3
DA:98,3
DA:99,3
DA:100,3
DA:102,3
DA:103,3
DA:104,3
DA:105,3
DA:106,3
DA:108,3
DA:109,3
DA:110,3
DA:111,3
DA:112,3
DA:113,3
DA:114,3
DA:115,3
DA:117,2
DA:118,2
DA:119,2
DA:120,2
DA:121,2
DA:122,2
DA:123,2
DA:125,2
DA:126,2
DA:127,2
DA:128,2
DA:129,2
DA:130,2
DA:131,2
DA:132,2
DA:135,48
DA:136,48
DA:138,9
DA:139,9
DA:140,9
DA:141,9
DA:142,9
DA:143,9
DA:144,9
DA:146,9
BRF:0
BRH:0
LF:114
LH:107
end_of_record
SF:/Users/esmevane/Code/projects/oneiros/crates/oneiros-engine/src/domains/continuity/protocol/errors.rs
FN:40,_RNvXNtNtNtNtCsk2dDpYChjKI_14oneiros_engine7domains10continuity8protocol6errorsNtB2_15ContinuityErrorNtNtNtCs1iC2TOwIRjP_9axum_core8response13into_response12IntoResponse13into_response
FNDA:6,_RNvXNtNtNtNtCsk2dDpYChjKI_14oneiros_engine7domains10continuity8protocol6errorsNtB2_15ContinuityErrorNtNtNtCs1iC2TOwIRjP_9axum_core8response13into_response12IntoResponse13into_response
FNF:1
FNH:1
DA:40,6
DA:41,6
DA:42,6
DA:43,0
DA:47,0
DA:49,0
DA:50,0
DA:52,0
DA:54,0
DA:56,6
DA:57,6
BRF:0
BRH:0
LF:11
LH:5
end_of_record
SF:/Users/esmevane/Code/projects/oneiros/crates/oneiros-engine/src/domains/continuity/protocol/events.rs
FN:68,_RNvNtNtNtNtNtCsk2dDpYChjKI_14oneiros_engine7domains10continuity8protocol6events5testss_27event_types_are_kebab_cased
FNDA:1,_RNvNtNtNtNtNtCsk2dDpYChjKI_14oneiros_engine7domains10continuity8protocol6events5testss_27event_types_are_kebab_cased
FNF:1
FNH:1
DA:68,1
DA:69,1
DA:70,1
DA:71,1
DA:72,1
DA:73,1
DA:74,1
DA:75,1
DA:76,5
DA:77,5
DA:79,1
BRF:0
BRH:0
LF:11
LH:11
end_of_record
SF:/Users/esmevane/Code/projects/oneiros/crates/oneiros-engine/src/domains/continuity/protocol/requests.rs
FN:287,_RNvNtNtNtNtNtCsk2dDpYChjKI_14oneiros_engine7domains10continuity8protocol8requests5testss_29request_types_are_kebab_cased
FN:20,_RNCNvXNtNtNtNtCsk2dDpYChjKI_14oneiros_engine7domains10continuity8protocol8requestsNtB4_9WakeAgentNtNtBc_6client13ClientRequest15execute_request0Bc_
FN:69,_RNCNvXs0_NtNtNtNtCsk2dDpYChjKI_14oneiros_engine7domains10continuity8protocol8requestsNtB7_15IntrospectAgentNtNtBf_6client13ClientRequest15execute_request0Bf_
FN:96,_RNCNvXs1_NtNtNtNtCsk2dDpYChjKI_14oneiros_engine7domains10continuity8protocol8requestsNtB7_12ReflectAgentNtNtBf_6client13ClientRequest15execute_request0Bf_
FN:121,_RNCNvXs2_NtNtNtNtCsk2dDpYChjKI_14oneiros_engine7domains10continuity8protocol8requestsNtB7_12SenseContentNtNtBf_6client13ClientRequest15execute_request0Bf_
FN:145,_RNCNvXs3_NtNtNtNtCsk2dDpYChjKI_14oneiros_engine7domains10continuity8protocol8requestsNtB7_10SleepAgentNtNtBf_6client13ClientRequest15execute_request0Bf_
FN:169,_RNCNvXs4_NtNtNtNtCsk2dDpYChjKI_14oneiros_engine7domains10continuity8protocol8requestsNtB7_14GuidebookAgentNtNtBf_6client13ClientRequest15execute_request0Bf_
FN:196,_RNCNvXs5_NtNtNtNtCsk2dDpYChjKI_14oneiros_engine7domains10continuity8protocol8requestsNtB7_11EmergeAgentNtNtBf_6client13ClientRequest15execute_request0Bf_
FN:214,_RNCNvXs6_NtNtNtNtCsk2dDpYChjKI_14oneiros_engine7domains10continuity8protocol8requestsNtB7_11RecedeAgentNtNtBf_6client13ClientRequest15execute_request0Bf_
FN:238,_RNCNvXs7_NtNtNtNtCsk2dDpYChjKI_14oneiros_engine7domains10continuity8protocol8requestsNtB7_11StatusAgentNtNtBf_6client13ClientRequest15execute_request0Bf_
FN:44,_RNCNvXs_NtNtNtNtCsk2dDpYChjKI_14oneiros_engine7domains10continuity8protocol8requestsNtB6_10DreamAgentNtNtBe_6client13ClientRequest15execute_request0Be_
FN:243,_RNvNtNtNtNtCsk2dDpYChjKI_14oneiros_engine7domains10continuity8protocol8requests22encode_dream_overrides
FN:20,_RNvXNtNtNtNtCsk2dDpYChjKI_14oneiros_engine7domains10continuity8protocol8requestsNtB2_9WakeAgentNtNtBa_6client13ClientRequest15execute_request
FN:69,_RNvXs0_NtNtNtNtCsk2dDpYChjKI_14oneiros_engine7domains10continuity8protocol8requestsNtB5_15IntrospectAgentNtNtBd_6client13ClientRequest15execute_request
FN:96,_RNvXs1_NtNtNtNtCsk2dDpYChjKI_14oneiros_engine7domains10continuity8protocol8requestsNtB5_12ReflectAgentNtNtBd_6client13ClientRequest15execute_request
FN:121,_RNvXs2_NtNtNtNtCsk2dDpYChjKI_14oneiros_engine7domains10continuity8protocol8requestsNtB5_12SenseContentNtNtBd_6client13ClientRequest15execute_request
FN:145,_RNvXs3_NtNtNtNtCsk2dDpYChjKI_14oneiros_engine7domains10continuity8protocol8requestsNtB5_10SleepAgentNtNtBd_6client13ClientRequest15execute_request
FN:169,_RNvXs4_NtNtNtNtCsk2dDpYChjKI_14oneiros_engine7domains10continuity8protocol8requestsNtB5_14GuidebookAgentNtNtBd_6client13ClientRequest15execute_request
FN:196,_RNvXs5_NtNtNtNtCsk2dDpYChjKI_14oneiros_engine7domains10continuity8protocol8requestsNtB5_11EmergeAgentNtNtBd_6client13ClientRequest15execute_request
FN:214,_RNvXs6_NtNtNtNtCsk2dDpYChjKI_14oneiros_engine7domains10continuity8protocol8requestsNtB5_11RecedeAgentNtNtBd_6client13ClientRequest15execute_request
FN:238,_RNvXs7_NtNtNtNtCsk2dDpYChjKI_14oneiros_engine7domains10continuity8protocol8requestsNtB5_11StatusAgentNtNtBd_6client13ClientRequest15execute_request
FN:44,_RNvXs_NtNtNtNtCsk2dDpYChjKI_14oneiros_engine7domains10continuity8protocol8requestsNtB4_10DreamAgentNtNtBc_6client13ClientRequest15execute_request
FNDA:1,_RNvNtNtNtNtNtCsk2dDpYChjKI_14oneiros_engine7domains10continuity8protocol8requests5testss_29request_types_are_kebab_cased
FNDA:2,_RNCNvXNtNtNtNtCsk2dDpYChjKI_14oneiros_engine7domains10continuity8protocol8requestsNtB4_9WakeAgentNtNtBc_6client13ClientRequest15execute_request0Bc_
FNDA:7,_RNCNvXs0_NtNtNtNtCsk2dDpYChjKI_14oneiros_engine7domains10continuity8protocol8requestsNtB7_15IntrospectAgentNtNtBf_6client13ClientRequest15execute_request0Bf_
FNDA:4,_RNCNvXs1_NtNtNtNtCsk2dDpYChjKI_14oneiros_engine7domains10continuity8protocol8requestsNtB7_12ReflectAgentNtNtBf_6client13ClientRequest15execute_request0Bf_
FNDA:1,_RNCNvXs2_NtNtNtNtCsk2dDpYChjKI_14oneiros_engine7domains10continuity8protocol8requestsNtB7_12SenseContentNtNtBf_6client13ClientRequest15execute_request0Bf_
FNDA:5,_RNCNvXs3_NtNtNtNtCsk2dDpYChjKI_14oneiros_engine7domains10continuity8protocol8requestsNtB7_10SleepAgentNtNtBf_6client13ClientRequest15execute_request0Bf_
FNDA:3,_RNCNvXs4_NtNtNtNtCsk2dDpYChjKI_14oneiros_engine7domains10continuity8protocol8requestsNtB7_14GuidebookAgentNtNtBf_6client13ClientRequest15execute_request0Bf_
FNDA:23,_RNCNvXs5_NtNtNtNtCsk2dDpYChjKI_14oneiros_engine7domains10continuity8protocol8requestsNtB7_11EmergeAgentNtNtBf_6client13ClientRequest15execute_request0Bf_
FNDA:3,_RNCNvXs6_NtNtNtNtCsk2dDpYChjKI_14oneiros_engine7domains10continuity8protocol8requestsNtB7_11RecedeAgentNtNtBf_6client13ClientRequest15execute_request0Bf_
FNDA:5,_RNCNvXs7_NtNtNtNtCsk2dDpYChjKI_14oneiros_engine7domains10continuity8protocol8requestsNtB7_11StatusAgentNtNtBf_6client13ClientRequest15execute_request0Bf_
FNDA:10,_RNCNvXs_NtNtNtNtCsk2dDpYChjKI_14oneiros_engine7domains10continuity8protocol8requestsNtB6_10DreamAgentNtNtBe_6client13ClientRequest15execute_request0Be_
FNDA:10,_RNvNtNtNtNtCsk2dDpYChjKI_14oneiros_engine7domains10continuity8protocol8requests22encode_dream_overrides
FNDA:2,_RNvXNtNtNtNtCsk2dDpYChjKI_14oneiros_engine7domains10continuity8protocol8requestsNtB2_9WakeAgentNtNtBa_6client13ClientRequest15execute_request
FNDA:7,_RNvXs0_NtNtNtNtCsk2dDpYChjKI_14oneiros_engine7domains10continuity8protocol8requestsNtB5_15IntrospectAgentNtNtBd_6client13ClientRequest15execute_request
FNDA:4,_RNvXs1_NtNtNtNtCsk2dDpYChjKI_14oneiros_engine7domains10continuity8protocol8requestsNtB5_12ReflectAgentNtNtBd_6client13ClientRequest15execute_request
FNDA:1,_RNvXs2_NtNtNtNtCsk2dDpYChjKI_14oneiros_engine7domains10continuity8protocol8requestsNtB5_12SenseContentNtNtBd_6client13ClientRequest15execute_request
FNDA:5,_RNvXs3_NtNtNtNtCsk2dDpYChjKI_14oneiros_engine7domains10continuity8protocol8requestsNtB5_10SleepAgentNtNtBd_6client13ClientRequest15execute_request
FNDA:3,_RNvXs4_NtNtNtNtCsk2dDpYChjKI_14oneiros_engine7domains10continuity8protocol8requestsNtB5_14GuidebookAgentNtNtBd_6client13ClientRequest15execute_request
FNDA:23,_RNvXs5_NtNtNtNtCsk2dDpYChjKI_14oneiros_engine7domains10continuity8protocol8requestsNtB5_11EmergeAgentNtNtBd_6client13ClientRequest15execute_request
FNDA:3,_RNvXs6_NtNtNtNtCsk2dDpYChjKI_14oneiros_engine7domains10continuity8protocol8requestsNtB5_11RecedeAgentNtNtBd_6client13ClientRequest15execute_request
FNDA:5,_RNvXs7_NtNtNtNtCsk2dDpYChjKI_14oneiros_engine7domains10continuity8protocol8requestsNtB5_11StatusAgentNtNtBd_6client13ClientRequest15execute_request
FNDA:10,_RNvXs_NtNtNtNtCsk2dDpYChjKI_14oneiros_engine7domains10continuity8protocol8requestsNtB4_10DreamAgentNtNtBc_6client13ClientRequest15execute_request
FNF:22
FNH:22
DA:20,2
DA:21,2
DA:22,2
DA:23,2
DA:24,2
DA:25,2
DA:26,2
DA:27,2
DA:28,2
DA:44,10
DA:45,10
DA:46,10
DA:47,10
DA:48,10
DA:50,0
DA:52,10
DA:53,10
DA:69,7
DA:70,7
DA:71,7
DA:72,7
DA:73,7
DA:74,7
DA:75,7
DA:76,7
DA:77,7
DA:78,7
DA:79,7
DA:80,7
DA:96,4
DA:97,4
DA:98,4
DA:99,4
DA:100,4
DA:101,4
DA:102,4
DA:103,4
DA:104,4
DA:121,1
DA:122,1
DA:123,1
DA:124,1
DA:125,1
DA:126,1
DA:127,1
DA:128,1
DA:129,1
DA:145,5
DA:146,5
DA:147,5
DA:148,5
DA:149,5
DA:150,5
DA:151,5
DA:152,5
DA:153,5
DA:169,3
DA:170,3
DA:171,3
DA:172,3
DA:173,3
DA:174,3
DA:175,3
DA:176,3
DA:177,3
DA:196,23
DA:197,23
DA:198,23
DA:214,3
DA:215,3
DA:216,3
DA:217,3
DA:218,3
DA:219,3
DA:238,5
DA:239,5
DA:240,5
DA:243,10
DA:244,10
DA:245,10
DA:246,0
DA:247,10
DA:248,10
DA:249,0
DA:250,10
DA:251,10
DA:252,0
DA:253,10
DA:254,10
DA:255,0
DA:256,10
DA:257,10
DA:258,0
DA:259,10
DA:260,10
DA:261,0
DA:262,10
DA:263,10
DA:264,10
DA:287,1
DA:288,1
DA:289,1
DA:290,1
DA:291,1
DA:292,1
DA:293,1
DA:294,1
DA:295,1
DA:296,1
DA:297,1
DA:298,1
DA:299,1
DA:301,10
DA:302,10
DA:304,1
BRF:0
BRH:0
LF:125
LH:118
end_of_record
SF:/Users/esmevane/Code/projects/oneiros/crates/oneiros-engine/src/domains/continuity/service.rs
FN:401,_RNCNCNvMNtNtNtCsk2dDpYChjKI_14oneiros_engine7domains10continuity7serviceNtB6_17ContinuityService14gather_context00Bc_
FN:437,_RNCNCNvMNtNtNtCsk2dDpYChjKI_14oneiros_engine7domains10continuity7serviceNtB6_17ContinuityService18gather_context_for00Bc_
FN:451,_RNCNCNvMNtNtNtCsk2dDpYChjKI_14oneiros_engine7domains10continuity7serviceNtB6_17ContinuityService18gather_context_for0s0_0Bc_
FN:452,_RNCNCNvMNtNtNtCsk2dDpYChjKI_14oneiros_engine7domains10continuity7serviceNtB6_17ContinuityService18gather_context_for0s1_0Bc_
FN:457,_RNCNCNvMNtNtNtCsk2dDpYChjKI_14oneiros_engine7domains10continuity7serviceNtB6_17ContinuityService18gather_context_for0s2_0Bc_
FN:535,_RNCNCNvMNtNtNtCsk2dDpYChjKI_14oneiros_engine7domains10continuity7serviceNtB6_17ContinuityService18gather_context_for0s6_0Bc_
FN:536,_RNCNCNvMNtNtNtCsk2dDpYChjKI_14oneiros_engine7domains10continuity7serviceNtB6_17ContinuityService18gather_context_for0s7_0Bc_
FN:537,_RNCNCNvMNtNtNtCsk2dDpYChjKI_14oneiros_engine7domains10continuity7serviceNtB6_17ContinuityService18gather_context_for0s8_0Bc_
FN:542,_RNCNCNvMNtNtNtCsk2dDpYChjKI_14oneiros_engine7domains10continuity7serviceNtB6_17ContinuityService18gather_context_for0s9_0Bc_
FN:111,_RNCNCNvMNtNtNtCsk2dDpYChjKI_14oneiros_engine7domains10continuity7serviceNtB6_17ContinuityService6status00Bc_
FN:125,_RNCNCNvMNtNtNtCsk2dDpYChjKI_14oneiros_engine7domains10continuity7serviceNtB6_17ContinuityService6status0s0_0Bc_
FN:132,_RNCNCNvMNtNtNtCsk2dDpYChjKI_14oneiros_engine7domains10continuity7serviceNtB6_17ContinuityService6status0s1_0Bc_
FN:139,_RNCNCNvMNtNtNtCsk2dDpYChjKI_14oneiros_engine7domains10continuity7serviceNtB6_17ContinuityService6status0s2_0Bc_
FN:146,_RNCNCNvMNtNtNtCsk2dDpYChjKI_14oneiros_engine7domains10continuity7serviceNtB6_17ContinuityService6status0s3_0Bc_
FN:153,_RNCNCNvMNtNtNtCsk2dDpYChjKI_14oneiros_engine7domains10continuity7serviceNtB6_17ContinuityService6status0s4_0Bc_
FN:155,_RNCNCNvMNtNtNtCsk2dDpYChjKI_14oneiros_engine7domains10continuity7serviceNtB6_17ContinuityService6status0s5_0Bc_
FN:157,_RNCNCNvMNtNtNtCsk2dDpYChjKI_14oneiros_engine7domains10continuity7serviceNtB6_17ContinuityService6status0s6_0Bc_
FN:118,_RNCNCNvMNtNtNtCsk2dDpYChjKI_14oneiros_engine7domains10continuity7serviceNtB6_17ContinuityService6status0s_0Bc_
FN:239,_RNCNvMNtNtNtCsk2dDpYChjKI_14oneiros_engine7domains10continuity7serviceNtB4_17ContinuityService10introspect0Ba_
FN:397,_RNCNvMNtNtNtCsk2dDpYChjKI_14oneiros_engine7domains10continuity7serviceNtB4_17ContinuityService14gather_context0Ba_
FN:570,_RNCNvMNtNtNtCsk2dDpYChjKI_14oneiros_engine7domains10continuity7serviceNtB4_17ContinuityService15filter_memories0Ba_
FN:573,_RNCNvMNtNtNtCsk2dDpYChjKI_14oneiros_engine7domains10continuity7serviceNtB4_17ContinuityService15filter_memoriess_0Ba_
FN:417,_RNCNvMNtNtNtCsk2dDpYChjKI_14oneiros_engine7domains10continuity7serviceNtB4_17ContinuityService18gather_context_for0Ba_
FN:175,_RNCNvMNtNtNtCsk2dDpYChjKI_14oneiros_engine7domains10continuity7serviceNtB4_17ContinuityService4wake0Ba_
FN:207,_RNCNvMNtNtNtCsk2dDpYChjKI_14oneiros_engine7domains10continuity7serviceNtB4_17ContinuityService5dream0Ba_
FN:309,_RNCNvMNtNtNtCsk2dDpYChjKI_14oneiros_engine7domains10continuity7serviceNtB4_17ContinuityService5sense0Ba_
FN:342,_RNCNvMNtNtNtCsk2dDpYChjKI_14oneiros_engine7domains10continuity7serviceNtB4_17ContinuityService5sleep0Ba_
FN:30,_RNCNvMNtNtNtCsk2dDpYChjKI_14oneiros_engine7domains10continuity7serviceNtB4_17ContinuityService6emerge0Ba_
FN:76,_RNCNvMNtNtNtCsk2dDpYChjKI_14oneiros_engine7domains10continuity7serviceNtB4_17ContinuityService6recede0Ba_
FN:99,_RNCNvMNtNtNtCsk2dDpYChjKI_14oneiros_engine7domains10continuity7serviceNtB4_17ContinuityService6status0Ba_
FN:274,_RNCNvMNtNtNtCsk2dDpYChjKI_14oneiros_engine7domains10continuity7serviceNtB4_17ContinuityService7reflect0Ba_
FN:376,_RNCNvMNtNtNtCsk2dDpYChjKI_14oneiros_engine7domains10continuity7serviceNtB4_17ContinuityService9guidebook0Ba_
FN:234,_RNvMNtNtNtCsk2dDpYChjKI_14oneiros_engine7domains10continuity7serviceNtB2_17ContinuityService10introspect
FN:393,_RNvMNtNtNtCsk2dDpYChjKI_14oneiros_engine7domains10continuity7serviceNtB2_17ContinuityService14gather_context
FN:567,_RNvMNtNtNtCsk2dDpYChjKI_14oneiros_engine7domains10continuity7serviceNtB2_17ContinuityService15filter_memories
FN:413,_RNvMNtNtNtCsk2dDpYChjKI_14oneiros_engine7domains10continuity7serviceNtB2_17ContinuityService18gather_context_for
FN:581,_RNvMNtNtNtCsk2dDpYChjKI_14oneiros_engine7domains10continuity7serviceNtB2_17ContinuityService19assemble_cognitions
FN:615,_RNvMNtNtNtCsk2dDpYChjKI_14oneiros_engine7domains10continuity7serviceNtB2_17ContinuityService20assemble_experiences
FN:170,_RNvMNtNtNtCsk2dDpYChjKI_14oneiros_engine7domains10continuity7serviceNtB2_17ContinuityService4wake
FN:202,_RNvMNtNtNtCsk2dDpYChjKI_14oneiros_engine7domains10continuity7serviceNtB2_17ContinuityService5dream
FN:304,_RNvMNtNtNtCsk2dDpYChjKI_14oneiros_engine7domains10continuity7serviceNtB2_17ContinuityService5sense
FN:337,_RNvMNtNtNtCsk2dDpYChjKI_14oneiros_engine7domains10continuity7serviceNtB2_17ContinuityService5sleep
FN:25,_RNvMNtNtNtCsk2dDpYChjKI_14oneiros_engine7domains10continuity7serviceNtB2_17ContinuityService6emerge
FN:72,_RNvMNtNtNtCsk2dDpYChjKI_14oneiros_engine7domains10continuity7serviceNtB2_17ContinuityService6recede
FN:96,_RNvMNtNtNtCsk2dDpYChjKI_14oneiros_engine7domains10continuity7serviceNtB2_17ContinuityService6status
FN:269,_RNvMNtNtNtCsk2dDpYChjKI_14oneiros_engine7domains10continuity7serviceNtB2_17ContinuityService7reflect
FN:372,_RNvMNtNtNtCsk2dDpYChjKI_14oneiros_engine7domains10continuity7serviceNtB2_17ContinuityService9guidebook
FN:10,_RNvNtNtNtCsk2dDpYChjKI_14oneiros_engine7domains10continuity7service14level_priority
FNDA:6,_RNCNCNvMNtNtNtCsk2dDpYChjKI_14oneiros_engine7domains10continuity7serviceNtB6_17ContinuityService14gather_context00Bc_
FNDA:67,_RNCNCNvMNtNtNtCsk2dDpYChjKI_14oneiros_engine7domains10continuity7serviceNtB6_17ContinuityService18gather_context_for00Bc_
FNDA:49,_RNCNCNvMNtNtNtCsk2dDpYChjKI_14oneiros_engine7domains10continuity7serviceNtB6_17ContinuityService18gather_context_for0s0_0Bc_
FNDA:14,_RNCNCNvMNtNtNtCsk2dDpYChjKI_14oneiros_engine7domains10continuity7serviceNtB6_17ContinuityService18gather_context_for0s1_0Bc_
FNDA:63,_RNCNCNvMNtNtNtCsk2dDpYChjKI_14oneiros_engine7domains10continuity7serviceNtB6_17ContinuityService18gather_context_for0s2_0Bc_
FNDA:49,_RNCNCNvMNtNtNtCsk2dDpYChjKI_14oneiros_engine7domains10continuity7serviceNtB6_17ContinuityService18gather_context_for0s6_0Bc_
FNDA:110,_RNCNCNvMNtNtNtCsk2dDpYChjKI_14oneiros_engine7domains10continuity7serviceNtB6_17ContinuityService18gather_context_for0s7_0Bc_
FNDA:12,_RNCNCNvMNtNtNtCsk2dDpYChjKI_14oneiros_engine7domains10continuity7serviceNtB6_17ContinuityService18gather_context_for0s8_0Bc_
FNDA:10,_RNCNCNvMNtNtNtCsk2dDpYChjKI_14oneiros_engine7domains10continuity7serviceNtB6_17ContinuityService18gather_context_for0s9_0Bc_
FNDA:6,_RNCNCNvMNtNtNtCsk2dDpYChjKI_14oneiros_engine7domains10continuity7serviceNtB6_17ContinuityService6status00Bc_
FNDA:6,_RNCNCNvMNtNtNtCsk2dDpYChjKI_14oneiros_engine7domains10continuity7serviceNtB6_17ContinuityService6status0s0_0Bc_
FNDA:1,_RNCNCNvMNtNtNtCsk2dDpYChjKI_14oneiros_engine7domains10continuity7serviceNtB6_17ContinuityService6status0s1_0Bc_
FNDA:6,_RNCNCNvMNtNtNtCsk2dDpYChjKI_14oneiros_engine7domains10continuity7serviceNtB6_17ContinuityService6status0s2_0Bc_
FNDA:0,_RNCNCNvMNtNtNtCsk2dDpYChjKI_14oneiros_engine7domains10continuity7serviceNtB6_17ContinuityService6status0s3_0Bc_
FNDA:2,_RNCNCNvMNtNtNtCsk2dDpYChjKI_14oneiros_engine7domains10continuity7serviceNtB6_17ContinuityService6status0s4_0Bc_
FNDA:1,_RNCNCNvMNtNtNtCsk2dDpYChjKI_14oneiros_engine7domains10continuity7serviceNtB6_17ContinuityService6status0s5_0Bc_
FNDA:0,_RNCNCNvMNtNtNtCsk2dDpYChjKI_14oneiros_engine7domains10continuity7serviceNtB6_17ContinuityService6status0s6_0Bc_
FNDA:2,_RNCNCNvMNtNtNtCsk2dDpYChjKI_14oneiros_engine7domains10continuity7serviceNtB6_17ContinuityService6status0s_0Bc_
FNDA:7,_RNCNvMNtNtNtCsk2dDpYChjKI_14oneiros_engine7domains10continuity7serviceNtB4_17ContinuityService10introspect0Ba_
FNDA:97,_RNCNvMNtNtNtCsk2dDpYChjKI_14oneiros_engine7domains10continuity7serviceNtB4_17ContinuityService14gather_context0Ba_
FNDA:48,_RNCNvMNtNtNtCsk2dDpYChjKI_14oneiros_engine7domains10continuity7serviceNtB4_17ContinuityService15filter_memories0Ba_
FNDA:208,_RNCNvMNtNtNtCsk2dDpYChjKI_14oneiros_engine7domains10continuity7serviceNtB4_17ContinuityService15filter_memoriess_0Ba_
FNDA:114,_RNCNvMNtNtNtCsk2dDpYChjKI_14oneiros_engine7domains10continuity7serviceNtB4_17ContinuityService18gather_context_for0Ba_
FNDA:25,_RNCNvMNtNtNtCsk2dDpYChjKI_14oneiros_engine7domains10continuity7serviceNtB4_17ContinuityService4wake0Ba_
FNDA:52,_RNCNvMNtNtNtCsk2dDpYChjKI_14oneiros_engine7domains10continuity7serviceNtB4_17ContinuityService5dream0Ba_
FNDA:1,_RNCNvMNtNtNtCsk2dDpYChjKI_14oneiros_engine7domains10continuity7serviceNtB4_17ContinuityService5sense0Ba_
FNDA:5,_RNCNvMNtNtNtCsk2dDpYChjKI_14oneiros_engine7domains10continuity7serviceNtB4_17ContinuityService5sleep0Ba_
FNDA:23,_RNCNvMNtNtNtCsk2dDpYChjKI_14oneiros_engine7domains10continuity7serviceNtB4_17ContinuityService6emerge0Ba_
FNDA:3,_RNCNvMNtNtNtCsk2dDpYChjKI_14oneiros_engine7domains10continuity7serviceNtB4_17ContinuityService6recede0Ba_
FNDA:6,_RNCNvMNtNtNtCsk2dDpYChjKI_14oneiros_engine7domains10continuity7serviceNtB4_17ContinuityService6status0Ba_
FNDA:4,_RNCNvMNtNtNtCsk2dDpYChjKI_14oneiros_engine7domains10continuity7serviceNtB4_17ContinuityService7reflect0Ba_
FNDA:3,_RNCNvMNtNtNtCsk2dDpYChjKI_14oneiros_engine7domains10continuity7serviceNtB4_17ContinuityService9guidebook0Ba_
FNDA:7,_RNvMNtNtNtCsk2dDpYChjKI_14oneiros_engine7domains10continuity7serviceNtB2_17ContinuityService10introspect
FNDA:97,_RNvMNtNtNtCsk2dDpYChjKI_14oneiros_engine7domains10continuity7serviceNtB2_17ContinuityService14gather_context
FNDA:114,_RNvMNtNtNtCsk2dDpYChjKI_14oneiros_engine7domains10continuity7serviceNtB2_17ContinuityService15filter_memories
FNDA:114,_RNvMNtNtNtCsk2dDpYChjKI_14oneiros_engine7domains10continuity7serviceNtB2_17ContinuityService18gather_context_for
FNDA:8,_RNvMNtNtNtCsk2dDpYChjKI_14oneiros_engine7domains10continuity7serviceNtB2_17ContinuityService19assemble_cognitions
FNDA:114,_RNvMNtNtNtCsk2dDpYChjKI_14oneiros_engine7domains10continuity7serviceNtB2_17ContinuityService20assemble_experiences
FNDA:25,_RNvMNtNtNtCsk2dDpYChjKI_14oneiros_engine7domains10continuity7serviceNtB2_17ContinuityService4wake
FNDA:52,_RNvMNtNtNtCsk2dDpYChjKI_14oneiros_engine7domains10continuity7serviceNtB2_17ContinuityService5dream
FNDA:1,_RNvMNtNtNtCsk2dDpYChjKI_14oneiros_engine7domains10continuity7serviceNtB2_17ContinuityService5sense
FNDA:5,_RNvMNtNtNtCsk2dDpYChjKI_14oneiros_engine7domains10continuity7serviceNtB2_17ContinuityService5sleep
FNDA:23,_RNvMNtNtNtCsk2dDpYChjKI_14oneiros_engine7domains10continuity7serviceNtB2_17ContinuityService6emerge
FNDA:3,_RNvMNtNtNtCsk2dDpYChjKI_14oneiros_engine7domains10continuity7serviceNtB2_17ContinuityService6recede
FNDA:6,_RNvMNtNtNtCsk2dDpYChjKI_14oneiros_engine7domains10continuity7serviceNtB2_17ContinuityService6status
FNDA:4,_RNvMNtNtNtCsk2dDpYChjKI_14oneiros_engine7domains10continuity7serviceNtB2_17ContinuityService7reflect
FNDA:3,_RNvMNtNtNtCsk2dDpYChjKI_14oneiros_engine7domains10continuity7serviceNtB2_17ContinuityService9guidebook
FNDA:162,_RNvNtNtNtCsk2dDpYChjKI_14oneiros_engine7domains10continuity7service14level_priority
FNF:48
FNH:46
DA:10,162
DA:11,162
DA:12,162
DA:13,161
DA:14,159
DA:15,153
DA:16,4
DA:17,0
DA:19,162
DA:25,23
DA:26,23
DA:27,23
DA:28,23
DA:29,23
DA:30,23
DA:31,23
DA:32,23
DA:33,23
DA:34,23
DA:35,23
DA:36,23
DA:37,23
DA:38,23
DA:39,23
DA:40,23
DA:41,23
DA:42,23
DA:44,23
DA:45,23
DA:46,0
DA:47,0
DA:55,23
DA:56,23
DA:57,23
DA:58,23
DA:59,23
DA:60,23
DA:61,23
DA:62,23
DA:63,23
DA:64,23
DA:65,23
DA:66,23
DA:67,23
DA:68,23
DA:69,23
DA:72,3
DA:73,3
DA:74,3
DA:75,3
DA:76,3
DA:77,3
DA:78,3
DA:79,3
DA:80,3
DA:81,3
DA:82,3
DA:83,3
DA:84,3
DA:85,3
DA:86,3
DA:87,3
DA:88,3
DA:89,3
DA:90,3
DA:91,3
DA:92,3
DA:93,3
DA:96,6
DA:97,6
DA:98,6
DA:99,6
DA:100,6
DA:101,6
DA:103,6
DA:105,6
DA:106,6
DA:108,6
DA:109,6
DA:110,6
DA:111,6
DA:112,0
DA:114,6
DA:115,6
DA:116,6
DA:117,6
DA:118,2
DA:120,6
DA:122,6
DA:123,6
DA:124,6
DA:125,6
DA:126,0
DA:128,6
DA:129,6
DA:130,6
DA:131,6
DA:132,1
DA:134,6
DA:136,6
DA:137,6
DA:138,6
DA:139,6
DA:140,0
DA:142,6
DA:143,6
DA:144,6
DA:145,6
DA:146,0
DA:148,6
DA:150,6
DA:151,6
DA:152,6
DA:153,6
DA:154,6
DA:155,6
DA:156,6
DA:157,6
DA:161,6
DA:162,6
DA:163,6
DA:164,6
DA:165,6
DA:166,6
DA:167,6
DA:170,25
DA:171,25
DA:172,25
DA:173,25
DA:174,25
DA:175,25
DA:176,25
DA:177,25
DA:179,25
DA:180,25
DA:181,25
DA:182,25
DA:183,25
DA:184,25
DA:185,25
DA:186,25
DA:187,25
DA:189,25
DA:190,25
DA:191,25
DA:192,25
DA:193,25
DA:196,25
DA:197,25
DA:198,25
DA:199,25
DA:202,52
DA:203,52
DA:204,52
DA:205,52
DA:206,52
DA:207,52
DA:208,52
DA:209,52
DA:211,50
DA:212,50
DA:213,50
DA:214,50
DA:215,50
DA:216,50
DA:217,50
DA:218,50
DA:219,50
DA:221,50
DA:222,50
DA:223,50
DA:224,50
DA:225,50
DA:228,50
DA:229,50
DA:230,50
DA:231,52
DA:234,7
DA:235,7
DA:236,7
DA:237,7
DA:238,7
DA:239,7
DA:240,7
DA:241,7
DA:243,5
DA:244,5
DA:245,5
DA:246,5
DA:247,5
DA:248,5
DA:249,5
DA:250,5
DA:251,5
DA:253,5
DA:254,5
DA:255,5
DA:256,5
DA:257,5
DA:260,5
DA:261,5
DA:262,5
DA:263,5
DA:264,5
DA:265,5
DA:266,7
DA:269,4
DA:270,4
DA:271,4
DA:272,4
DA:273,4
DA:274,4
DA:275,4
DA:276,4
DA:278,4
DA:279,4
DA:280,4
DA:281,4
DA:282,4
DA:283,4
DA:284,4
DA:285,4
DA:286,4
DA:288,4
DA:289,4
DA:290,4
DA:291,4
DA:292,4
DA:295,4
DA:296,4
DA:297,4
DA:298,4
DA:299,4
DA:300,4
DA:301,4
DA:304,1
DA:305,1
DA:306,1
DA:307,1
DA:308,1
DA:309,1
DA:310,1
DA:311,1
DA:313,1
DA:314,1
DA:315,1
DA:316,1
DA:317,1
DA:318,1
DA:319,1
DA:320,1
DA:321,1
DA:322,1
DA:324,1
DA:325,1
DA:326,1
DA:327,1
DA:328,1
DA:331,1
DA:332,1
DA:333,1
DA:334,1
DA:337,5
DA:338,5
DA:339,5
DA:340,5
DA:341,5
DA:342,5
DA:343,5
DA:344,5
DA:346,3
DA:347,3
DA:348,3
DA:349,3
DA:350,3
DA:351,3
DA:352,3
DA:353,3
DA:354,3
DA:356,3
DA:357,3
DA:358,3
DA:359,3
DA:360,3
DA:363,3
DA:364,3
DA:365,3
DA:366,5
DA:372,3
DA:373,3
DA:374,3
DA:375,3
DA:376,3
DA:377,3
DA:378,3
DA:379,3
DA:380,3
DA:381,3
DA:382,3
DA:383,3
DA:384,3
DA:385,3
DA:393,97
DA:394,97
DA:395,97
DA:396,97
DA:397,97
DA:398,97
DA:399,97
DA:400,97
DA:401,97
DA:402,91
DA:403,97
DA:413,114
DA:414,114
DA:415,114
DA:416,114
DA:417,114
DA:418,114
DA:419,114
DA:421,114
DA:422,114
DA:424,114
DA:427,114
DA:428,114
DA:429,114
DA:430,114
DA:431,114
DA:434,114
DA:435,114
DA:436,114
DA:437,114
DA:439,114
DA:440,114
DA:441,114
DA:442,114
DA:445,114
DA:446,114
DA:449,114
DA:450,114
DA:451,114
DA:452,114
DA:453,114
DA:456,114
DA:457,114
DA:459,114
DA:460,114
DA:461,114
DA:462,114
DA:463,114
DA:465,187
DA:466,73
DA:467,4
DA:468,69
DA:470,69
DA:471,69
DA:473,69
DA:474,20
DA:475,10
DA:476,10
DA:478,10
DA:479,7
DA:481,3
DA:485,10
DA:486,10
DA:488,10
DA:489,10
DA:490,6
DA:491,6
DA:492,6
DA:493,4
DA:494,4
DA:495,4
DA:496,0
DA:499,10
DA:500,10
DA:501,10
DA:502,0
DA:504,10
DA:509,114
DA:511,106
DA:513,8
DA:517,114
DA:518,2
DA:519,2
DA:520,112
DA:523,114
DA:524,114
DA:527,114
DA:528,1
DA:529,1
DA:530,113
DA:533,114
DA:534,114
DA:535,114
DA:536,114
DA:537,114
DA:538,114
DA:540,114
DA:541,114
DA:542,114
DA:543,10
DA:544,10
DA:545,114
DA:548,114
DA:549,114
DA:551,114
DA:552,114
DA:553,114
DA:554,114
DA:555,114
DA:556,114
DA:557,114
DA:558,114
DA:559,114
DA:560,114
DA:561,114
DA:562,114
DA:563,114
DA:564,114
DA:565,114
DA:567,114
DA:569,114
DA:570,114
DA:573,208
DA:576,114
DA:578,114
DA:579,114
DA:581,8
DA:582,8
DA:583,8
DA:584,8
DA:585,8
DA:586,8
DA:587,8
DA:590,8
DA:592,8
DA:593,8
DA:596,19
DA:597,19
DA:598,19
DA:599,19
DA:603,8
DA:604,6
DA:605,0
DA:606,0
DA:607,0
DA:608,6
DA:611,8
DA:612,8
DA:613,8
DA:615,114
DA:616,114
DA:617,114
DA:618,114
DA:619,114
DA:620,114
DA:621,114
DA:622,114
DA:625,114
DA:626,14
DA:627,14
DA:628,14
DA:632,114
DA:633,14
DA:634,0
DA:635,0
DA:636,0
DA:637,14
DA:640,114
DA:641,114
DA:642,114
BRF:0
BRH:0
LF:498
LH:482
end_of_record
SF:/Users/esmevane/Code/projects/oneiros/crates/oneiros-engine/src/domains/doctor/features/cli.rs
FN:6,_RNvMNtNtNtNtCsk2dDpYChjKI_14oneiros_engine7domains6doctor8features3cliNtB2_9DoctorCli7execute
FN:6,_RNCNvMNtNtNtNtCsk2dDpYChjKI_14oneiros_engine7domains6doctor8features3cliNtB4_9DoctorCli7execute0Bc_
FNDA:6,_RNvMNtNtNtNtCsk2dDpYChjKI_14oneiros_engine7domains6doctor8features3cliNtB2_9DoctorCli7execute
FNDA:6,_RNCNvMNtNtNtNtCsk2dDpYChjKI_14oneiros_engine7domains6doctor8features3cliNtB4_9DoctorCli7execute0Bc_
FNF:2
FNH:2
DA:6,6
DA:7,6
DA:9,6
DA:10,6
BRF:0
BRH:0
LF:5
LH:5
end_of_record
SF:/Users/esmevane/Code/projects/oneiros/crates/oneiros-engine/src/domains/doctor/features/skills.rs
FN:6,_RNvMNtNtNtNtCsk2dDpYChjKI_14oneiros_engine7domains6doctor8features6skillsNtB2_12DoctorSkills3all
FNDA:12,_RNvMNtNtNtNtCsk2dDpYChjKI_14oneiros_engine7domains6doctor8features6skillsNtB2_12DoctorSkills3all
FNF:1
FNH:1
DA:6,12
DA:7,12
DA:8,12
BRF:0
BRH:0
LF:3
LH:3
end_of_record
SF:/Users/esmevane/Code/projects/oneiros/crates/oneiros-engine/src/domains/doctor/protocol/errors.rs
FN:20,_RNvXNtNtNtNtCsk2dDpYChjKI_14oneiros_engine7domains6doctor8protocol6errorsNtB2_11DoctorErrorNtNtNtCs1iC2TOwIRjP_9axum_core8response13into_response12IntoResponse13into_response
FNDA:0,_RNvXNtNtNtNtCsk2dDpYChjKI_14oneiros_engine7domains6doctor8protocol6errorsNtB2_11DoctorErrorNtNtNtCs1iC2TOwIRjP_9axum_core8response13into_response12IntoResponse13into_response
FNF:1
FNH:0
DA:20,0
DA:21,0
DA:23,0
DA:25,0
DA:27,0
DA:28,0
BRF:0
BRH:0
LF:6
LH:0
end_of_record
SF:/Users/esmevane/Code/projects/oneiros/crates/oneiros-engine/src/domains/doctor/protocol/responses.rs
FN:12,_RINvMNtNtNtNtCsk2dDpYChjKI_14oneiros_engine7domains6doctor8protocol9responsesNtB3_13DatabaseLabel3newReEBb_
FN:46,_RINvMs2_NtNtNtNtCsk2dDpYChjKI_14oneiros_engine7domains6doctor8protocol9responsesNtB6_17DiagnosticMessage3newNtNtCs1OjIl8oxbrv_5alloc6string6StringEBe_
FN:29,_RNvMs0_NtNtNtNtCsk2dDpYChjKI_14oneiros_engine7domains6doctor8protocol9responsesNtB5_13LogEventCount3new
FN:35,_RNvXs1_NtNtNtNtCsk2dDpYChjKI_14oneiros_engine7domains6doctor8protocol9responsesNtB5_13LogEventCountNtNtCsl8K0bEFm1U0_4core3fmt7Display3fmt
FN:52,_RNvXs3_NtNtNtNtCsk2dDpYChjKI_14oneiros_engine7domains6doctor8protocol9responsesNtB5_17DiagnosticMessageNtNtCsl8K0bEFm1U0_4core3fmt7Display3fmt
FN:18,_RNvXs_NtNtNtNtCsk2dDpYChjKI_14oneiros_engine7domains6doctor8protocol9responsesNtB4_13DatabaseLabelNtNtCsl8K0bEFm1U0_4core3fmt7Display3fmt
FNDA:10,_RINvMNtNtNtNtCsk2dDpYChjKI_14oneiros_engine7domains6doctor8protocol9responsesNtB3_13DatabaseLabel3newReEBb_
FNDA:1,_RINvMs2_NtNtNtNtCsk2dDpYChjKI_14oneiros_engine7domains6doctor8protocol9responsesNtB6_17DiagnosticMessage3newNtNtCs1OjIl8oxbrv_5alloc6string6StringEBe_
FNDA:5,_RNvMs0_NtNtNtNtCsk2dDpYChjKI_14oneiros_engine7domains6doctor8protocol9responsesNtB5_13LogEventCount3new
FNDA:5,_RNvXs1_NtNtNtNtCsk2dDpYChjKI_14oneiros_engine7domains6doctor8protocol9responsesNtB5_13LogEventCountNtNtCsl8K0bEFm1U0_4core3fmt7Display3fmt
FNDA:1,_RNvXs3_NtNtNtNtCsk2dDpYChjKI_14oneiros_engine7domains6doctor8protocol9responsesNtB5_17DiagnosticMessageNtNtCsl8K0bEFm1U0_4core3fmt7Display3fmt
FNDA:10,_RNvXs_NtNtNtNtCsk2dDpYChjKI_14oneiros_engine7domains6doctor8protocol9responsesNtB4_13DatabaseLabelNtNtCsl8K0bEFm1U0_4core3fmt7Display3fmt
FNF:6
FNH:6
DA:12,10
DA:13,10
DA:14,10
DA:18,10
DA:19,10
DA:20,10
DA:29,5
DA:30,5
DA:31,5
DA:35,5
DA:36,5
DA:37,5
DA:46,1
DA:47,1
DA:48,1
DA:52,1
DA:53,1
DA:54,1
BRF:0
BRH:0
LF:18
LH:18
end_of_record
SF:/Users/esmevane/Code/projects/oneiros/crates/oneiros-engine/src/domains/doctor/service.rs
FN:87,_RNCNCNvMNtNtNtCsk2dDpYChjKI_14oneiros_engine7domains6doctor7serviceNtB6_13DoctorService5check0s0_0Bc_
FN:98,_RNCNCNvMNtNtNtCsk2dDpYChjKI_14oneiros_engine7domains6doctor7serviceNtB6_13DoctorService5check0s1_0Bc_
FN:114,_RNCNCNvMNtNtNtCsk2dDpYChjKI_14oneiros_engine7domains6doctor7serviceNtB6_13DoctorService5check0s2_0Bc_
FN:74,_RNCNCNvMNtNtNtCsk2dDpYChjKI_14oneiros_engine7domains6doctor7serviceNtB6_13DoctorService5check0s_0Bc_
FN:169,_RNCNvMNtNtNtCsk2dDpYChjKI_14oneiros_engine7domains6doctor7serviceNtB4_13DoctorService14check_mcp_live0Ba_
FN:236,_RNCNvMNtNtNtCsk2dDpYChjKI_14oneiros_engine7domains6doctor7serviceNtB4_13DoctorService29parse_mcp_initialize_response0Ba_
FN:238,_RNCNvMNtNtNtCsk2dDpYChjKI_14oneiros_engine7domains6doctor7serviceNtB4_13DoctorService29parse_mcp_initialize_responses0_0Ba_
FN:239,_RNCNvMNtNtNtCsk2dDpYChjKI_14oneiros_engine7domains6doctor7serviceNtB4_13DoctorService29parse_mcp_initialize_responses1_0Ba_
FN:242,_RNCNvMNtNtNtCsk2dDpYChjKI_14oneiros_engine7domains6doctor7serviceNtB4_13DoctorService29parse_mcp_initialize_responses2_0Ba_
FN:252,_RNCNvMNtNtNtCsk2dDpYChjKI_14oneiros_engine7domains6doctor7serviceNtB4_13DoctorService29parse_mcp_initialize_responses3_0Ba_
FN:254,_RNCNvMNtNtNtCsk2dDpYChjKI_14oneiros_engine7domains6doctor7serviceNtB4_13DoctorService29parse_mcp_initialize_responses4_0Ba_
FN:256,_RNCNvMNtNtNtCsk2dDpYChjKI_14oneiros_engine7domains6doctor7serviceNtB4_13DoctorService29parse_mcp_initialize_responses5_0Ba_
FN:237,_RNCNvMNtNtNtCsk2dDpYChjKI_14oneiros_engine7domains6doctor7serviceNtB4_13DoctorService29parse_mcp_initialize_responses_0Ba_
FN:11,_RNCNvMNtNtNtCsk2dDpYChjKI_14oneiros_engine7domains6doctor7serviceNtB4_13DoctorService5check0Ba_
FN:169,_RNvMNtNtNtCsk2dDpYChjKI_14oneiros_engine7domains6doctor7serviceNtB2_13DoctorService14check_mcp_live
FN:233,_RNvMNtNtNtCsk2dDpYChjKI_14oneiros_engine7domains6doctor7serviceNtB2_13DoctorService29parse_mcp_initialize_response
FN:11,_RNvMNtNtNtCsk2dDpYChjKI_14oneiros_engine7domains6doctor7serviceNtB2_13DoctorService5check
FNDA:5,_RNCNCNvMNtNtNtCsk2dDpYChjKI_14oneiros_engine7domains6doctor7serviceNtB6_13DoctorService5check0s0_0Bc_
FNDA:5,_RNCNCNvMNtNtNtCsk2dDpYChjKI_14oneiros_engine7domains6doctor7serviceNtB6_13DoctorService5check0s1_0Bc_
FNDA:5,_RNCNCNvMNtNtNtCsk2dDpYChjKI_14oneiros_engine7domains6doctor7serviceNtB6_13DoctorService5check0s2_0Bc_
FNDA:5,_RNCNCNvMNtNtNtCsk2dDpYChjKI_14oneiros_engine7domains6doctor7serviceNtB6_13DoctorService5check0s_0Bc_
FNDA:1,_RNCNvMNtNtNtCsk2dDpYChjKI_14oneiros_engine7domains6doctor7serviceNtB4_13DoctorService14check_mcp_live0Ba_
FNDA:5,_RNCNvMNtNtNtCsk2dDpYChjKI_14oneiros_engine7domains6doctor7serviceNtB4_13DoctorService29parse_mcp_initialize_response0Ba_
FNDA:2,_RNCNvMNtNtNtCsk2dDpYChjKI_14oneiros_engine7domains6doctor7serviceNtB4_13DoctorService29parse_mcp_initialize_responses0_0Ba_
FNDA:0,_RNCNvMNtNtNtCsk2dDpYChjKI_14oneiros_engine7domains6doctor7serviceNtB4_13DoctorService29parse_mcp_initialize_responses1_0Ba_
FNDA:0,_RNCNvMNtNtNtCsk2dDpYChjKI_14oneiros_engine7domains6doctor7serviceNtB4_13DoctorService29parse_mcp_initialize_responses2_0Ba_
FNDA:0,_RNCNvMNtNtNtCsk2dDpYChjKI_14oneiros_engine7domains6doctor7serviceNtB4_13DoctorService29parse_mcp_initialize_responses3_0Ba_
FNDA:1,_RNCNvMNtNtNtCsk2dDpYChjKI_14oneiros_engine7domains6doctor7serviceNtB4_13DoctorService29parse_mcp_initialize_responses4_0Ba_
FNDA:1,_RNCNvMNtNtNtCsk2dDpYChjKI_14oneiros_engine7domains6doctor7serviceNtB4_13DoctorService29parse_mcp_initialize_responses5_0Ba_
FNDA:2,_RNCNvMNtNtNtCsk2dDpYChjKI_14oneiros_engine7domains6doctor7serviceNtB4_13DoctorService29parse_mcp_initialize_responses_0Ba_
FNDA:6,_RNCNvMNtNtNtCsk2dDpYChjKI_14oneiros_engine7domains6doctor7serviceNtB4_13DoctorService5check0Ba_
FNDA:1,_RNvMNtNtNtCsk2dDpYChjKI_14oneiros_engine7domains6doctor7serviceNtB2_13DoctorService14check_mcp_live
FNDA:1,_RNvMNtNtNtCsk2dDpYChjKI_14oneiros_engine7domains6doctor7serviceNtB2_13DoctorService29parse_mcp_initialize_response
FNDA:6,_RNvMNtNtNtCsk2dDpYChjKI_14oneiros_engine7domains6doctor7serviceNtB2_13DoctorService5check
FNF:17
FNH:14
DA:11,6
DA:12,6
DA:17,6
DA:18,6
DA:20,0
DA:21,0
DA:22,0
DA:23,0
DA:24,0
DA:25,0
DA:26,0
DA:30,6
DA:31,6
DA:33,0
DA:34,0
DA:35,0
DA:36,0
DA:37,0
DA:38,0
DA:39,0
DA:43,6
DA:44,6
DA:45,6
DA:46,6
DA:47,6
DA:48,6
DA:49,6
DA:50,6
DA:51,6
DA:53,6
DA:54,1
DA:55,1
DA:56,1
DA:57,1
DA:58,1
DA:59,1
DA:60,1
DA:61,5
DA:63,5
DA:64,5
DA:67,5
DA:68,5
DA:69,5
DA:70,0
DA:71,0
DA:73,5
DA:74,5
DA:75,5
DA:76,5
DA:77,5
DA:79,5
DA:82,5
DA:84,5
DA:85,5
DA:86,5
DA:87,5
DA:88,5
DA:89,5
DA:90,5
DA:92,5
DA:93,5
DA:94,5
DA:97,5
DA:98,5
DA:99,5
DA:100,5
DA:101,5
DA:103,5
DA:104,1
DA:105,4
DA:106,4
DA:107,4
DA:110,5
DA:111,5
DA:112,5
DA:113,5
DA:114,5
DA:116,5
DA:118,5
DA:119,0
DA:120,5
DA:121,5
DA:122,5
DA:123,0
DA:124,0
DA:125,0
DA:127,0
DA:128,0
DA:129,0
DA:133,5
DA:134,5
DA:135,5
DA:136,5
DA:137,5
DA:138,0
DA:139,0
DA:140,0
DA:141,0
DA:142,0
DA:143,0
DA:147,5
DA:148,1
DA:149,1
DA:150,1
DA:151,1
DA:152,1
DA:153,0
DA:154,0
DA:155,0
DA:156,0
DA:157,4
DA:158,4
DA:159,4
DA:161,5
DA:162,5
DA:163,5
DA:164,5
DA:165,5
DA:166,5
DA:167,6
DA:169,1
DA:170,1
DA:171,1
DA:172,1
DA:173,1
DA:174,1
DA:175,1
DA:176,1
DA:177,1
DA:178,1
DA:182,1
DA:183,1
DA:184,1
DA:185,1
DA:186,1
DA:187,1
DA:188,1
DA:189,1
DA:191,1
DA:192,1
DA:193,0
DA:194,0
DA:195,0
DA:196,0
DA:197,0
DA:199,0
DA:200,0
DA:201,0
DA:202,0
DA:203,0
DA:207,1
DA:208,1
DA:209,0
DA:210,0
DA:211,0
DA:212,0
DA:213,0
DA:217,1
DA:218,0
DA:219,0
DA:220,0
DA:221,1
DA:222,1
DA:223,1
DA:224,0
DA:225,0
DA:226,0
DA:228,1
DA:233,1
DA:234,1
DA:235,1
DA:236,5
DA:237,2
DA:238,2
DA:239,1
DA:241,1
DA:242,1
DA:244,1
DA:245,0
DA:247,0
DA:248,1
DA:250,1
DA:251,1
DA:252,1
DA:254,1
DA:256,1
DA:258,1
DA:259,1
DA:260,0
DA:262,0
DA:263,1
BRF:0
BRH:0
LF:204
LH:143
end_of_record
SF:/Users/esmevane/Code/projects/oneiros/crates/oneiros-engine/src/domains/doctor/view.rs
FN:10,_RNvMNtNtNtCsk2dDpYChjKI_14oneiros_engine7domains6doctor4viewNtB2_10DoctorView3new
FN:14,_RNvMNtNtNtCsk2dDpYChjKI_14oneiros_engine7domains6doctor4viewNtB2_10DoctorView6render
FN:32,_RNvMNtNtNtCsk2dDpYChjKI_14oneiros_engine7domains6doctor4viewNtB2_10DoctorView9checklist
FNDA:6,_RNvMNtNtNtCsk2dDpYChjKI_14oneiros_engine7domains6doctor4viewNtB2_10DoctorView3new
FNDA:6,_RNvMNtNtNtCsk2dDpYChjKI_14oneiros_engine7domains6doctor4viewNtB2_10DoctorView6render
FNDA:6,_RNvMNtNtNtCsk2dDpYChjKI_14oneiros_engine7domains6doctor4viewNtB2_10DoctorView9checklist
FNF:3
FNH:3
DA:10,6
DA:11,6
DA:12,6
DA:14,6
DA:15,6
DA:16,6
DA:17,6
DA:18,6
DA:19,6
DA:20,6
DA:21,6
DA:22,6
DA:23,6
DA:24,6
DA:25,6
DA:26,6
DA:30,6
DA:32,6
DA:33,6
DA:35,52
DA:36,52
DA:38,5
DA:41,1
DA:43,1
DA:44,1
DA:47,10
DA:48,10
DA:50,5
DA:51,5
DA:53,5
DA:54,5
DA:56,0
DA:57,0
DA:59,0
DA:61,0
DA:65,1
DA:68,4
DA:70,4
DA:71,4
DA:75,0
DA:78,5
DA:80,5
DA:81,5
DA:85,5
DA:88,0
DA:90,0
DA:91,0
DA:95,1
DA:98,4
DA:100,4
DA:101,4
DA:105,0
DA:107,1
DA:108,1
DA:110,0
DA:111,0
DA:114,0
DA:116,0
DA:117,0
DA:121,5
DA:124,0
DA:126,0
DA:127,0
DA:131,0
DA:133,0
DA:134,0
DA:138,52
DA:141,6
DA:142,6
BRF:0
BRH:0
LF:69
LH:49
end_of_record
SF:/Users/esmevane/Code/projects/oneiros/crates/oneiros-engine/src/domains/experience/docs.rs
FN:17,_RNvMNtNtNtCsk2dDpYChjKI_14oneiros_engine7domains10experience4docsNtB2_14ExperienceDocs13resource_docs
FN:10,_RNvMNtNtNtCsk2dDpYChjKI_14oneiros_engine7domains10experience4docsNtB2_14ExperienceDocs3tag
FNDA:912,_RNvMNtNtNtCsk2dDpYChjKI_14oneiros_engine7domains10experience4docsNtB2_14ExperienceDocs13resource_docs
FNDA:1216,_RNvMNtNtNtCsk2dDpYChjKI_14oneiros_engine7domains10experience4docsNtB2_14ExperienceDocs3tag
FNF:2
FNH:2
DA:10,1216
DA:11,1216
DA:12,1216
DA:13,1216
DA:14,1216
DA:15,1216
DA:17,912
DA:18,912
DA:19,912
DA:20,304
DA:21,304
DA:22,304
DA:23,304
DA:24,304
DA:25,304
DA:26,304
DA:27,304
DA:28,304
DA:29,304
DA:30,304
DA:31,304
DA:32,304
DA:33,304
DA:34,304
DA:35,304
DA:36,304
DA:37,304
DA:39,912
BRF:0
BRH:0
LF:28
LH:28
end_of_record
SF:/Users/esmevane/Code/projects/oneiros/crates/oneiros-engine/src/domains/experience/features/cli.rs
FN:23,_RNvMNtNtNtNtCsk2dDpYChjKI_14oneiros_engine7domains10experience8features3cliNtB2_18ExperienceCommands7execute
FN:74,_RNCNCNvMNtNtNtNtCsk2dDpYChjKI_14oneiros_engine7domains10experience8features3cliNtB6_18ExperienceCommands7execute00Be_
FN:26,_RNCNvMNtNtNtNtCsk2dDpYChjKI_14oneiros_engine7domains10experience8features3cliNtB4_18ExperienceCommands7execute0Bc_
FNDA:28,_RNvMNtNtNtNtCsk2dDpYChjKI_14oneiros_engine7domains10experience8features3cliNtB2_18ExperienceCommands7execute
FNDA:0,_RNCNCNvMNtNtNtNtCsk2dDpYChjKI_14oneiros_engine7domains10experience8features3cliNtB6_18ExperienceCommands7execute00Be_
FNDA:28,_RNCNvMNtNtNtNtCsk2dDpYChjKI_14oneiros_engine7domains10experience8features3cliNtB4_18ExperienceCommands7execute0Bc_
FNF:3
FNH:2
DA:23,28
DA:24,28
DA:25,28
DA:26,28
DA:27,28
DA:29,28
DA:30,16
DA:31,16
DA:32,15
DA:34,5
DA:35,5
DA:36,4
DA:38,4
DA:39,4
DA:40,4
DA:43,3
DA:44,3
DA:45,3
DA:47,3
DA:48,3
DA:50,3
DA:51,3
DA:52,3
DA:53,3
DA:54,3
DA:55,3
DA:56,3
DA:57,3
DA:58,3
DA:59,3
DA:60,3
DA:61,3
DA:62,0
DA:64,3
DA:65,0
DA:66,0
DA:67,0
DA:68,0
DA:69,0
DA:70,0
DA:71,0
DA:72,3
DA:74,3
DA:75,0
DA:76,0
DA:77,0
DA:78,0
DA:82,26
DA:83,26
DA:84,26
DA:85,26
DA:86,28
BRF:0
BRH:0
LF:55
LH:41
end_of_record
SF:/Users/esmevane/Code/projects/oneiros/crates/oneiros-engine/src/domains/experience/features/http.rs
FN:14,_RNvMNtNtNtNtCsk2dDpYChjKI_14oneiros_engine7domains10experience8features4httpNtB2_16ExperienceRouter6routes
FN:99,_RNvNtNtNtNtCsk2dDpYChjKI_14oneiros_engine7domains10experience8features4http16update_sensation
FN:79,_RNvNtNtNtNtCsk2dDpYChjKI_14oneiros_engine7domains10experience8features4http18update_description
FN:62,_RNvNtNtNtNtCsk2dDpYChjKI_14oneiros_engine7domains10experience8features4http4list
FN:69,_RNvNtNtNtNtCsk2dDpYChjKI_14oneiros_engine7domains10experience8features4http4show
FN:53,_RNvNtNtNtNtCsk2dDpYChjKI_14oneiros_engine7domains10experience8features4http6create
FN:20,_RNCNvMNtNtNtNtCsk2dDpYChjKI_14oneiros_engine7domains10experience8features4httpNtB4_16ExperienceRouter6routes0Bc_
FN:31,_RNCNvMNtNtNtNtCsk2dDpYChjKI_14oneiros_engine7domains10experience8features4httpNtB4_16ExperienceRouter6routess0_0Bc_
FN:23,_RNCNvMNtNtNtNtCsk2dDpYChjKI_14oneiros_engine7domains10experience8features4httpNtB4_16ExperienceRouter6routess_0Bc_
FN:104,_RNCNvNtNtNtNtCsk2dDpYChjKI_14oneiros_engine7domains10experience8features4http16update_sensation0Bb_
FN:84,_RNCNvNtNtNtNtCsk2dDpYChjKI_14oneiros_engine7domains10experience8features4http18update_description0Bb_
FN:65,_RNCNvNtNtNtNtCsk2dDpYChjKI_14oneiros_engine7domains10experience8features4http4list0Bb_
FN:72,_RNCNvNtNtNtNtCsk2dDpYChjKI_14oneiros_engine7domains10experience8features4http4show0Bb_
FN:57,_RNCNvNtNtNtNtCsk2dDpYChjKI_14oneiros_engine7domains10experience8features4http6create0Bb_
FNDA:304,_RNvMNtNtNtNtCsk2dDpYChjKI_14oneiros_engine7domains10experience8features4httpNtB2_16ExperienceRouter6routes
FNDA:0,_RNvNtNtNtNtCsk2dDpYChjKI_14oneiros_engine7domains10experience8features4http16update_sensation
FNDA:3,_RNvNtNtNtNtCsk2dDpYChjKI_14oneiros_engine7domains10experience8features4http18update_description
FNDA:7,_RNvNtNtNtNtCsk2dDpYChjKI_14oneiros_engine7domains10experience8features4http4list
FNDA:6,_RNvNtNtNtNtCsk2dDpYChjKI_14oneiros_engine7domains10experience8features4http4show
FNDA:34,_RNvNtNtNtNtCsk2dDpYChjKI_14oneiros_engine7domains10experience8features4http6create
FNDA:304,_RNCNvMNtNtNtNtCsk2dDpYChjKI_14oneiros_engine7domains10experience8features4httpNtB4_16ExperienceRouter6routes0Bc_
FNDA:304,_RNCNvMNtNtNtNtCsk2dDpYChjKI_14oneiros_engine7domains10experience8features4httpNtB4_16ExperienceRouter6routess0_0Bc_
FNDA:304,_RNCNvMNtNtNtNtCsk2dDpYChjKI_14oneiros_engine7domains10experience8features4httpNtB4_16ExperienceRouter6routess_0Bc_
FNDA:0,_RNCNvNtNtNtNtCsk2dDpYChjKI_14oneiros_engine7domains10experience8features4http16update_sensation0Bb_
FNDA:3,_RNCNvNtNtNtNtCsk2dDpYChjKI_14oneiros_engine7domains10experience8features4http18update_description0Bb_
FNDA:7,_RNCNvNtNtNtNtCsk2dDpYChjKI_14oneiros_engine7domains10experience8features4http4list0Bb_
FNDA:6,_RNCNvNtNtNtNtCsk2dDpYChjKI_14oneiros_engine7domains10experience8features4http4show0Bb_
FNDA:34,_RNCNvNtNtNtNtCsk2dDpYChjKI_14oneiros_engine7domains10experience8features4http6create0Bb_
FNF:14
FNH:12
DA:14,304
DA:15,304
DA:16,304
DA:17,304
DA:18,304
DA:19,304
DA:20,304
DA:21,304
DA:22,304
DA:23,304
DA:24,304
DA:25,304
DA:26,304
DA:27,304
DA:29,304
DA:30,304
DA:31,304
DA:32,304
DA:33,304
DA:37,304
DA:38,304
DA:40,304
DA:53,34
DA:54,34
DA:55,34
DA:56,34
DA:57,34
DA:58,34
DA:59,32
DA:60,34
DA:62,7
DA:63,7
DA:64,7
DA:65,7
DA:66,7
DA:67,7
DA:69,6
DA:70,6
DA:71,6
DA:72,6
DA:74,6
DA:75,6
DA:77,6
DA:79,3
DA:80,3
DA:81,3
DA:82,3
DA:83,3
DA:84,3
DA:86,3
DA:87,3
DA:88,3
DA:89,3
DA:90,3
DA:91,3
DA:92,3
DA:93,3
DA:94,3
DA:95,3
DA:97,3
DA:99,0
DA:100,0
DA:101,0
DA:102,0
DA:103,0
DA:104,0
DA:106,0
DA:107,0
DA:108,0
DA:109,0
DA:110,0
DA:111,0
DA:112,0
DA:113,0
DA:114,0
DA:115,0
DA:117,0
BRF:0
BRH:0
LF:85
LH:67
end_of_record
SF:/Users/esmevane/Code/projects/oneiros/crates/oneiros-engine/src/domains/experience/features/mcp.rs
FN:20,_RNvMNtNtNtNtCsk2dDpYChjKI_14oneiros_engine7domains10experience8features3mcpNtB2_13ExperienceMcp18resource_templates
FN:6,_RNvMNtNtNtNtCsk2dDpYChjKI_14oneiros_engine7domains10experience8features3mcpNtB2_13ExperienceMcp4defs
FN:10,_RNvMNtNtNtNtCsk2dDpYChjKI_14oneiros_engine7domains10experience8features3mcpNtB2_13ExperienceMcp8dispatch
FN:24,_RNvMNtNtNtNtCsk2dDpYChjKI_14oneiros_engine7domains10experience8features3mcpNtB2_13ExperienceMcp8resource
FN:16,_RNCNvMNtNtNtNtCsk2dDpYChjKI_14oneiros_engine7domains10experience8features3mcpNtB4_13ExperienceMcp8dispatch0Bc_
FN:28,_RNCNvMNtNtNtNtCsk2dDpYChjKI_14oneiros_engine7domains10experience8features3mcpNtB4_13ExperienceMcp8resource0Bc_
FN:46,_RNvNtNtNtNtNtCsk2dDpYChjKI_14oneiros_engine7domains10experience8features3mcp14experience_mcp8dispatch
FN:76,_RNvNtNtNtNtNtCsk2dDpYChjKI_14oneiros_engine7domains10experience8features3mcp14experience_mcp8resource
FN:36,_RNvNtNtNtNtNtCsk2dDpYChjKI_14oneiros_engine7domains10experience8features3mcp14experience_mcp9tool_defs
FN:55,_RNCNCNvNtNtNtNtNtCsk2dDpYChjKI_14oneiros_engine7domains10experience8features3mcp14experience_mcp8dispatch00Bf_
FN:51,_RNCNvNtNtNtNtNtCsk2dDpYChjKI_14oneiros_engine7domains10experience8features3mcp14experience_mcp8dispatch0Bd_
FN:79,_RNCNvNtNtNtNtNtCsk2dDpYChjKI_14oneiros_engine7domains10experience8features3mcp14experience_mcp8resource0Bd_
FNDA:1,_RNvMNtNtNtNtCsk2dDpYChjKI_14oneiros_engine7domains10experience8features3mcpNtB2_13ExperienceMcp18resource_templates
FNDA:1,_RNvMNtNtNtNtCsk2dDpYChjKI_14oneiros_engine7domains10experience8features3mcpNtB2_13ExperienceMcp4defs
FNDA:0,_RNvMNtNtNtNtCsk2dDpYChjKI_14oneiros_engine7domains10experience8features3mcpNtB2_13ExperienceMcp8dispatch
FNDA:0,_RNvMNtNtNtNtCsk2dDpYChjKI_14oneiros_engine7domains10experience8features3mcpNtB2_13ExperienceMcp8resource
FNDA:0,_RNCNvMNtNtNtNtCsk2dDpYChjKI_14oneiros_engine7domains10experience8features3mcpNtB4_13ExperienceMcp8dispatch0Bc_
FNDA:0,_RNCNvMNtNtNtNtCsk2dDpYChjKI_14oneiros_engine7domains10experience8features3mcpNtB4_13ExperienceMcp8resource0Bc_
FNDA:0,_RNvNtNtNtNtNtCsk2dDpYChjKI_14oneiros_engine7domains10experience8features3mcp14experience_mcp8dispatch
FNDA:0,_RNvNtNtNtNtNtCsk2dDpYChjKI_14oneiros_engine7domains10experience8features3mcp14experience_mcp8resource
FNDA:1,_RNvNtNtNtNtNtCsk2dDpYChjKI_14oneiros_engine7domains10experience8features3mcp14experience_mcp9tool_defs
FNDA:0,_RNCNCNvNtNtNtNtNtCsk2dDpYChjKI_14oneiros_engine7domains10experience8features3mcp14experience_mcp8dispatch00Bf_
FNDA:0,_RNCNvNtNtNtNtNtCsk2dDpYChjKI_14oneiros_engine7domains10experience8features3mcp14experience_mcp8dispatch0Bd_
FNDA:0,_RNCNvNtNtNtNtNtCsk2dDpYChjKI_14oneiros_engine7domains10experience8features3mcp14experience_mcp8resource0Bd_
FNF:12
FNH:3
DA:6,1
DA:7,1
DA:8,1
DA:10,0
DA:11,0
DA:12,0
DA:13,0
DA:14,0
DA:15,0
DA:16,0
DA:17,0
DA:18,0
DA:20,1
DA:21,1
DA:22,1
DA:24,0
DA:25,0
DA:26,0
DA:27,0
DA:28,0
DA:29,0
DA:30,0
DA:36,1
DA:37,1
DA:38,1
DA:39,1
DA:40,1
DA:41,1
DA:42,1
DA:44,1
DA:46,0
DA:47,0
DA:48,0
DA:49,0
DA:50,0
DA:51,0
DA:52,0
DA:53,0
DA:54,0
DA:55,0
DA:57,0
DA:59,0
DA:60,0
DA:61,0
DA:62,0
DA:63,0
DA:64,0
DA:65,0
DA:71,0
DA:74,0
DA:76,0
DA:77,0
DA:78,0
DA:79,0
DA:80,0
DA:81,0
DA:82,0
DA:83,0
DA:84,0
DA:85,0
DA:86,0
DA:87,0
DA:91,0
DA:92,0
DA:93,0
DA:97,0
DA:99,0
DA:101,0
DA:103,0
BRF:0
BRH:0
LF:74
LH:14
end_of_record
SF:/Users/esmevane/Code/projects/oneiros/crates/oneiros-engine/src/domains/experience/features/projections.rs
FN:13,_RNCNvNtNtNtNtCsk2dDpYChjKI_14oneiros_engine7domains10experience8features11projections11PROJECTIONS0Bb_
FN:15,_RNCNvNtNtNtNtCsk2dDpYChjKI_14oneiros_engine7domains10experience8features11projections11PROJECTIONSs0_0Bb_
FN:14,_RNCNvNtNtNtNtCsk2dDpYChjKI_14oneiros_engine7domains10experience8features11projections11PROJECTIONSs_0Bb_
FN:6,_RNvMNtNtNtNtCsk2dDpYChjKI_14oneiros_engine7domains10experience8features11projectionsNtB2_21ExperienceProjections3all
FNDA:574,_RNCNvNtNtNtNtCsk2dDpYChjKI_14oneiros_engine7domains10experience8features11projections11PROJECTIONS0Bb_
FNDA:288,_RNCNvNtNtNtNtCsk2dDpYChjKI_14oneiros_engine7domains10experience8features11projections11PROJECTIONSs0_0Bb_
FNDA:7005,_RNCNvNtNtNtNtCsk2dDpYChjKI_14oneiros_engine7domains10experience8features11projections11PROJECTIONSs_0Bb_
FNDA:5825,_RNvMNtNtNtNtCsk2dDpYChjKI_14oneiros_engine7domains10experience8features11projectionsNtB2_21ExperienceProjections3all
FNF:4
FNH:4
DA:6,5825
DA:7,5825
DA:8,5825
DA:13,574
DA:14,7005
DA:15,288
BRF:0
BRH:0
LF:6
LH:6
end_of_record
SF:/Users/esmevane/Code/projects/oneiros/crates/oneiros-engine/src/domains/experience/features/skills.rs
FN:6,_RNvMNtNtNtNtCsk2dDpYChjKI_14oneiros_engine7domains10experience8features6skillsNtB2_16ExperienceSkills3all
FNDA:12,_RNvMNtNtNtNtCsk2dDpYChjKI_14oneiros_engine7domains10experience8features6skillsNtB2_16ExperienceSkills3all
FNF:1
FNH:1
DA:6,12
DA:7,12
DA:8,12
DA:9,12
DA:10,12
DA:11,12
DA:13,12
BRF:0
BRH:0
LF:7
LH:7
end_of_record
SF:/Users/esmevane/Code/projects/oneiros/crates/oneiros-engine/src/domains/experience/features/state.rs
FN:6,_RNvMNtNtNtNtCsk2dDpYChjKI_14oneiros_engine7domains10experience8features5stateNtB2_15ExperienceState6reduce
FN:34,_RNvMNtNtNtNtCsk2dDpYChjKI_14oneiros_engine7domains10experience8features5stateNtB2_15ExperienceState7reducer
FN:44,_RNvNtNtNtNtNtCsk2dDpYChjKI_14oneiros_engine7domains10experience8features5state5testss_30updates_experience_description
FNDA:7006,_RNvMNtNtNtNtCsk2dDpYChjKI_14oneiros_engine7domains10experience8features5stateNtB2_15ExperienceState6reduce
FNDA:580,_RNvMNtNtNtNtCsk2dDpYChjKI_14oneiros_engine7domains10experience8features5stateNtB2_15ExperienceState7reducer
FNDA:1,_RNvNtNtNtNtNtCsk2dDpYChjKI_14oneiros_engine7domains10experience8features5state5testss_30updates_experience_description
FNF:3
FNH:3
DA:6,7006
DA:7,7006
DA:8,38
DA:9,34
DA:10,34
DA:11,34
DA:12,34
DA:14,4
DA:15,4
DA:16,4
DA:17,4
DA:18,4
DA:19,4
DA:21,0
DA:22,0
DA:23,0
DA:24,0
DA:25,0
DA:26,0
DA:29,6968
DA:31,7006
DA:32,7006
DA:34,580
DA:35,580
DA:36,580
DA:44,1
DA:45,1
DA:46,1
DA:47,1
DA:48,1
DA:49,1
DA:50,1
DA:51,1
DA:53,1
DA:54,1
DA:55,1
DA:56,1
DA:57,1
DA:58,1
DA:59,1
DA:60,1
DA:62,1
DA:63,1
DA:64,1
BRF:0
BRH:0
LF:44
LH:38
end_of_record
SF:/Users/esmevane/Code/projects/oneiros/crates/oneiros-engine/src/domains/experience/model.rs
FN:21,_RNvMNtNtNtCsk2dDpYChjKI_14oneiros_engine7domains10experience5modelNtB2_10Experience9ref_token
FN:27,_RNvXs_NtNtNtCsk2dDpYChjKI_14oneiros_engine7domains10experience5modelNtB4_10ExperienceINtNtNtBa_6values12entity_index9IndexableNtB4_12ExperienceIdE2id
FNDA:1,_RNvMNtNtNtCsk2dDpYChjKI_14oneiros_engine7domains10experience5modelNtB2_10Experience9ref_token
FNDA:35,_RNvXs_NtNtNtCsk2dDpYChjKI_14oneiros_engine7domains10experience5modelNtB4_10ExperienceINtNtNtBa_6values12entity_index9IndexableNtB4_12ExperienceIdE2id
FNF:2
FNH:2
DA:21,1
DA:22,1
DA:23,1
DA:27,35
DA:28,35
DA:29,35
BRF:0
BRH:0
LF:6
LH:6
end_of_record
SF:/Users/esmevane/Code/projects/oneiros/crates/oneiros-engine/src/domains/experience/protocol/errors.rs
FN:43,_RNvXNtNtNtNtCsk2dDpYChjKI_14oneiros_engine7domains10experience8protocol6errorsNtB2_15ExperienceErrorNtNtNtCs1iC2TOwIRjP_9axum_core8response13into_response12IntoResponse13into_response
FNDA:4,_RNvXNtNtNtNtCsk2dDpYChjKI_14oneiros_engine7domains10experience8protocol6errorsNtB2_15ExperienceErrorNtNtNtCs1iC2TOwIRjP_9axum_core8response13into_response12IntoResponse13into_response
FNF:1
FNH:1
DA:43,4
DA:44,4
DA:45,2
DA:46,1
DA:47,0
DA:48,1
DA:50,0
DA:52,0
DA:53,0
DA:54,0
DA:55,0
DA:57,4
DA:58,4
BRF:0
BRH:0
LF:13
LH:7
end_of_record
SF:/Users/esmevane/Code/projects/oneiros/crates/oneiros-engine/src/domains/experience/protocol/events.rs
FN:58,_RNvNtNtNtNtNtCsk2dDpYChjKI_14oneiros_engine7domains10experience8protocol6events5tests17sample_experience
FN:67,_RNvNtNtNtNtNtCsk2dDpYChjKI_14oneiros_engine7domains10experience8protocol6events5testss_27event_types_are_kebab_cased
FN:88,_RNvNtNtNtNtNtCsk2dDpYChjKI_14oneiros_engine7domains10experience8protocol6events5testss_38experience_created_wire_format_is_flat
FNDA:1,_RNvNtNtNtNtNtCsk2dDpYChjKI_14oneiros_engine7domains10experience8protocol6events5tests17sample_experience
FNDA:1,_RNvNtNtNtNtNtCsk2dDpYChjKI_14oneiros_engine7domains10experience8protocol6events5testss_27event_types_are_kebab_cased
FNDA:1,_RNvNtNtNtNtNtCsk2dDpYChjKI_14oneiros_engine7domains10experience8protocol6events5testss_38experience_created_wire_format_is_flat
FNF:3
FNH:3
DA:58,1
DA:59,1
DA:60,1
DA:61,1
DA:62,1
DA:63,1
DA:64,1
DA:67,1
DA:68,1
DA:69,1
DA:70,1
DA:71,1
DA:72,1
DA:73,1
DA:74,1
DA:75,1
DA:76,1
DA:77,1
DA:78,1
DA:79,1
DA:80,1
DA:81,1
DA:82,3
DA:83,3
DA:85,1
DA:88,1
DA:89,1
DA:90,1
DA:91,1
DA:92,1
DA:94,1
DA:95,1
DA:96,1
DA:97,1
DA:100,1
DA:101,1
DA:102,1
DA:103,1
DA:104,1
DA:107,1
BRF:0
BRH:0
LF:40
LH:40
end_of_record
SF:/Users/esmevane/Code/projects/oneiros/crates/oneiros-engine/src/domains/experience/protocol/requests.rs
FN:93,_RNCNCNvXs0_NtNtNtNtCsk2dDpYChjKI_14oneiros_engine7domains10experience8protocol8requestsNtB9_15ListExperiencesNtNtBh_6client13ClientRequest15execute_request00Bh_
FN:22,_RNCNvXNtNtNtNtCsk2dDpYChjKI_14oneiros_engine7domains10experience8protocol8requestsNtB4_16CreateExperienceNtNtBc_6client13ClientRequest15execute_request0Bc_
FN:72,_RNCNvXs0_NtNtNtNtCsk2dDpYChjKI_14oneiros_engine7domains10experience8protocol8requestsNtB7_15ListExperiencesNtNtBf_6client13ClientRequest15execute_request0Bf_
FN:115,_RNCNvXs1_NtNtNtNtCsk2dDpYChjKI_14oneiros_engine7domains10experience8protocol8requestsNtB7_27UpdateExperienceDescriptionNtNtBf_6client13ClientRequest15execute_request0Bf_
FN:140,_RNCNvXs2_NtNtNtNtCsk2dDpYChjKI_14oneiros_engine7domains10experience8protocol8requestsNtB7_25UpdateExperienceSensationNtNtBf_6client13ClientRequest15execute_request0Bf_
FN:40,_RNCNvXs_NtNtNtNtCsk2dDpYChjKI_14oneiros_engine7domains10experience8protocol8requestsNtB6_13GetExperienceNtNtBe_6client13ClientRequest15execute_request0Be_
FN:167,_RNvNtNtNtNtNtCsk2dDpYChjKI_14oneiros_engine7domains10experience8protocol8requests5testss_29request_types_are_kebab_cased
FN:22,_RNvXNtNtNtNtCsk2dDpYChjKI_14oneiros_engine7domains10experience8protocol8requestsNtB2_16CreateExperienceNtNtBa_6client13ClientRequest15execute_request
FN:72,_RNvXs0_NtNtNtNtCsk2dDpYChjKI_14oneiros_engine7domains10experience8protocol8requestsNtB5_15ListExperiencesNtNtBd_6client13ClientRequest15execute_request
FN:115,_RNvXs1_NtNtNtNtCsk2dDpYChjKI_14oneiros_engine7domains10experience8protocol8requestsNtB5_27UpdateExperienceDescriptionNtNtBd_6client13ClientRequest15execute_request
FN:140,_RNvXs2_NtNtNtNtCsk2dDpYChjKI_14oneiros_engine7domains10experience8protocol8requestsNtB5_25UpdateExperienceSensationNtNtBd_6client13ClientRequest15execute_request
FN:40,_RNvXs_NtNtNtNtCsk2dDpYChjKI_14oneiros_engine7domains10experience8protocol8requestsNtB4_13GetExperienceNtNtBc_6client13ClientRequest15execute_request
FNDA:19,_RNCNCNvXs0_NtNtNtNtCsk2dDpYChjKI_14oneiros_engine7domains10experience8protocol8requestsNtB9_15ListExperiencesNtNtBh_6client13ClientRequest15execute_request00Bh_
FNDA:34,_RNCNvXNtNtNtNtCsk2dDpYChjKI_14oneiros_engine7domains10experience8protocol8requestsNtB4_16CreateExperienceNtNtBc_6client13ClientRequest15execute_request0Bc_
FNDA:7,_RNCNvXs0_NtNtNtNtCsk2dDpYChjKI_14oneiros_engine7domains10experience8protocol8requestsNtB7_15ListExperiencesNtNtBf_6client13ClientRequest15execute_request0Bf_
FNDA:3,_RNCNvXs1_NtNtNtNtCsk2dDpYChjKI_14oneiros_engine7domains10experience8protocol8requestsNtB7_27UpdateExperienceDescriptionNtNtBf_6client13ClientRequest15execute_request0Bf_
FNDA:0,_RNCNvXs2_NtNtNtNtCsk2dDpYChjKI_14oneiros_engine7domains10experience8protocol8requestsNtB7_25UpdateExperienceSensationNtNtBf_6client13ClientRequest15execute_request0Bf_
FNDA:6,_RNCNvXs_NtNtNtNtCsk2dDpYChjKI_14oneiros_engine7domains10experience8protocol8requestsNtB6_13GetExperienceNtNtBe_6client13ClientRequest15execute_request0Be_
FNDA:1,_RNvNtNtNtNtNtCsk2dDpYChjKI_14oneiros_engine7domains10experience8protocol8requests5testss_29request_types_are_kebab_cased
FNDA:34,_RNvXNtNtNtNtCsk2dDpYChjKI_14oneiros_engine7domains10experience8protocol8requestsNtB2_16CreateExperienceNtNtBa_6client13ClientRequest15execute_request
FNDA:7,_RNvXs0_NtNtNtNtCsk2dDpYChjKI_14oneiros_engine7domains10experience8protocol8requestsNtB5_15ListExperiencesNtNtBd_6client13ClientRequest15execute_request
FNDA:3,_RNvXs1_NtNtNtNtCsk2dDpYChjKI_14oneiros_engine7domains10experience8protocol8requestsNtB5_27UpdateExperienceDescriptionNtNtBd_6client13ClientRequest15execute_request
FNDA:0,_RNvXs2_NtNtNtNtCsk2dDpYChjKI_14oneiros_engine7domains10experience8protocol8requestsNtB5_25UpdateExperienceSensationNtNtBd_6client13ClientRequest15execute_request
FNDA:6,_RNvXs_NtNtNtNtCsk2dDpYChjKI_14oneiros_engine7domains10experience8protocol8requestsNtB4_13GetExperienceNtNtBc_6client13ClientRequest15execute_request
FNF:12
FNH:10
DA:22,34
DA:23,34
DA:24,34
DA:40,6
DA:41,6
DA:42,6
DA:43,6
DA:72,7
DA:73,7
DA:74,7
DA:76,7
DA:77,5
DA:78,5
DA:80,7
DA:81,0
DA:82,7
DA:84,7
DA:85,0
DA:86,7
DA:88,7
DA:89,7
DA:91,7
DA:92,7
DA:93,19
DA:94,7
DA:95,7
DA:97,7
DA:98,7
DA:115,3
DA:116,3
DA:117,3
DA:118,3
DA:119,3
DA:120,3
DA:121,3
DA:122,3
DA:123,3
DA:140,0
DA:141,0
DA:142,0
DA:143,0
DA:144,0
DA:145,0
DA:146,0
DA:147,0
DA:148,0
DA:167,1
DA:168,1
DA:169,1
DA:170,1
DA:171,1
DA:172,1
DA:173,1
DA:174,1
DA:175,1
DA:176,1
DA:177,1
DA:178,1
DA:179,1
DA:180,1
DA:182,5
DA:183,5
DA:185,1
BRF:0
BRH:0
LF:69
LH:57
end_of_record
SF:/Users/esmevane/Code/projects/oneiros/crates/oneiros-engine/src/domains/experience/repo.rs
FN:32,_RNCNCNvMNtNtNtCsk2dDpYChjKI_14oneiros_engine7domains10experience4repoNtB6_14ExperienceRepo3get00Bc_
FN:22,_RNCNCNvMNtNtNtCsk2dDpYChjKI_14oneiros_engine7domains10experience4repoNtB6_14ExperienceRepo5fetch00Bc_
FN:69,_RNCNCNvMNtNtNtCsk2dDpYChjKI_14oneiros_engine7domains10experience4repoNtB6_14ExperienceRepo8get_many00Bc_
FN:101,_RNCNCNvMNtNtNtCsk2dDpYChjKI_14oneiros_engine7domains10experience4repoNtB6_14ExperienceRepo8get_many0s0_0Bc_
FN:79,_RNCNCNvMNtNtNtCsk2dDpYChjKI_14oneiros_engine7domains10experience4repoNtB6_14ExperienceRepo8get_many0s_0Bc_
FN:25,_RNCNvMNtNtNtCsk2dDpYChjKI_14oneiros_engine7domains10experience4repoNtB4_14ExperienceRepo3get0Ba_
FN:21,_RNCNvMNtNtNtCsk2dDpYChjKI_14oneiros_engine7domains10experience4repoNtB4_14ExperienceRepo5fetch0Ba_
FN:63,_RNCNvMNtNtNtCsk2dDpYChjKI_14oneiros_engine7domains10experience4repoNtB4_14ExperienceRepo8get_many0Ba_
FN:25,_RNvMNtNtNtCsk2dDpYChjKI_14oneiros_engine7domains10experience4repoNtB2_14ExperienceRepo3get
FN:13,_RNvMNtNtNtCsk2dDpYChjKI_14oneiros_engine7domains10experience4repoNtB2_14ExperienceRepo3new
FN:21,_RNvMNtNtNtCsk2dDpYChjKI_14oneiros_engine7domains10experience4repoNtB2_14ExperienceRepo5fetch
FN:60,_RNvMNtNtNtCsk2dDpYChjKI_14oneiros_engine7domains10experience4repoNtB2_14ExperienceRepo8get_many
FNDA:45,_RNCNCNvMNtNtNtCsk2dDpYChjKI_14oneiros_engine7domains10experience4repoNtB6_14ExperienceRepo3get00Bc_
FNDA:87,_RNCNCNvMNtNtNtCsk2dDpYChjKI_14oneiros_engine7domains10experience4repoNtB6_14ExperienceRepo5fetch00Bc_
FNDA:13,_RNCNCNvMNtNtNtCsk2dDpYChjKI_14oneiros_engine7domains10experience4repoNtB6_14ExperienceRepo8get_many00Bc_
FNDA:13,_RNCNCNvMNtNtNtCsk2dDpYChjKI_14oneiros_engine7domains10experience4repoNtB6_14ExperienceRepo8get_many0s0_0Bc_
FNDA:13,_RNCNCNvMNtNtNtCsk2dDpYChjKI_14oneiros_engine7domains10experience4repoNtB6_14ExperienceRepo8get_many0s_0Bc_
FNDA:93,_RNCNvMNtNtNtCsk2dDpYChjKI_14oneiros_engine7domains10experience4repoNtB4_14ExperienceRepo3get0Ba_
FNDA:40,_RNCNvMNtNtNtCsk2dDpYChjKI_14oneiros_engine7domains10experience4repoNtB4_14ExperienceRepo5fetch0Ba_
FNDA:31,_RNCNvMNtNtNtCsk2dDpYChjKI_14oneiros_engine7domains10experience4repoNtB4_14ExperienceRepo8get_many0Ba_
FNDA:93,_RNvMNtNtNtCsk2dDpYChjKI_14oneiros_engine7domains10experience4repoNtB2_14ExperienceRepo3get
FNDA:77,_RNvMNtNtNtCsk2dDpYChjKI_14oneiros_engine7domains10experience4repoNtB2_14ExperienceRepo3new
FNDA:40,_RNvMNtNtNtCsk2dDpYChjKI_14oneiros_engine7domains10experience4repoNtB2_14ExperienceRepo5fetch
FNDA:31,_RNvMNtNtNtCsk2dDpYChjKI_14oneiros_engine7domains10experience4repoNtB2_14ExperienceRepo8get_many
FNF:12
FNH:12
DA:13,77
DA:14,77
DA:15,77
DA:21,40
DA:22,87
DA:23,40
DA:25,93
DA:26,93
DA:27,93
DA:28,93
DA:29,93
DA:30,93
DA:32,93
DA:33,45
DA:35,45
DA:36,45
DA:37,45
DA:38,45
DA:39,45
DA:41,45
DA:43,48
DA:44,45
DA:45,45
DA:46,45
DA:47,45
DA:48,45
DA:49,45
DA:50,45
DA:51,45
DA:53,48
DA:54,0
DA:56,93
DA:60,31
DA:61,31
DA:62,31
DA:63,31
DA:64,31
DA:65,21
DA:66,10
DA:67,10
DA:68,10
DA:69,13
DA:70,10
DA:71,10
DA:72,10
DA:76,10
DA:77,10
DA:78,10
DA:79,13
DA:81,13
DA:82,13
DA:83,13
DA:84,13
DA:85,13
DA:87,13
DA:88,10
DA:90,10
DA:91,13
DA:92,13
DA:93,13
DA:94,13
DA:95,13
DA:96,13
DA:97,13
DA:98,13
DA:99,13
DA:101,13
DA:102,31
BRF:0
BRH:0
LF:77
LH:75
end_of_record
SF:/Users/esmevane/Code/projects/oneiros/crates/oneiros-engine/src/domains/experience/service.rs
FN:174,_RNvMNtNtNtCsk2dDpYChjKI_14oneiros_engine7domains10experience7serviceNtB2_17ExperienceService16update_sensation
FN:121,_RNvMNtNtNtCsk2dDpYChjKI_14oneiros_engine7domains10experience7serviceNtB2_17ExperienceService18update_description
FN:53,_RNvMNtNtNtCsk2dDpYChjKI_14oneiros_engine7domains10experience7serviceNtB2_17ExperienceService3get
FN:71,_RNvMNtNtNtCsk2dDpYChjKI_14oneiros_engine7domains10experience7serviceNtB2_17ExperienceService4list
FN:6,_RNvMNtNtNtCsk2dDpYChjKI_14oneiros_engine7domains10experience7serviceNtB2_17ExperienceService6create
FN:211,_RNCNCNCNCNCNvMNtNtNtCsk2dDpYChjKI_14oneiros_engine7domains10experience7serviceNtBc_17ExperienceService16update_sensation00000Bi_
FN:161,_RNCNCNCNCNCNvMNtNtNtCsk2dDpYChjKI_14oneiros_engine7domains10experience7serviceNtBc_17ExperienceService18update_description00000Bi_
FN:211,_RNCNCNCNCNvMNtNtNtCsk2dDpYChjKI_14oneiros_engine7domains10experience7serviceNtBa_17ExperienceService16update_sensation0000Bg_
FN:161,_RNCNCNCNCNvMNtNtNtCsk2dDpYChjKI_14oneiros_engine7domains10experience7serviceNtBa_17ExperienceService18update_description0000Bg_
FN:207,_RNCNCNCNvMNtNtNtCsk2dDpYChjKI_14oneiros_engine7domains10experience7serviceNtB8_17ExperienceService16update_sensation000Be_
FN:157,_RNCNCNCNvMNtNtNtCsk2dDpYChjKI_14oneiros_engine7domains10experience7serviceNtB8_17ExperienceService18update_description000Be_
FN:212,_RNCNCNvMNtNtNtCsk2dDpYChjKI_14oneiros_engine7domains10experience7serviceNtB6_17ExperienceService16update_sensation00Bc_
FN:162,_RNCNCNvMNtNtNtCsk2dDpYChjKI_14oneiros_engine7domains10experience7serviceNtB6_17ExperienceService18update_description00Bc_
FN:81,_RNCNCNvMNtNtNtCsk2dDpYChjKI_14oneiros_engine7domains10experience7serviceNtB6_17ExperienceService4list00Bc_
FN:105,_RNCNCNvMNtNtNtCsk2dDpYChjKI_14oneiros_engine7domains10experience7serviceNtB6_17ExperienceService4list0s_0Bc_
FN:15,_RNCNCNvMNtNtNtCsk2dDpYChjKI_14oneiros_engine7domains10experience7serviceNtB6_17ExperienceService6create00Bc_
FN:178,_RNCNvMNtNtNtCsk2dDpYChjKI_14oneiros_engine7domains10experience7serviceNtB4_17ExperienceService16update_sensation0Ba_
FN:125,_RNCNvMNtNtNtCsk2dDpYChjKI_14oneiros_engine7domains10experience7serviceNtB4_17ExperienceService18update_description0Ba_
FN:56,_RNCNvMNtNtNtCsk2dDpYChjKI_14oneiros_engine7domains10experience7serviceNtB4_17ExperienceService3get0Ba_
FN:74,_RNCNvMNtNtNtCsk2dDpYChjKI_14oneiros_engine7domains10experience7serviceNtB4_17ExperienceService4list0Ba_
FN:10,_RNCNvMNtNtNtCsk2dDpYChjKI_14oneiros_engine7domains10experience7serviceNtB4_17ExperienceService6create0Ba_
FNDA:0,_RNvMNtNtNtCsk2dDpYChjKI_14oneiros_engine7domains10experience7serviceNtB2_17ExperienceService16update_sensation
FNDA:3,_RNvMNtNtNtCsk2dDpYChjKI_14oneiros_engine7domains10experience7serviceNtB2_17ExperienceService18update_description
FNDA:6,_RNvMNtNtNtCsk2dDpYChjKI_14oneiros_engine7domains10experience7serviceNtB2_17ExperienceService3get
FNDA:7,_RNvMNtNtNtCsk2dDpYChjKI_14oneiros_engine7domains10experience7serviceNtB2_17ExperienceService4list
FNDA:34,_RNvMNtNtNtCsk2dDpYChjKI_14oneiros_engine7domains10experience7serviceNtB2_17ExperienceService6create
FNDA:0,_RNCNCNCNCNCNvMNtNtNtCsk2dDpYChjKI_14oneiros_engine7domains10experience7serviceNtBc_17ExperienceService16update_sensation00000Bi_
FNDA:6,_RNCNCNCNCNCNvMNtNtNtCsk2dDpYChjKI_14oneiros_engine7domains10experience7serviceNtBc_17ExperienceService18update_description00000Bi_
FNDA:0,_RNCNCNCNCNvMNtNtNtCsk2dDpYChjKI_14oneiros_engine7domains10experience7serviceNtBa_17ExperienceService16update_sensation0000Bg_
FNDA:6,_RNCNCNCNCNvMNtNtNtCsk2dDpYChjKI_14oneiros_engine7domains10experience7serviceNtBa_17ExperienceService18update_description0000Bg_
FNDA:0,_RNCNCNCNvMNtNtNtCsk2dDpYChjKI_14oneiros_engine7domains10experience7serviceNtB8_17ExperienceService16update_sensation000Be_
FNDA:6,_RNCNCNCNvMNtNtNtCsk2dDpYChjKI_14oneiros_engine7domains10experience7serviceNtB8_17ExperienceService18update_description000Be_
FNDA:0,_RNCNCNvMNtNtNtCsk2dDpYChjKI_14oneiros_engine7domains10experience7serviceNtB6_17ExperienceService16update_sensation00Bc_
FNDA:6,_RNCNCNvMNtNtNtCsk2dDpYChjKI_14oneiros_engine7domains10experience7serviceNtB6_17ExperienceService18update_description00Bc_
FNDA:0,_RNCNCNvMNtNtNtCsk2dDpYChjKI_14oneiros_engine7domains10experience7serviceNtB6_17ExperienceService4list00Bc_
FNDA:9,_RNCNCNvMNtNtNtCsk2dDpYChjKI_14oneiros_engine7domains10experience7serviceNtB6_17ExperienceService4list0s_0Bc_
FNDA:2,_RNCNCNvMNtNtNtCsk2dDpYChjKI_14oneiros_engine7domains10experience7serviceNtB6_17ExperienceService6create00Bc_
FNDA:0,_RNCNvMNtNtNtCsk2dDpYChjKI_14oneiros_engine7domains10experience7serviceNtB4_17ExperienceService16update_sensation0Ba_
FNDA:3,_RNCNvMNtNtNtCsk2dDpYChjKI_14oneiros_engine7domains10experience7serviceNtB4_17ExperienceService18update_description0Ba_
FNDA:6,_RNCNvMNtNtNtCsk2dDpYChjKI_14oneiros_engine7domains10experience7serviceNtB4_17ExperienceService3get0Ba_
FNDA:7,_RNCNvMNtNtNtCsk2dDpYChjKI_14oneiros_engine7domains10experience7serviceNtB4_17ExperienceService4list0Ba_
FNDA:34,_RNCNvMNtNtNtCsk2dDpYChjKI_14oneiros_engine7domains10experience7serviceNtB4_17ExperienceService6create0Ba_
FNF:21
FNH:14
DA:6,34
DA:7,34
DA:8,34
DA:9,34
DA:10,34
DA:11,34
DA:12,34
DA:13,34
DA:14,34
DA:15,34
DA:17,32
DA:18,32
DA:19,32
DA:20,32
DA:21,32
DA:22,32
DA:24,32
DA:25,32
DA:26,32
DA:27,32
DA:28,32
DA:29,32
DA:30,32
DA:31,32
DA:33,32
DA:34,32
DA:35,32
DA:36,32
DA:37,32
DA:40,32
DA:41,32
DA:42,32
DA:43,32
DA:45,32
DA:46,32
DA:47,32
DA:48,32
DA:49,32
DA:50,32
DA:51,34
DA:53,6
DA:54,6
DA:55,6
DA:56,6
DA:57,6
DA:58,6
DA:59,5
DA:60,5
DA:61,5
DA:62,5
DA:63,4
DA:64,4
DA:65,4
DA:66,4
DA:67,4
DA:68,4
DA:69,6
DA:71,7
DA:72,7
DA:73,7
DA:74,7
DA:75,7
DA:76,7
DA:77,5
DA:78,5
DA:79,5
DA:80,5
DA:81,5
DA:82,5
DA:84,2
DA:87,7
DA:88,7
DA:89,7
DA:90,7
DA:91,7
DA:92,7
DA:94,7
DA:95,7
DA:96,7
DA:98,7
DA:99,1
DA:100,6
DA:102,6
DA:103,6
DA:104,6
DA:105,9
DA:106,9
DA:107,0
DA:108,9
DA:109,6
DA:110,6
DA:112,6
DA:113,6
DA:114,6
DA:115,6
DA:116,6
DA:117,6
DA:118,6
DA:119,7
DA:121,3
DA:122,3
DA:123,3
DA:124,3
DA:125,3
DA:126,3
DA:128,3
DA:129,3
DA:130,3
DA:131,3
DA:133,3
DA:134,3
DA:135,3
DA:136,3
DA:137,3
DA:138,3
DA:139,3
DA:140,3
DA:141,3
DA:142,3
DA:143,3
DA:145,3
DA:146,3
DA:147,3
DA:148,3
DA:149,3
DA:154,3
DA:155,3
DA:156,3
DA:157,6
DA:158,6
DA:159,6
DA:160,6
DA:161,6
DA:162,12
DA:163,3
DA:164,3
DA:166,3
DA:167,3
DA:168,3
DA:169,3
DA:170,3
DA:171,3
DA:172,3
DA:174,0
DA:175,0
DA:176,0
DA:177,0
DA:178,0
DA:179,0
DA:180,0
DA:181,0
DA:182,0
DA:183,0
DA:185,0
DA:186,0
DA:187,0
DA:188,0
DA:189,0
DA:190,0
DA:191,0
DA:192,0
DA:193,0
DA:194,0
DA:195,0
DA:197,0
DA:198,0
DA:199,0
DA:200,0
DA:201,0
DA:204,0
DA:205,0
DA:206,0
DA:207,0
DA:208,0
DA:209,0
DA:210,0
DA:211,0
DA:212,0
DA:213,0
DA:214,0
DA:216,0
DA:217,0
DA:218,0
DA:219,0
DA:220,0
DA:221,0
DA:222,0
BRF:0
BRH:0
LF:203
LH:152
end_of_record
SF:/Users/esmevane/Code/projects/oneiros/crates/oneiros-engine/src/domains/experience/store.rs
FN:141,_RNvMNtNtNtCsk2dDpYChjKI_14oneiros_engine7domains10experience5storeNtB2_15ExperienceStore11list_recent
FN:211,_RNvMNtNtNtCsk2dDpYChjKI_14oneiros_engine7domains10experience5storeNtB2_15ExperienceStore16update_sensation
FN:184,_RNvMNtNtNtCsk2dDpYChjKI_14oneiros_engine7domains10experience5storeNtB2_15ExperienceStore16write_experience
FN:199,_RNvMNtNtNtCsk2dDpYChjKI_14oneiros_engine7domains10experience5storeNtB2_15ExperienceStore18update_description
FN:65,_RNvMNtNtNtCsk2dDpYChjKI_14oneiros_engine7domains10experience5storeNtB2_15ExperienceStore3get
FN:11,_RNvMNtNtNtCsk2dDpYChjKI_14oneiros_engine7domains10experience5storeNtB2_15ExperienceStore3new
FN:96,_RNvMNtNtNtCsk2dDpYChjKI_14oneiros_engine7domains10experience5storeNtB2_15ExperienceStore4list
FN:47,_RNvMNtNtNtCsk2dDpYChjKI_14oneiros_engine7domains10experience5storeNtB2_15ExperienceStore5reset
FN:15,_RNvMNtNtNtCsk2dDpYChjKI_14oneiros_engine7domains10experience5storeNtB2_15ExperienceStore6handle
FN:52,_RNvMNtNtNtCsk2dDpYChjKI_14oneiros_engine7domains10experience5storeNtB2_15ExperienceStore7migrate
FN:154,_RNCNvMNtNtNtCsk2dDpYChjKI_14oneiros_engine7domains10experience5storeNtB4_15ExperienceStore11list_recent0Ba_
FN:71,_RNCNvMNtNtNtCsk2dDpYChjKI_14oneiros_engine7domains10experience5storeNtB4_15ExperienceStore3get0Ba_
FN:108,_RNCNvMNtNtNtCsk2dDpYChjKI_14oneiros_engine7domains10experience5storeNtB4_15ExperienceStore4list0Ba_
FNDA:114,_RNvMNtNtNtCsk2dDpYChjKI_14oneiros_engine7domains10experience5storeNtB2_15ExperienceStore11list_recent
FNDA:0,_RNvMNtNtNtCsk2dDpYChjKI_14oneiros_engine7domains10experience5storeNtB2_15ExperienceStore16update_sensation
FNDA:34,_RNvMNtNtNtCsk2dDpYChjKI_14oneiros_engine7domains10experience5storeNtB2_15ExperienceStore16write_experience
FNDA:3,_RNvMNtNtNtCsk2dDpYChjKI_14oneiros_engine7domains10experience5storeNtB2_15ExperienceStore18update_description
FNDA:3,_RNvMNtNtNtCsk2dDpYChjKI_14oneiros_engine7domains10experience5storeNtB2_15ExperienceStore3get
FNDA:8095,_RNvMNtNtNtCsk2dDpYChjKI_14oneiros_engine7domains10experience5storeNtB2_15ExperienceStore3new
FNDA:0,_RNvMNtNtNtCsk2dDpYChjKI_14oneiros_engine7domains10experience5storeNtB2_15ExperienceStore4list
FNDA:288,_RNvMNtNtNtCsk2dDpYChjKI_14oneiros_engine7domains10experience5storeNtB2_15ExperienceStore5reset
FNDA:7005,_RNvMNtNtNtCsk2dDpYChjKI_14oneiros_engine7domains10experience5storeNtB2_15ExperienceStore6handle
FNDA:574,_RNvMNtNtNtCsk2dDpYChjKI_14oneiros_engine7domains10experience5storeNtB2_15ExperienceStore7migrate
FNDA:14,_RNCNvMNtNtNtCsk2dDpYChjKI_14oneiros_engine7domains10experience5storeNtB4_15ExperienceStore11list_recent0Ba_
FNDA:3,_RNCNvMNtNtNtCsk2dDpYChjKI_14oneiros_engine7domains10experience5storeNtB4_15ExperienceStore3get0Ba_
FNDA:0,_RNCNvMNtNtNtCsk2dDpYChjKI_14oneiros_engine7domains10experience5storeNtB4_15ExperienceStore4list0Ba_
FNF:13
FNH:10
DA:11,8095
DA:12,8095
DA:13,8095
DA:15,7005
DA:16,7005
DA:17,37
DA:18,34
DA:19,34
DA:20,34
DA:21,34
DA:22,34
DA:24,3
DA:25,3
DA:26,3
DA:27,3
DA:28,3
DA:29,3
DA:30,3
DA:31,0
DA:33,0
DA:34,0
DA:35,0
DA:36,0
DA:37,0
DA:38,0
DA:39,0
DA:40,0
DA:43,6968
DA:44,7005
DA:45,7005
DA:47,288
DA:48,288
DA:49,288
DA:50,288
DA:52,574
DA:53,574
DA:54,574
DA:55,574
DA:56,574
DA:57,574
DA:58,574
DA:59,574
DA:60,574
DA:61,0
DA:62,574
DA:63,574
DA:65,3
DA:66,3
DA:67,3
DA:68,3
DA:69,0
DA:71,3
DA:73,3
DA:74,3
DA:75,3
DA:76,3
DA:77,3
DA:79,3
DA:81,0
DA:82,3
DA:83,3
DA:84,3
DA:85,3
DA:86,3
DA:87,3
DA:88,3
DA:89,3
DA:91,0
DA:92,0
DA:94,3
DA:96,0
DA:97,0
DA:98,0
DA:99,0
DA:100,0
DA:101,0
DA:102,0
DA:103,0
DA:104,0
DA:105,0
DA:108,0
DA:110,0
DA:111,0
DA:112,0
DA:113,0
DA:114,0
DA:116,0
DA:118,0
DA:119,0
DA:120,0
DA:121,0
DA:122,0
DA:124,0
DA:125,0
DA:126,0
DA:127,0
DA:128,0
DA:129,0
DA:130,0
DA:131,0
DA:132,0
DA:133,0
DA:137,0
DA:138,0
DA:141,114
DA:142,114
DA:143,114
DA:144,114
DA:145,114
DA:146,114
DA:147,114
DA:148,114
DA:149,114
DA:150,114
DA:151,114
DA:152,0
DA:154,114
DA:156,14
DA:157,14
DA:158,14
DA:159,14
DA:160,14
DA:162,14
DA:164,114
DA:165,114
DA:166,114
DA:168,114
DA:169,114
DA:170,14
DA:171,14
DA:172,14
DA:173,14
DA:174,14
DA:175,14
DA:176,14
DA:177,14
DA:181,114
DA:182,114
DA:184,34
DA:185,34
DA:186,34
DA:187,34
DA:188,34
DA:189,34
DA:190,34
DA:191,34
DA:192,34
DA:193,34
DA:195,0
DA:196,34
DA:197,34
DA:199,3
DA:200,3
DA:201,3
DA:202,3
DA:203,3
DA:204,3
DA:205,3
DA:206,3
DA:207,0
DA:208,3
DA:209,3
DA:211,0
DA:212,0
DA:213,0
DA:214,0
DA:215,0
DA:216,0
DA:217,0
DA:218,0
DA:219,0
DA:220,0
DA:221,0
BRF:0
BRH:0
LF:176
LH:113
end_of_record
SF:/Users/esmevane/Code/projects/oneiros/crates/oneiros-engine/src/domains/experience/view.rs
FN:15,_RNvMNtNtNtCsk2dDpYChjKI_14oneiros_engine7domains10experience4viewNtB2_14ExperienceView3mcp
FN:11,_RNvMNtNtNtCsk2dDpYChjKI_14oneiros_engine7domains10experience4viewNtB2_14ExperienceView3new
FN:92,_RNvMNtNtNtCsk2dDpYChjKI_14oneiros_engine7domains10experience4viewNtB2_14ExperienceView6render
FNDA:0,_RNvMNtNtNtCsk2dDpYChjKI_14oneiros_engine7domains10experience4viewNtB2_14ExperienceView3mcp
FNDA:26,_RNvMNtNtNtCsk2dDpYChjKI_14oneiros_engine7domains10experience4viewNtB2_14ExperienceView3new
FNDA:26,_RNvMNtNtNtCsk2dDpYChjKI_14oneiros_engine7domains10experience4viewNtB2_14ExperienceView6render
FNF:3
FNH:2
DA:11,26
DA:12,26
DA:13,26
DA:15,0
DA:16,0
DA:17,0
DA:18,0
DA:19,0
DA:23,0
DA:24,0
DA:27,0
DA:28,0
DA:29,0
DA:36,0
DA:37,0
DA:40,0
DA:42,0
DA:43,0
DA:44,0
DA:45,0
DA:46,0
DA:47,0
DA:50,0
DA:52,0
DA:54,0
DA:57,0
DA:58,0
DA:59,0
DA:60,0
DA:61,0
DA:62,0
DA:63,0
DA:67,0
DA:68,0
DA:69,0
DA:70,0
DA:71,0
DA:72,0
DA:73,0
DA:74,0
DA:75,0
DA:76,0
DA:78,0
DA:79,0
DA:80,0
DA:81,0
DA:85,0
DA:86,0
DA:90,0
DA:92,26
DA:93,26
DA:94,15
DA:95,15
DA:96,15
DA:98,15
DA:99,15
DA:101,15
DA:102,15
DA:103,15
DA:104,15
DA:105,15
DA:106,15
DA:108,15
DA:110,4
DA:111,4
DA:112,4
DA:113,4
DA:114,4
DA:115,4
DA:116,4
DA:117,4
DA:118,4
DA:119,4
DA:120,4
DA:122,4
DA:124,3
DA:125,3
DA:126,3
DA:127,3
DA:128,3
DA:130,4
DA:131,4
DA:132,4
DA:133,4
DA:134,4
DA:135,4
DA:136,4
DA:137,4
DA:138,3
DA:140,3
DA:142,3
DA:143,3
DA:144,3
DA:145,3
DA:148,1
DA:149,1
DA:150,1
DA:151,1
DA:153,3
DA:154,3
DA:155,3
DA:157,3
DA:158,3
DA:160,3
DA:161,3
DA:162,3
DA:163,3
DA:164,3
DA:165,3
DA:167,3
DA:170,26
BRF:0
BRH:0
LF:111
LH:65
end_of_record
SF:/Users/esmevane/Code/projects/oneiros/crates/oneiros-engine/src/domains/follow/docs.rs
FN:18,_RNvMNtNtNtCsk2dDpYChjKI_14oneiros_engine7domains6follow4docsNtB2_10FollowDocs13resource_docs
FN:9,_RNvMNtNtNtCsk2dDpYChjKI_14oneiros_engine7domains6follow4docsNtB2_10FollowDocs3tag
FNDA:608,_RNvMNtNtNtCsk2dDpYChjKI_14oneiros_engine7domains6follow4docsNtB2_10FollowDocs13resource_docs
FNDA:912,_RNvMNtNtNtCsk2dDpYChjKI_14oneiros_engine7domains6follow4docsNtB2_10FollowDocs3tag
FNF:2
FNH:2
DA:9,912
DA:10,912
DA:11,912
DA:12,912
DA:15,912
DA:16,912
DA:18,608
DA:19,608
DA:20,608
DA:21,304
DA:22,304
DA:23,304
DA:24,304
DA:25,304
DA:26,304
DA:27,304
DA:28,304
DA:29,304
DA:30,304
DA:31,304
DA:32,304
DA:34,608
BRF:0
BRH:0
LF:22
LH:22
end_of_record
SF:/Users/esmevane/Code/projects/oneiros/crates/oneiros-engine/src/domains/follow/features/cli.rs
FN:12,_RNvMNtNtNtNtCsk2dDpYChjKI_14oneiros_engine7domains6follow8features3cliNtB2_14FollowCommands7execute
FN:15,_RNCNvMNtNtNtNtCsk2dDpYChjKI_14oneiros_engine7domains6follow8features3cliNtB4_14FollowCommands7execute0Bc_
FNDA:0,_RNvMNtNtNtNtCsk2dDpYChjKI_14oneiros_engine7domains6follow8features3cliNtB2_14FollowCommands7execute
FNDA:0,_RNCNvMNtNtNtNtCsk2dDpYChjKI_14oneiros_engine7domains6follow8features3cliNtB4_14FollowCommands7execute0Bc_
FNF:2
FNH:0
DA:12,0
DA:13,0
DA:14,0
DA:15,0
DA:16,0
DA:18,0
DA:19,0
DA:20,0
DA:23,0
DA:24,0
DA:25,0
BRF:0
BRH:0
LF:12
LH:0
end_of_record
SF:/Users/esmevane/Code/projects/oneiros/crates/oneiros-engine/src/domains/follow/features/http.rs
FN:9,_RNvMNtNtNtNtCsk2dDpYChjKI_14oneiros_engine7domains6follow8features4httpNtB2_12FollowRouter6routes
FN:29,_RNvNtNtNtNtCsk2dDpYChjKI_14oneiros_engine7domains6follow8features4http4list
FN:55,_RNvNtNtNtNtCsk2dDpYChjKI_14oneiros_engine7domains6follow8features4http4show
FN:39,_RNCNCNvNtNtNtNtCsk2dDpYChjKI_14oneiros_engine7domains6follow8features4http4list00Bd_
FN:15,_RNCNvMNtNtNtNtCsk2dDpYChjKI_14oneiros_engine7domains6follow8features4httpNtB4_12FollowRouter6routes0Bc_
FN:21,_RNCNvMNtNtNtNtCsk2dDpYChjKI_14oneiros_engine7domains6follow8features4httpNtB4_12FollowRouter6routess_0Bc_
FN:32,_RNCNvNtNtNtNtCsk2dDpYChjKI_14oneiros_engine7domains6follow8features4http4list0Bb_
FN:58,_RNCNvNtNtNtNtCsk2dDpYChjKI_14oneiros_engine7domains6follow8features4http4show0Bb_
FNDA:304,_RNvMNtNtNtNtCsk2dDpYChjKI_14oneiros_engine7domains6follow8features4httpNtB2_12FollowRouter6routes
FNDA:0,_RNvNtNtNtNtCsk2dDpYChjKI_14oneiros_engine7domains6follow8features4http4list
FNDA:0,_RNvNtNtNtNtCsk2dDpYChjKI_14oneiros_engine7domains6follow8features4http4show
FNDA:0,_RNCNCNvNtNtNtNtCsk2dDpYChjKI_14oneiros_engine7domains6follow8features4http4list00Bd_
FNDA:304,_RNCNvMNtNtNtNtCsk2dDpYChjKI_14oneiros_engine7domains6follow8features4httpNtB4_12FollowRouter6routes0Bc_
FNDA:304,_RNCNvMNtNtNtNtCsk2dDpYChjKI_14oneiros_engine7domains6follow8features4httpNtB4_12FollowRouter6routess_0Bc_
FNDA:0,_RNCNvNtNtNtNtCsk2dDpYChjKI_14oneiros_engine7domains6follow8features4http4list0Bb_
FNDA:0,_RNCNvNtNtNtNtCsk2dDpYChjKI_14oneiros_engine7domains6follow8features4http4show0Bb_
FNF:8
FNH:3
DA:9,304
DA:10,304
DA:11,304
DA:12,304
DA:13,304
DA:14,304
DA:15,304
DA:16,304
DA:17,304
DA:19,304
DA:20,304
DA:21,304
DA:22,304
DA:23,304
DA:26,304
DA:29,0
DA:30,0
DA:31,0
DA:32,0
DA:33,0
DA:34,0
DA:36,0
DA:37,0
DA:38,0
DA:39,0
DA:40,0
DA:41,0
DA:42,0
DA:43,0
DA:44,0
DA:46,0
DA:47,0
DA:49,0
DA:50,0
DA:52,0
DA:53,0
DA:55,0
DA:56,0
DA:57,0
DA:58,0
DA:59,0
DA:60,0
DA:62,0
DA:63,0
DA:64,0
DA:65,0
DA:67,0
DA:68,0
BRF:0
BRH:0
LF:53
LH:17
end_of_record
SF:/Users/esmevane/Code/projects/oneiros/crates/oneiros-engine/src/domains/follow/features/projections.rs
FN:6,_RNvMNtNtNtNtCsk2dDpYChjKI_14oneiros_engine7domains6follow8features11projectionsNtB2_17FollowProjections3all
FN:13,_RNCNvNtNtNtNtCsk2dDpYChjKI_14oneiros_engine7domains6follow8features11projections11PROJECTIONS0Bb_
FN:15,_RNCNvNtNtNtNtCsk2dDpYChjKI_14oneiros_engine7domains6follow8features11projections11PROJECTIONSs0_0Bb_
FN:14,_RNCNvNtNtNtNtCsk2dDpYChjKI_14oneiros_engine7domains6follow8features11projections11PROJECTIONSs_0Bb_
FNDA:1848,_RNvMNtNtNtNtCsk2dDpYChjKI_14oneiros_engine7domains6follow8features11projectionsNtB2_17FollowProjections3all
FNDA:1848,_RNCNvNtNtNtNtCsk2dDpYChjKI_14oneiros_engine7domains6follow8features11projections11PROJECTIONS0Bb_
FNDA:0,_RNCNvNtNtNtNtCsk2dDpYChjKI_14oneiros_engine7domains6follow8features11projections11PROJECTIONSs0_0Bb_
FNDA:1545,_RNCNvNtNtNtNtCsk2dDpYChjKI_14oneiros_engine7domains6follow8features11projections11PROJECTIONSs_0Bb_
FNF:4
FNH:3
DA:6,1848
DA:7,1848
DA:8,1848
DA:13,1848
DA:14,1545
DA:15,0
BRF:0
BRH:0
LF:6
LH:5
end_of_record
SF:/Users/esmevane/Code/projects/oneiros/crates/oneiros-engine/src/domains/follow/features/skills.rs
FN:6,_RNvMNtNtNtNtCsk2dDpYChjKI_14oneiros_engine7domains6follow8features6skillsNtB2_12FollowSkills3all
FNDA:12,_RNvMNtNtNtNtCsk2dDpYChjKI_14oneiros_engine7domains6follow8features6skillsNtB2_12FollowSkills3all
FNF:1
FNH:1
DA:6,12
DA:7,12
DA:8,12
DA:9,12
DA:11,12
BRF:0
BRH:0
LF:5
LH:5
end_of_record
SF:/Users/esmevane/Code/projects/oneiros/crates/oneiros-engine/src/domains/follow/features/state.rs
FN:6,_RNvMNtNtNtNtCsk2dDpYChjKI_14oneiros_engine7domains6follow8features5stateNtB2_11FollowState6reduce
FN:38,_RNvMNtNtNtNtCsk2dDpYChjKI_14oneiros_engine7domains6follow8features5stateNtB2_11FollowState7reducer
FNDA:1545,_RNvMNtNtNtNtCsk2dDpYChjKI_14oneiros_engine7domains6follow8features5stateNtB2_11FollowState6reduce
FNDA:1848,_RNvMNtNtNtNtCsk2dDpYChjKI_14oneiros_engine7domains6follow8features5stateNtB2_11FollowState7reducer
FNF:2
FNH:2
DA:6,1545
DA:7,1545
DA:8,341
DA:9,9
DA:10,9
DA:11,9
DA:12,9
DA:13,9
DA:14,9
DA:15,9
DA:16,9
DA:17,9
DA:18,9
DA:19,9
DA:20,9
DA:22,1
DA:23,1
DA:24,1
DA:25,1
DA:32,331
DA:34,1204
DA:35,1545
DA:36,1545
DA:38,1848
DA:39,1848
DA:40,1848
BRF:0
BRH:0
LF:26
LH:26
end_of_record
SF:/Users/esmevane/Code/projects/oneiros/crates/oneiros-engine/src/domains/follow/model.rs
FN:33,_RNvXNtNtNtCsk2dDpYChjKI_14oneiros_engine7domains6follow5modelNtB2_6FollowINtNtNtB8_6values12entity_index9IndexableNtB2_8FollowIdE2id
FNDA:9,_RNvXNtNtNtCsk2dDpYChjKI_14oneiros_engine7domains6follow5modelNtB2_6FollowINtNtNtB8_6values12entity_index9IndexableNtB2_8FollowIdE2id
FNF:1
FNH:1
DA:33,9
DA:34,9
DA:35,9
BRF:0
BRH:0
LF:3
LH:3
end_of_record
SF:/Users/esmevane/Code/projects/oneiros/crates/oneiros-engine/src/domains/follow/protocol/errors.rs
FN:35,_RNvXNtNtNtNtCsk2dDpYChjKI_14oneiros_engine7domains6follow8protocol6errorsNtB2_11FollowErrorNtNtNtCs1iC2TOwIRjP_9axum_core8response13into_response12IntoResponse13into_response
FNDA:0,_RNvXNtNtNtNtCsk2dDpYChjKI_14oneiros_engine7domains6follow8protocol6errorsNtB2_11FollowErrorNtNtNtCs1iC2TOwIRjP_9axum_core8response13into_response12IntoResponse13into_response
FNF:1
FNH:0
DA:35,0
DA:36,0
DA:37,0
DA:38,0
DA:39,0
DA:40,0
DA:41,0
DA:42,0
DA:43,0
DA:44,0
DA:45,0
DA:46,0
DA:47,0
DA:48,0
DA:49,0
DA:50,0
DA:51,0
DA:52,0
DA:53,0
DA:54,0
DA:55,0
DA:56,0
DA:57,0
DA:58,0
DA:59,0
DA:60,0
DA:61,0
DA:62,0
DA:64,0
DA:65,0
BRF:0
BRH:0
LF:30
LH:0
end_of_record
SF:/Users/esmevane/Code/projects/oneiros/crates/oneiros-engine/src/domains/follow/protocol/requests.rs
FN:20,_RNvXNtNtNtNtCsk2dDpYChjKI_14oneiros_engine7domains6follow8protocol8requestsNtB2_9GetFollowNtNtBa_6client13ClientRequest15execute_request
FN:42,_RNvXs_NtNtNtNtCsk2dDpYChjKI_14oneiros_engine7domains6follow8protocol8requestsNtB4_11ListFollowsNtNtBc_6client13ClientRequest15execute_request
FN:20,_RNCNvXNtNtNtNtCsk2dDpYChjKI_14oneiros_engine7domains6follow8protocol8requestsNtB4_9GetFollowNtNtBc_6client13ClientRequest15execute_request0Bc_
FN:42,_RNCNvXs_NtNtNtNtCsk2dDpYChjKI_14oneiros_engine7domains6follow8protocol8requestsNtB6_11ListFollowsNtNtBe_6client13ClientRequest15execute_request0Be_
FN:65,_RNvNtNtNtNtNtCsk2dDpYChjKI_14oneiros_engine7domains6follow8protocol8requests5testss_29request_types_are_kebab_cased
FNDA:0,_RNvXNtNtNtNtCsk2dDpYChjKI_14oneiros_engine7domains6follow8protocol8requestsNtB2_9GetFollowNtNtBa_6client13ClientRequest15execute_request
FNDA:0,_RNvXs_NtNtNtNtCsk2dDpYChjKI_14oneiros_engine7domains6follow8protocol8requestsNtB4_11ListFollowsNtNtBc_6client13ClientRequest15execute_request
FNDA:0,_RNCNvXNtNtNtNtCsk2dDpYChjKI_14oneiros_engine7domains6follow8protocol8requestsNtB4_9GetFollowNtNtBc_6client13ClientRequest15execute_request0Bc_
FNDA:0,_RNCNvXs_NtNtNtNtCsk2dDpYChjKI_14oneiros_engine7domains6follow8protocol8requestsNtB6_11ListFollowsNtNtBe_6client13ClientRequest15execute_request0Be_
FNDA:1,_RNvNtNtNtNtNtCsk2dDpYChjKI_14oneiros_engine7domains6follow8protocol8requests5testss_29request_types_are_kebab_cased
FNF:5
FNH:1
DA:20,0
DA:21,0
DA:22,0
DA:23,0
DA:42,0
DA:43,0
DA:44,0
DA:48,0
DA:49,0
DA:65,1
DA:66,1
DA:67,1
DA:68,1
BRF:0
BRH:0
LF:15
LH:4
end_of_record
SF:/Users/esmevane/Code/projects/oneiros/crates/oneiros-engine/src/domains/follow/repo.rs
FN:44,_RNCNCNvMNtNtNtCsk2dDpYChjKI_14oneiros_engine7domains6follow4repoNtB6_10FollowRepo4list00Bc_
FN:20,_RNCNCNvMNtNtNtCsk2dDpYChjKI_14oneiros_engine7domains6follow4repoNtB6_10FollowRepo5fetch00Bc_
FN:68,_RNCNvMNtNtNtCsk2dDpYChjKI_14oneiros_engine7domains6follow4repoNtB4_10FollowRepo12for_bookmark0Ba_
FN:23,_RNCNvMNtNtNtCsk2dDpYChjKI_14oneiros_engine7domains6follow4repoNtB4_10FollowRepo3get0Ba_
FN:39,_RNCNvMNtNtNtCsk2dDpYChjKI_14oneiros_engine7domains6follow4repoNtB4_10FollowRepo4list0Ba_
FN:19,_RNCNvMNtNtNtCsk2dDpYChjKI_14oneiros_engine7domains6follow4repoNtB4_10FollowRepo5fetch0Ba_
FN:64,_RNvMNtNtNtCsk2dDpYChjKI_14oneiros_engine7domains6follow4repoNtB2_10FollowRepo12for_bookmark
FN:23,_RNvMNtNtNtCsk2dDpYChjKI_14oneiros_engine7domains6follow4repoNtB2_10FollowRepo3get
FN:11,_RNvMNtNtNtCsk2dDpYChjKI_14oneiros_engine7domains6follow4repoNtB2_10FollowRepo3new
FN:39,_RNvMNtNtNtCsk2dDpYChjKI_14oneiros_engine7domains6follow4repoNtB2_10FollowRepo4list
FN:19,_RNvMNtNtNtCsk2dDpYChjKI_14oneiros_engine7domains6follow4repoNtB2_10FollowRepo5fetch
FN:98,_RNvNtNtNtCsk2dDpYChjKI_14oneiros_engine7domains6follow4repo15follow_from_row
FN:87,_RNvNtNtNtCsk2dDpYChjKI_14oneiros_engine7domains6follow4repo8read_row
FNDA:0,_RNCNCNvMNtNtNtCsk2dDpYChjKI_14oneiros_engine7domains6follow4repoNtB6_10FollowRepo4list00Bc_
FNDA:0,_RNCNCNvMNtNtNtCsk2dDpYChjKI_14oneiros_engine7domains6follow4repoNtB6_10FollowRepo5fetch00Bc_
FNDA:12,_RNCNvMNtNtNtCsk2dDpYChjKI_14oneiros_engine7domains6follow4repoNtB4_10FollowRepo12for_bookmark0Ba_
FNDA:1,_RNCNvMNtNtNtCsk2dDpYChjKI_14oneiros_engine7domains6follow4repoNtB4_10FollowRepo3get0Ba_
FNDA:0,_RNCNvMNtNtNtCsk2dDpYChjKI_14oneiros_engine7domains6follow4repoNtB4_10FollowRepo4list0Ba_
FNDA:0,_RNCNvMNtNtNtCsk2dDpYChjKI_14oneiros_engine7domains6follow4repoNtB4_10FollowRepo5fetch0Ba_
FNDA:12,_RNvMNtNtNtCsk2dDpYChjKI_14oneiros_engine7domains6follow4repoNtB2_10FollowRepo12for_bookmark
FNDA:1,_RNvMNtNtNtCsk2dDpYChjKI_14oneiros_engine7domains6follow4repoNtB2_10FollowRepo3get
FNDA:13,_RNvMNtNtNtCsk2dDpYChjKI_14oneiros_engine7domains6follow4repoNtB2_10FollowRepo3new
FNDA:0,_RNvMNtNtNtCsk2dDpYChjKI_14oneiros_engine7domains6follow4repoNtB2_10FollowRepo4list
FNDA:0,_RNvMNtNtNtCsk2dDpYChjKI_14oneiros_engine7domains6follow4repoNtB2_10FollowRepo5fetch
FNDA:12,_RNvNtNtNtCsk2dDpYChjKI_14oneiros_engine7domains6follow4repo15follow_from_row
FNDA:12,_RNvNtNtNtCsk2dDpYChjKI_14oneiros_engine7domains6follow4repo8read_row
FNF:13
FNH:7
DA:11,13
DA:12,13
DA:13,13
DA:19,0
DA:20,0
DA:21,0
DA:23,1
DA:24,1
DA:25,1
DA:26,1
DA:27,1
DA:28,1
DA:30,1
DA:32,0
DA:33,1
DA:34,0
DA:35,0
DA:37,1
DA:39,0
DA:40,0
DA:42,0
DA:43,0
DA:44,0
DA:47,0
DA:48,0
DA:49,0
DA:50,0
DA:52,0
DA:53,0
DA:54,0
DA:56,0
DA:57,0
DA:58,0
DA:61,0
DA:62,0
DA:64,12
DA:65,12
DA:66,12
DA:67,12
DA:68,12
DA:69,12
DA:70,12
DA:71,12
DA:72,12
DA:73,12
DA:75,12
DA:77,1
DA:78,11
DA:79,1
DA:80,0
DA:82,12
DA:87,12
DA:89,12
DA:90,12
DA:91,12
DA:92,12
DA:93,12
DA:94,12
DA:96,12
DA:98,12
DA:99,12
DA:100,12
DA:101,12
DA:102,12
DA:104,12
DA:105,12
DA:106,12
DA:107,12
DA:108,12
DA:109,12
DA:110,12
DA:111,12
DA:112,12
BRF:0
BRH:0
LF:79
LH:51
end_of_record
SF:/Users/esmevane/Code/projects/oneiros/crates/oneiros-engine/src/domains/follow/service.rs
FN:64,_RNvMNtNtNtCsk2dDpYChjKI_14oneiros_engine7domains6follow7serviceNtB2_13FollowService12for_bookmark
FN:47,_RNvMNtNtNtCsk2dDpYChjKI_14oneiros_engine7domains6follow7serviceNtB2_13FollowService3get
FN:54,_RNvMNtNtNtCsk2dDpYChjKI_14oneiros_engine7domains6follow7serviceNtB2_13FollowService4list
FN:9,_RNvMNtNtNtCsk2dDpYChjKI_14oneiros_engine7domains6follow7serviceNtB2_13FollowService6create
FN:106,_RNvMNtNtNtCsk2dDpYChjKI_14oneiros_engine7domains6follow7serviceNtB2_13FollowService6remove
FN:76,_RNvMNtNtNtCsk2dDpYChjKI_14oneiros_engine7domains6follow7serviceNtB2_13FollowService7advance
FN:68,_RNCNvMNtNtNtCsk2dDpYChjKI_14oneiros_engine7domains6follow7serviceNtB4_13FollowService12for_bookmark0Ba_
FN:47,_RNCNvMNtNtNtCsk2dDpYChjKI_14oneiros_engine7domains6follow7serviceNtB4_13FollowService3get0Ba_
FN:57,_RNCNvMNtNtNtCsk2dDpYChjKI_14oneiros_engine7domains6follow7serviceNtB4_13FollowService4list0Ba_
FN:15,_RNCNvMNtNtNtCsk2dDpYChjKI_14oneiros_engine7domains6follow7serviceNtB4_13FollowService6create0Ba_
FN:110,_RNCNvMNtNtNtCsk2dDpYChjKI_14oneiros_engine7domains6follow7serviceNtB4_13FollowService6remove0Ba_
FN:82,_RNCNvMNtNtNtCsk2dDpYChjKI_14oneiros_engine7domains6follow7serviceNtB4_13FollowService7advance0Ba_
FNDA:12,_RNvMNtNtNtCsk2dDpYChjKI_14oneiros_engine7domains6follow7serviceNtB2_13FollowService12for_bookmark
FNDA:0,_RNvMNtNtNtCsk2dDpYChjKI_14oneiros_engine7domains6follow7serviceNtB2_13FollowService3get
FNDA:0,_RNvMNtNtNtCsk2dDpYChjKI_14oneiros_engine7domains6follow7serviceNtB2_13FollowService4list
FNDA:9,_RNvMNtNtNtCsk2dDpYChjKI_14oneiros_engine7domains6follow7serviceNtB2_13FollowService6create
FNDA:1,_RNvMNtNtNtCsk2dDpYChjKI_14oneiros_engine7domains6follow7serviceNtB2_13FollowService6remove
FNDA:10,_RNvMNtNtNtCsk2dDpYChjKI_14oneiros_engine7domains6follow7serviceNtB2_13FollowService7advance
FNDA:12,_RNCNvMNtNtNtCsk2dDpYChjKI_14oneiros_engine7domains6follow7serviceNtB4_13FollowService12for_bookmark0Ba_
FNDA:0,_RNCNvMNtNtNtCsk2dDpYChjKI_14oneiros_engine7domains6follow7serviceNtB4_13FollowService3get0Ba_
FNDA:0,_RNCNvMNtNtNtCsk2dDpYChjKI_14oneiros_engine7domains6follow7serviceNtB4_13FollowService4list0Ba_
FNDA:9,_RNCNvMNtNtNtCsk2dDpYChjKI_14oneiros_engine7domains6follow7serviceNtB4_13FollowService6create0Ba_
FNDA:1,_RNCNvMNtNtNtCsk2dDpYChjKI_14oneiros_engine7domains6follow7serviceNtB4_13FollowService6remove0Ba_
FNDA:10,_RNCNvMNtNtNtCsk2dDpYChjKI_14oneiros_engine7domains6follow7serviceNtB4_13FollowService7advance0Ba_
FNF:12
FNH:8
DA:9,9
DA:10,9
DA:11,9
DA:12,9
DA:13,9
DA:14,9
DA:15,9
DA:16,9
DA:17,9
DA:18,9
DA:19,9
DA:20,9
DA:22,9
DA:23,9
DA:24,9
DA:25,9
DA:26,9
DA:27,9
DA:28,9
DA:29,9
DA:31,9
DA:32,9
DA:33,9
DA:34,9
DA:35,9
DA:37,9
DA:38,9
DA:39,9
DA:40,9
DA:41,9
DA:44,9
DA:45,9
DA:47,0
DA:48,0
DA:49,0
DA:50,0
DA:51,0
DA:52,0
DA:54,0
DA:55,0
DA:56,0
DA:57,0
DA:58,0
DA:59,0
DA:64,12
DA:65,12
DA:66,12
DA:67,12
DA:68,12
DA:69,12
DA:70,12
DA:71,12
DA:72,12
DA:76,10
DA:77,10
DA:78,10
DA:79,10
DA:80,10
DA:81,10
DA:82,10
DA:83,10
DA:84,10
DA:85,10
DA:86,10
DA:87,10
DA:88,10
DA:89,10
DA:90,10
DA:91,10
DA:92,10
DA:94,10
DA:95,10
DA:96,10
DA:97,10
DA:98,10
DA:101,10
DA:102,10
DA:106,1
DA:107,1
DA:108,1
DA:109,1
DA:110,1
DA:111,1
DA:112,1
DA:113,1
DA:114,1
DA:116,1
DA:117,1
DA:118,1
DA:119,1
DA:120,1
DA:121,1
DA:122,1
DA:123,1
DA:124,1
DA:125,1
DA:127,1
DA:128,1
DA:129,1
DA:130,1
DA:131,1
DA:134,1
DA:135,1
BRF:0
BRH:0
LF:109
LH:95
end_of_record
SF:/Users/esmevane/Code/projects/oneiros/crates/oneiros-engine/src/domains/follow/store.rs
FN:63,_RNvMNtNtNtCsk2dDpYChjKI_14oneiros_engine7domains6follow5storeNtB2_11FollowStore13create_record
FN:93,_RNvMNtNtNtCsk2dDpYChjKI_14oneiros_engine7domains6follow5storeNtB2_11FollowStore13delete_record
FN:84,_RNvMNtNtNtCsk2dDpYChjKI_14oneiros_engine7domains6follow5storeNtB2_11FollowStore18advance_checkpoint
FN:14,_RNvMNtNtNtCsk2dDpYChjKI_14oneiros_engine7domains6follow5storeNtB2_11FollowStore3new
FN:43,_RNvMNtNtNtCsk2dDpYChjKI_14oneiros_engine7domains6follow5storeNtB2_11FollowStore5reset
FN:18,_RNvMNtNtNtCsk2dDpYChjKI_14oneiros_engine7domains6follow5storeNtB2_11FollowStore6handle
FN:48,_RNvMNtNtNtCsk2dDpYChjKI_14oneiros_engine7domains6follow5storeNtB2_11FollowStore7migrate
FNDA:9,_RNvMNtNtNtCsk2dDpYChjKI_14oneiros_engine7domains6follow5storeNtB2_11FollowStore13create_record
FNDA:1,_RNvMNtNtNtCsk2dDpYChjKI_14oneiros_engine7domains6follow5storeNtB2_11FollowStore13delete_record
FNDA:10,_RNvMNtNtNtCsk2dDpYChjKI_14oneiros_engine7domains6follow5storeNtB2_11FollowStore18advance_checkpoint
FNDA:3393,_RNvMNtNtNtCsk2dDpYChjKI_14oneiros_engine7domains6follow5storeNtB2_11FollowStore3new
FNDA:0,_RNvMNtNtNtCsk2dDpYChjKI_14oneiros_engine7domains6follow5storeNtB2_11FollowStore5reset
FNDA:1545,_RNvMNtNtNtCsk2dDpYChjKI_14oneiros_engine7domains6follow5storeNtB2_11FollowStore6handle
FNDA:1848,_RNvMNtNtNtCsk2dDpYChjKI_14oneiros_engine7domains6follow5storeNtB2_11FollowStore7migrate
FNF:7
FNH:6
DA:14,3393
DA:15,3393
DA:16,3393
DA:18,1545
DA:19,1545
DA:20,341
DA:21,9
DA:22,9
DA:23,9
DA:25,10
DA:26,10
DA:27,10
DA:29,1
DA:30,1
DA:31,1
DA:37,321
DA:39,1204
DA:40,1545
DA:41,1545
DA:43,0
DA:44,0
DA:45,0
DA:46,0
DA:48,1848
DA:49,1848
DA:50,1848
DA:51,1848
DA:52,1848
DA:53,1848
DA:54,1848
DA:55,1848
DA:56,1848
DA:57,1848
DA:58,1848
DA:59,0
DA:60,1848
DA:61,1848
DA:63,9
DA:64,9
DA:65,9
DA:67,9
DA:68,9
DA:69,9
DA:70,9
DA:71,9
DA:72,9
DA:73,9
DA:74,9
DA:75,9
DA:78,9
DA:80,0
DA:81,9
DA:82,9
DA:84,10
DA:85,10
DA:86,10
DA:87,10
DA:88,10
DA:89,0
DA:90,10
DA:91,10
DA:93,1
DA:94,1
DA:95,1
DA:96,1
DA:97,1
BRF:0
BRH:0
LF:66
LH:59
end_of_record
SF:/Users/esmevane/Code/projects/oneiros/crates/oneiros-engine/src/domains/follow/view.rs
FN:10,_RNvMNtNtNtCsk2dDpYChjKI_14oneiros_engine7domains6follow4viewNtB2_10FollowView3new
FN:44,_RNvMNtNtNtCsk2dDpYChjKI_14oneiros_engine7domains6follow4viewNtB2_10FollowView5table
FN:70,_RNvMNtNtNtCsk2dDpYChjKI_14oneiros_engine7domains6follow4viewNtB2_10FollowView6detail
FN:14,_RNvMNtNtNtCsk2dDpYChjKI_14oneiros_engine7domains6follow4viewNtB2_10FollowView6render
FNDA:0,_RNvMNtNtNtCsk2dDpYChjKI_14oneiros_engine7domains6follow4viewNtB2_10FollowView3new
FNDA:0,_RNvMNtNtNtCsk2dDpYChjKI_14oneiros_engine7domains6follow4viewNtB2_10FollowView5table
FNDA:0,_RNvMNtNtNtCsk2dDpYChjKI_14oneiros_engine7domains6follow4viewNtB2_10FollowView6detail
FNDA:0,_RNvMNtNtNtCsk2dDpYChjKI_14oneiros_engine7domains6follow4viewNtB2_10FollowView6render
FNF:4
FNH:0
DA:10,0
DA:11,0
DA:12,0
DA:14,0
DA:15,0
DA:16,0
DA:17,0
DA:18,0
DA:19,0
DA:20,0
DA:21,0
DA:24,0
DA:25,0
DA:27,0
DA:29,0
DA:32,0
DA:33,0
DA:35,0
DA:36,0
DA:37,0
DA:38,0
DA:42,0
DA:44,0
DA:45,0
DA:46,0
DA:47,0
DA:48,0
DA:49,0
DA:52,0
DA:53,0
DA:54,0
DA:55,0
DA:56,0
DA:57,0
DA:59,0
DA:60,0
DA:61,0
DA:62,0
DA:63,0
DA:67,0
DA:68,0
DA:70,0
DA:71,0
DA:72,0
DA:73,0
DA:75,0
DA:76,0
DA:77,0
DA:78,0
DA:79,0
DA:81,0
DA:83,0
DA:84,0
BRF:0
BRH:0
LF:53
LH:0
end_of_record
SF:/Users/esmevane/Code/projects/oneiros/crates/oneiros-engine/src/domains/host/actors/log.rs
FN:50,_RNCNvMs0_NtNtNtNtCsk2dDpYChjKI_14oneiros_engine7domains4host6actors3logNtB7_12HostLogActor3run0Bf_
FN:60,_RNCNvMs0_NtNtNtNtCsk2dDpYChjKI_14oneiros_engine7domains4host6actors3logNtB7_12HostLogActor6append0Bf_
FN:36,_RNCNvMs_NtNtNtNtCsk2dDpYChjKI_14oneiros_engine7domains4host6actors3logNtB6_12HostLogInbox4recv0Be_
FN:19,_RNvMNtNtNtNtCsk2dDpYChjKI_14oneiros_engine7domains4host6actors3logNtB2_14HostLogMailbox4open
FN:24,_RNvMNtNtNtNtCsk2dDpYChjKI_14oneiros_engine7domains4host6actors3logNtB2_14HostLogMailbox4tell
FN:50,_RNvMs0_NtNtNtNtCsk2dDpYChjKI_14oneiros_engine7domains4host6actors3logNtB5_12HostLogActor3run
FN:46,_RNvMs0_NtNtNtNtCsk2dDpYChjKI_14oneiros_engine7domains4host6actors3logNtB5_12HostLogActor5spawn
FN:60,_RNvMs0_NtNtNtNtCsk2dDpYChjKI_14oneiros_engine7domains4host6actors3logNtB5_12HostLogActor6append
FN:36,_RNvMs_NtNtNtNtCsk2dDpYChjKI_14oneiros_engine7domains4host6actors3logNtB4_12HostLogInbox4recv
FNDA:304,_RNCNvMs0_NtNtNtNtCsk2dDpYChjKI_14oneiros_engine7domains4host6actors3logNtB7_12HostLogActor3run0Bf_
FNDA:1545,_RNCNvMs0_NtNtNtNtCsk2dDpYChjKI_14oneiros_engine7domains4host6actors3logNtB7_12HostLogActor6append0Bf_
FNDA:1849,_RNCNvMs_NtNtNtNtCsk2dDpYChjKI_14oneiros_engine7domains4host6actors3logNtB6_12HostLogInbox4recv0Be_
FNDA:304,_RNvMNtNtNtNtCsk2dDpYChjKI_14oneiros_engine7domains4host6actors3logNtB2_14HostLogMailbox4open
FNDA:1545,_RNvMNtNtNtNtCsk2dDpYChjKI_14oneiros_engine7domains4host6actors3logNtB2_14HostLogMailbox4tell
FNDA:304,_RNvMs0_NtNtNtNtCsk2dDpYChjKI_14oneiros_engine7domains4host6actors3logNtB5_12HostLogActor3run
FNDA:304,_RNvMs0_NtNtNtNtCsk2dDpYChjKI_14oneiros_engine7domains4host6actors3logNtB5_12HostLogActor5spawn
FNDA:1545,_RNvMs0_NtNtNtNtCsk2dDpYChjKI_14oneiros_engine7domains4host6actors3logNtB5_12HostLogActor6append
FNDA:1849,_RNvMs_NtNtNtNtCsk2dDpYChjKI_14oneiros_engine7domains4host6actors3logNtB4_12HostLogInbox4recv
FNF:9
FNH:9
DA:19,304
DA:20,304
DA:21,304
DA:22,304
DA:24,1545
DA:25,1545
DA:26,0
DA:27,1545
DA:28,1545
DA:36,1849
DA:37,1849
DA:38,1545
DA:46,304
DA:47,304
DA:48,304
DA:50,304
DA:51,1849
DA:52,1545
DA:53,1545
DA:55,0
DA:56,1545
DA:58,0
DA:60,1545
DA:61,1545
DA:62,1545
DA:63,1545
DA:64,1545
DA:65,1545
DA:66,1545
DA:67,1545
DA:68,1545
DA:70,1545
DA:71,1545
BRF:0
BRH:0
LF:36
LH:33
end_of_record
SF:/Users/esmevane/Code/projects/oneiros/crates/oneiros-engine/src/domains/host/actors/projection.rs
FN:46,_RNCNvMs0_NtNtNtNtCsk2dDpYChjKI_14oneiros_engine7domains4host6actors10projectionNtB7_19HostProjectionActor3run0Bf_
FN:75,_RNCNvMs0_NtNtNtNtCsk2dDpYChjKI_14oneiros_engine7domains4host6actors10projectionNtB7_19HostProjectionActor5apply0Bf_
FN:83,_RNCNvMs0_NtNtNtNtCsk2dDpYChjKI_14oneiros_engine7domains4host6actors10projectionNtB7_19HostProjectionActor5reset0Bf_
FN:69,_RNCNvMs0_NtNtNtNtCsk2dDpYChjKI_14oneiros_engine7domains4host6actors10projectionNtB7_19HostProjectionActor7migrate0Bf_
FN:34,_RNCNvMs_NtNtNtNtCsk2dDpYChjKI_14oneiros_engine7domains4host6actors10projectionNtB6_19HostProjectionInbox4recv0Be_
FN:17,_RNvMNtNtNtNtCsk2dDpYChjKI_14oneiros_engine7domains4host6actors10projectionNtB2_21HostProjectionMailbox4open
FN:22,_RNvMNtNtNtNtCsk2dDpYChjKI_14oneiros_engine7domains4host6actors10projectionNtB2_21HostProjectionMailbox4tell
FN:46,_RNvMs0_NtNtNtNtCsk2dDpYChjKI_14oneiros_engine7domains4host6actors10projectionNtB5_19HostProjectionActor3run
FN:75,_RNvMs0_NtNtNtNtCsk2dDpYChjKI_14oneiros_engine7domains4host6actors10projectionNtB5_19HostProjectionActor5apply
FN:83,_RNvMs0_NtNtNtNtCsk2dDpYChjKI_14oneiros_engine7domains4host6actors10projectionNtB5_19HostProjectionActor5reset
FN:42,_RNvMs0_NtNtNtNtCsk2dDpYChjKI_14oneiros_engine7domains4host6actors10projectionNtB5_19HostProjectionActor5spawn
FN:69,_RNvMs0_NtNtNtNtCsk2dDpYChjKI_14oneiros_engine7domains4host6actors10projectionNtB5_19HostProjectionActor7migrate
FN:34,_RNvMs_NtNtNtNtCsk2dDpYChjKI_14oneiros_engine7domains4host6actors10projectionNtB4_19HostProjectionInbox4recv
FNDA:304,_RNCNvMs0_NtNtNtNtCsk2dDpYChjKI_14oneiros_engine7domains4host6actors10projectionNtB7_19HostProjectionActor3run0Bf_
FNDA:1545,_RNCNvMs0_NtNtNtNtCsk2dDpYChjKI_14oneiros_engine7domains4host6actors10projectionNtB7_19HostProjectionActor5apply0Bf_
FNDA:0,_RNCNvMs0_NtNtNtNtCsk2dDpYChjKI_14oneiros_engine7domains4host6actors10projectionNtB7_19HostProjectionActor5reset0Bf_
FNDA:0,_RNCNvMs0_NtNtNtNtCsk2dDpYChjKI_14oneiros_engine7domains4host6actors10projectionNtB7_19HostProjectionActor7migrate0Bf_
FNDA:1849,_RNCNvMs_NtNtNtNtCsk2dDpYChjKI_14oneiros_engine7domains4host6actors10projectionNtB6_19HostProjectionInbox4recv0Be_
FNDA:304,_RNvMNtNtNtNtCsk2dDpYChjKI_14oneiros_engine7domains4host6actors10projectionNtB2_21HostProjectionMailbox4open
FNDA:1545,_RNvMNtNtNtNtCsk2dDpYChjKI_14oneiros_engine7domains4host6actors10projectionNtB2_21HostProjectionMailbox4tell
FNDA:304,_RNvMs0_NtNtNtNtCsk2dDpYChjKI_14oneiros_engine7domains4host6actors10projectionNtB5_19HostProjectionActor3run
FNDA:1545,_RNvMs0_NtNtNtNtCsk2dDpYChjKI_14oneiros_engine7domains4host6actors10projectionNtB5_19HostProjectionActor5apply
FNDA:0,_RNvMs0_NtNtNtNtCsk2dDpYChjKI_14oneiros_engine7domains4host6actors10projectionNtB5_19HostProjectionActor5reset
FNDA:304,_RNvMs0_NtNtNtNtCsk2dDpYChjKI_14oneiros_engine7domains4host6actors10projectionNtB5_19HostProjectionActor5spawn
FNDA:0,_RNvMs0_NtNtNtNtCsk2dDpYChjKI_14oneiros_engine7domains4host6actors10projectionNtB5_19HostProjectionActor7migrate
FNDA:1849,_RNvMs_NtNtNtNtCsk2dDpYChjKI_14oneiros_engine7domains4host6actors10projectionNtB4_19HostProjectionInbox4recv
FNF:13
FNH:9
DA:17,304
DA:18,304
DA:19,304
DA:20,304
DA:22,1545
DA:23,1545
DA:24,0
DA:25,1545
DA:26,1545
DA:34,1849
DA:35,1849
DA:36,1545
DA:42,304
DA:43,304
DA:44,304
DA:46,304
DA:47,1849
DA:48,1545
DA:49,0
DA:50,0
DA:51,0
DA:52,0
DA:54,1545
DA:55,1545
DA:56,0
DA:57,1545
DA:59,0
DA:60,0
DA:61,0
DA:62,0
DA:64,0
DA:67,0
DA:69,0
DA:70,0
DA:71,0
DA:72,0
DA:73,0
DA:75,1545
DA:76,1545
DA:77,1545
DA:78,1545
DA:79,1545
DA:80,1545
DA:81,1545
DA:83,0
DA:84,0
DA:85,0
DA:86,0
DA:87,0
DA:88,0
DA:89,0
BRF:0
BRH:0
LF:56
LH:30
end_of_record
SF:/Users/esmevane/Code/projects/oneiros/crates/oneiros-engine/src/domains/host/docs.rs
FN:15,_RNvMNtNtNtCsk2dDpYChjKI_14oneiros_engine7domains4host4docsNtB2_8HostDocs13resource_docs
FN:8,_RNvMNtNtNtCsk2dDpYChjKI_14oneiros_engine7domains4host4docsNtB2_8HostDocs3tag
FNDA:304,_RNvMNtNtNtCsk2dDpYChjKI_14oneiros_engine7domains4host4docsNtB2_8HostDocs13resource_docs
FNDA:608,_RNvMNtNtNtCsk2dDpYChjKI_14oneiros_engine7domains4host4docsNtB2_8HostDocs3tag
FNF:2
FNH:2
DA:8,608
DA:9,608
DA:10,608
DA:11,608
DA:12,608
DA:13,608
DA:15,304
DA:16,304
DA:17,304
DA:18,304
DA:19,304
DA:20,304
DA:21,304
DA:22,304
DA:25,304
DA:27,304
BRF:0
BRH:0
LF:16
LH:16
end_of_record
SF:/Users/esmevane/Code/projects/oneiros/crates/oneiros-engine/src/domains/host/features/cli.rs
FN:23,_RNCNvMNtNtNtNtCsk2dDpYChjKI_14oneiros_engine7domains4host8features3cliNtB4_12HostCommands7execute0Bc_
FN:23,_RNvMNtNtNtNtCsk2dDpYChjKI_14oneiros_engine7domains4host8features3cliNtB2_12HostCommands7execute
FNDA:300,_RNCNvMNtNtNtNtCsk2dDpYChjKI_14oneiros_engine7domains4host8features3cliNtB4_12HostCommands7execute0Bc_
FNDA:300,_RNvMNtNtNtNtCsk2dDpYChjKI_14oneiros_engine7domains4host8features3cliNtB2_12HostCommands7execute
FNF:2
FNH:2
DA:23,300
DA:24,300
DA:25,300
DA:26,300
DA:27,300
DA:28,300
DA:30,0
DA:31,0
DA:32,0
DA:33,0
DA:34,0
DA:35,0
DA:38,300
DA:39,300
BRF:0
BRH:0
LF:15
LH:9
end_of_record
SF:/Users/esmevane/Code/projects/oneiros/crates/oneiros-engine/src/domains/host/features/http.rs
FN:9,_RNvMNtNtNtNtCsk2dDpYChjKI_14oneiros_engine7domains4host8features4httpNtB2_10HostRouter6routes
FN:19,_RNvNtNtNtNtCsk2dDpYChjKI_14oneiros_engine7domains4host8features4http4init
FN:12,_RNCNvMNtNtNtNtCsk2dDpYChjKI_14oneiros_engine7domains4host8features4httpNtB4_10HostRouter6routes0Bc_
FN:22,_RNCNvNtNtNtNtCsk2dDpYChjKI_14oneiros_engine7domains4host8features4http4init0Bb_
FNDA:304,_RNvMNtNtNtNtCsk2dDpYChjKI_14oneiros_engine7domains4host8features4httpNtB2_10HostRouter6routes
FNDA:303,_RNvNtNtNtNtCsk2dDpYChjKI_14oneiros_engine7domains4host8features4http4init
FNDA:304,_RNCNvMNtNtNtNtCsk2dDpYChjKI_14oneiros_engine7domains4host8features4httpNtB4_10HostRouter6routes0Bc_
FNDA:303,_RNCNvNtNtNtNtCsk2dDpYChjKI_14oneiros_engine7domains4host8features4http4init0Bb_
FNF:4
FNH:4
DA:9,304
DA:10,304
DA:11,304
DA:12,304
DA:13,304
DA:14,304
DA:16,304
DA:19,303
DA:20,303
DA:21,303
DA:22,303
DA:23,303
DA:24,303
DA:25,303
BRF:0
BRH:0
LF:16
LH:16
end_of_record
SF:/Users/esmevane/Code/projects/oneiros/crates/oneiros-engine/src/domains/host/features/skills.rs
FN:6,_RNvMNtNtNtNtCsk2dDpYChjKI_14oneiros_engine7domains4host8features6skillsNtB2_10HostSkills3all
FNDA:12,_RNvMNtNtNtNtCsk2dDpYChjKI_14oneiros_engine7domains4host8features6skillsNtB2_10HostSkills3all
FNF:1
FNH:1
DA:6,12
DA:7,12
DA:8,12
DA:9,12
DA:10,12
DA:11,12
DA:12,12
DA:13,12
DA:14,12
DA:16,12
BRF:0
BRH:0
LF:10
LH:10
end_of_record
SF:/Users/esmevane/Code/projects/oneiros/crates/oneiros-engine/src/domains/host/protocol/errors.rs
FN:55,_RNvXNtNtNtNtCsk2dDpYChjKI_14oneiros_engine7domains4host8protocol6errorsNtB2_9HostErrorNtNtNtCs1iC2TOwIRjP_9axum_core8response13into_response12IntoResponse13into_response
FNDA:0,_RNvXNtNtNtNtCsk2dDpYChjKI_14oneiros_engine7domains4host8protocol6errorsNtB2_9HostErrorNtNtNtCs1iC2TOwIRjP_9axum_core8response13into_response12IntoResponse13into_response
FNF:1
FNH:0
DA:55,0
DA:56,0
DA:58,0
DA:70,0
DA:72,0
DA:73,0
DA:75,0
DA:76,0
BRF:0
BRH:0
LF:8
LH:0
end_of_record
SF:/Users/esmevane/Code/projects/oneiros/crates/oneiros-engine/src/domains/host/protocol/requests.rs
FN:43,_RNvNtNtNtNtNtCsk2dDpYChjKI_14oneiros_engine7domains4host8protocol8requests5testss_29request_types_are_kebab_cased
FN:26,_RNvXNtNtNtNtCsk2dDpYChjKI_14oneiros_engine7domains4host8protocol8requestsNtB2_8InitHostNtNtBa_6client13ClientRequest15execute_request
FN:26,_RNCNvXNtNtNtNtCsk2dDpYChjKI_14oneiros_engine7domains4host8protocol8requestsNtB4_8InitHostNtNtBc_6client13ClientRequest15execute_request0Bc_
FNDA:1,_RNvNtNtNtNtNtCsk2dDpYChjKI_14oneiros_engine7domains4host8protocol8requests5testss_29request_types_are_kebab_cased
FNDA:303,_RNvXNtNtNtNtCsk2dDpYChjKI_14oneiros_engine7domains4host8protocol8requestsNtB2_8InitHostNtNtBa_6client13ClientRequest15execute_request
FNDA:303,_RNCNvXNtNtNtNtCsk2dDpYChjKI_14oneiros_engine7domains4host8protocol8requestsNtB4_8InitHostNtNtBc_6client13ClientRequest15execute_request0Bc_
FNF:3
FNH:3
DA:26,303
DA:27,303
DA:28,303
DA:43,1
DA:44,1
DA:46,1
DA:47,1
DA:49,1
BRF:0
BRH:0
LF:9
LH:9
end_of_record
SF:/Users/esmevane/Code/projects/oneiros/crates/oneiros-engine/src/domains/host/protocol/responses.rs
FN:70,_RNvXNtNtNtNtCsk2dDpYChjKI_14oneiros_engine7domains4host8protocol9responsesNtB2_12HostResponseNtNtCsl8K0bEFm1U0_4core3fmt7Display3fmt
FNDA:0,_RNvXNtNtNtNtCsk2dDpYChjKI_14oneiros_engine7domains4host8protocol9responsesNtB2_12HostResponseNtNtCsl8K0bEFm1U0_4core3fmt7Display3fmt
FNF:1
FNH:0
DA:70,0
DA:71,0
DA:72,0
DA:73,0
DA:75,0
DA:76,0
DA:77,0
DA:79,0
DA:80,0
DA:81,0
DA:82,0
DA:84,0
DA:85,0
DA:86,0
DA:88,0
DA:89,0
DA:92,0
BRF:0
BRH:0
LF:17
LH:0
end_of_record
SF:/Users/esmevane/Code/projects/oneiros/crates/oneiros-engine/src/domains/host/service.rs
FN:101,_RNvMNtNtNtCsk2dDpYChjKI_14oneiros_engine7domains4host7serviceNtB2_11HostService11parse_label
FN:222,_RNvMNtNtNtCsk2dDpYChjKI_14oneiros_engine7domains4host7serviceNtB2_11HostService3run
FN:23,_RNvMNtNtNtCsk2dDpYChjKI_14oneiros_engine7domains4host7serviceNtB2_11HostService4init
FN:183,_RNvMNtNtNtCsk2dDpYChjKI_14oneiros_engine7domains4host7serviceNtB2_11HostService4stop
FN:155,_RNvMNtNtNtCsk2dDpYChjKI_14oneiros_engine7domains4host7serviceNtB2_11HostService5start
FN:195,_RNvMNtNtNtCsk2dDpYChjKI_14oneiros_engine7domains4host7serviceNtB2_11HostService6status
FN:106,_RNvMNtNtNtCsk2dDpYChjKI_14oneiros_engine7domains4host7serviceNtB2_11HostService7install
FN:94,_RNvMNtNtNtCsk2dDpYChjKI_14oneiros_engine7domains4host7serviceNtB2_11HostService7manager
FN:139,_RNvMNtNtNtCsk2dDpYChjKI_14oneiros_engine7domains4host7serviceNtB2_11HostService9uninstall
FN:8,_RINvNtNtNtCsk2dDpYChjKI_14oneiros_engine7domains4host7service11manager_errNtNtNtCsg55jX0GwzBC_3std2io5error5ErrorEB8_
FN:52,_RNCNCNvMNtNtNtCsk2dDpYChjKI_14oneiros_engine7domains4host7serviceNtB6_11HostService4init00Bc_
FN:222,_RNCNvMNtNtNtCsk2dDpYChjKI_14oneiros_engine7domains4host7serviceNtB4_11HostService3run0Ba_
FN:27,_RNCNvMNtNtNtCsk2dDpYChjKI_14oneiros_engine7domains4host7serviceNtB4_11HostService4init0Ba_
FN:155,_RNCNvMNtNtNtCsk2dDpYChjKI_14oneiros_engine7domains4host7serviceNtB4_11HostService5start0Ba_
FN:195,_RNCNvMNtNtNtCsk2dDpYChjKI_14oneiros_engine7domains4host7serviceNtB4_11HostService6status0Ba_
FNDA:0,_RNvMNtNtNtCsk2dDpYChjKI_14oneiros_engine7domains4host7serviceNtB2_11HostService11parse_label
FNDA:0,_RNvMNtNtNtCsk2dDpYChjKI_14oneiros_engine7domains4host7serviceNtB2_11HostService3run
FNDA:303,_RNvMNtNtNtCsk2dDpYChjKI_14oneiros_engine7domains4host7serviceNtB2_11HostService4init
FNDA:0,_RNvMNtNtNtCsk2dDpYChjKI_14oneiros_engine7domains4host7serviceNtB2_11HostService4stop
FNDA:0,_RNvMNtNtNtCsk2dDpYChjKI_14oneiros_engine7domains4host7serviceNtB2_11HostService5start
FNDA:7,_RNvMNtNtNtCsk2dDpYChjKI_14oneiros_engine7domains4host7serviceNtB2_11HostService6status
FNDA:0,_RNvMNtNtNtCsk2dDpYChjKI_14oneiros_engine7domains4host7serviceNtB2_11HostService7install
FNDA:0,_RNvMNtNtNtCsk2dDpYChjKI_14oneiros_engine7domains4host7serviceNtB2_11HostService7manager
FNDA:0,_RNvMNtNtNtCsk2dDpYChjKI_14oneiros_engine7domains4host7serviceNtB2_11HostService9uninstall
FNDA:0,_RINvNtNtNtCsk2dDpYChjKI_14oneiros_engine7domains4host7service11manager_errNtNtNtCsg55jX0GwzBC_3std2io5error5ErrorEB8_
FNDA:1,_RNCNCNvMNtNtNtCsk2dDpYChjKI_14oneiros_engine7domains4host7serviceNtB6_11HostService4init00Bc_
FNDA:0,_RNCNvMNtNtNtCsk2dDpYChjKI_14oneiros_engine7domains4host7serviceNtB4_11HostService3run0Ba_
FNDA:303,_RNCNvMNtNtNtCsk2dDpYChjKI_14oneiros_engine7domains4host7serviceNtB4_11HostService4init0Ba_
FNDA:0,_RNCNvMNtNtNtCsk2dDpYChjKI_14oneiros_engine7domains4host7serviceNtB4_11HostService5start0Ba_
FNDA:7,_RNCNvMNtNtNtCsk2dDpYChjKI_14oneiros_engine7domains4host7serviceNtB4_11HostService6status0Ba_
FNF:15
FNH:5
DA:8,0
DA:9,0
DA:10,0
DA:23,303
DA:24,303
DA:25,303
DA:26,303
DA:27,303
DA:28,303
DA:30,303
DA:31,303
DA:32,303
DA:33,303
DA:34,303
DA:35,303
DA:37,303
DA:39,303
DA:40,303
DA:41,303
DA:42,303
DA:43,303
DA:45,303
DA:46,2
DA:47,301
DA:49,301
DA:50,301
DA:51,301
DA:52,301
DA:53,301
DA:55,301
DA:56,301
DA:57,301
DA:58,301
DA:59,301
DA:60,301
DA:61,301
DA:62,301
DA:63,301
DA:65,301
DA:66,301
DA:67,0
DA:68,0
DA:69,0
DA:70,0
DA:74,301
DA:75,301
DA:76,301
DA:77,301
DA:78,301
DA:79,301
DA:80,301
DA:81,301
DA:82,301
DA:83,301
DA:85,301
DA:86,301
DA:87,301
DA:88,301
DA:89,301
DA:90,301
DA:91,303
DA:94,0
DA:95,0
DA:96,0
DA:97,0
DA:98,0
DA:101,0
DA:102,0
DA:103,0
DA:106,0
DA:107,0
DA:108,0
DA:110,0
DA:112,0
DA:113,0
DA:114,0
DA:115,0
DA:116,0
DA:117,0
DA:118,0
DA:119,0
DA:120,0
DA:122,0
DA:123,0
DA:124,0
DA:125,0
DA:126,0
DA:128,0
DA:130,0
DA:131,0
DA:132,0
DA:133,0
DA:134,0
DA:135,0
DA:136,0
DA:139,0
DA:140,0
DA:141,0
DA:143,0
DA:144,0
DA:145,0
DA:147,0
DA:148,0
DA:149,0
DA:151,0
DA:152,0
DA:155,0
DA:156,0
DA:157,0
DA:159,0
DA:160,0
DA:161,0
DA:163,0
DA:164,0
DA:166,0
DA:167,0
DA:169,0
DA:170,0
DA:171,0
DA:172,0
DA:173,0
DA:174,0
DA:175,0
DA:176,0
DA:179,0
DA:180,0
DA:183,0
DA:184,0
DA:185,0
DA:187,0
DA:188,0
DA:189,0
DA:191,0
DA:192,0
DA:195,7
DA:196,7
DA:197,7
DA:199,7
DA:200,7
DA:201,7
DA:202,7
DA:203,7
DA:204,7
DA:205,7
DA:206,0
DA:207,0
DA:208,0
DA:209,0
DA:210,0
DA:211,0
DA:212,0
DA:213,0
DA:214,0
DA:215,0
DA:216,0
DA:217,0
DA:219,7
DA:222,0
DA:223,0
DA:225,0
DA:226,0
BRF:0
BRH:0
LF:166
LH:68
end_of_record
SF:/Users/esmevane/Code/projects/oneiros/crates/oneiros-engine/src/domains/host/view.rs
FN:13,_RNvMNtNtNtCsk2dDpYChjKI_14oneiros_engine7domains4host4viewNtB2_8HostView3new
FN:17,_RNvMNtNtNtCsk2dDpYChjKI_14oneiros_engine7domains4host4viewNtB2_8HostView6render
FNDA:300,_RNvMNtNtNtCsk2dDpYChjKI_14oneiros_engine7domains4host4viewNtB2_8HostView3new
FNDA:300,_RNvMNtNtNtCsk2dDpYChjKI_14oneiros_engine7domains4host4viewNtB2_8HostView6render
FNF:2
FNH:2
DA:13,300
DA:14,300
DA:15,300
DA:17,300
DA:18,300
DA:19,299
DA:20,299
DA:21,299
DA:22,299
DA:23,299
DA:24,299
DA:25,299
DA:26,299
DA:27,299
DA:28,299
DA:29,299
DA:30,299
DA:34,1
DA:35,1
DA:37,0
DA:38,0
DA:39,0
DA:40,0
DA:41,0
DA:42,0
DA:43,0
DA:44,0
DA:45,0
DA:48,0
DA:49,0
DA:52,0
DA:53,0
DA:55,0
DA:56,0
DA:57,0
DA:58,0
DA:59,0
DA:60,0
DA:61,0
DA:62,0
DA:63,0
DA:66,0
DA:67,0
DA:69,0
DA:70,0
DA:71,0
DA:72,0
DA:73,0
DA:74,0
DA:75,0
DA:76,0
DA:77,0
DA:79,0
DA:80,0
DA:81,0
DA:82,0
DA:83,0
DA:84,0
DA:85,0
DA:86,0
DA:87,0
DA:90,300
BRF:0
BRH:0
LF:62
LH:20
end_of_record
SF:/Users/esmevane/Code/projects/oneiros/crates/oneiros-engine/src/domains/level/docs.rs
FN:18,_RNvMNtNtNtCsk2dDpYChjKI_14oneiros_engine7domains5level4docsNtB2_9LevelDocs13resource_docs
FN:11,_RNvMNtNtNtCsk2dDpYChjKI_14oneiros_engine7domains5level4docsNtB2_9LevelDocs3tag
FNDA:1216,_RNvMNtNtNtCsk2dDpYChjKI_14oneiros_engine7domains5level4docsNtB2_9LevelDocs13resource_docs
FNDA:1520,_RNvMNtNtNtCsk2dDpYChjKI_14oneiros_engine7domains5level4docsNtB2_9LevelDocs3tag
FNF:2
FNH:2
DA:11,1520
DA:12,1520
DA:13,1520
DA:14,1520
DA:15,1520
DA:16,1520
DA:18,1216
DA:19,1216
DA:20,1216
DA:21,304
DA:22,304
DA:23,304
DA:24,304
DA:25,304
DA:26,304
DA:27,304
DA:28,304
DA:29,304
DA:30,304
DA:31,304
DA:32,304
DA:33,304
DA:34,304
DA:35,304
DA:36,304
DA:37,304
DA:38,304
DA:39,304
DA:40,304
DA:41,304
DA:42,304
DA:43,304
DA:44,304
DA:46,1216
BRF:0
BRH:0
LF:34
LH:34
end_of_record
SF:/Users/esmevane/Code/projects/oneiros/crates/oneiros-engine/src/domains/level/features/cli.rs
FN:19,_RNvMNtNtNtNtCsk2dDpYChjKI_14oneiros_engine7domains5level8features3cliNtB2_13LevelCommands7execute
FN:19,_RNCNvMNtNtNtNtCsk2dDpYChjKI_14oneiros_engine7domains5level8features3cliNtB4_13LevelCommands7execute0Bc_
FNDA:54,_RNvMNtNtNtNtCsk2dDpYChjKI_14oneiros_engine7domains5level8features3cliNtB2_13LevelCommands7execute
FNDA:54,_RNCNvMNtNtNtNtCsk2dDpYChjKI_14oneiros_engine7domains5level8features3cliNtB4_13LevelCommands7execute0Bc_
FNF:2
FNH:2
DA:19,54
DA:20,54
DA:22,54
DA:23,41
DA:24,3
DA:25,6
DA:26,4
DA:29,54
DA:30,54
DA:31,54
BRF:0
BRH:0
LF:11
LH:11
end_of_record
SF:/Users/esmevane/Code/projects/oneiros/crates/oneiros-engine/src/domains/level/features/http.rs
FN:13,_RNvMNtNtNtNtCsk2dDpYChjKI_14oneiros_engine7domains5level8features4httpNtB2_11LevelRouter6routes
FN:41,_RNvNtNtNtNtCsk2dDpYChjKI_14oneiros_engine7domains5level8features4http3set
FN:56,_RNvNtNtNtNtCsk2dDpYChjKI_14oneiros_engine7domains5level8features4http4list
FN:63,_RNvNtNtNtNtCsk2dDpYChjKI_14oneiros_engine7domains5level8features4http4show
FN:72,_RNvNtNtNtNtCsk2dDpYChjKI_14oneiros_engine7domains5level8features4http6remove
FN:19,_RNCNvMNtNtNtNtCsk2dDpYChjKI_14oneiros_engine7domains5level8features4httpNtB4_11LevelRouter6routes0Bc_
FN:30,_RNCNvMNtNtNtNtCsk2dDpYChjKI_14oneiros_engine7domains5level8features4httpNtB4_11LevelRouter6routess0_0Bc_
FN:33,_RNCNvMNtNtNtNtCsk2dDpYChjKI_14oneiros_engine7domains5level8features4httpNtB4_11LevelRouter6routess1_0Bc_
FN:25,_RNCNvMNtNtNtNtCsk2dDpYChjKI_14oneiros_engine7domains5level8features4httpNtB4_11LevelRouter6routess_0Bc_
FN:46,_RNCNvNtNtNtNtCsk2dDpYChjKI_14oneiros_engine7domains5level8features4http3set0Bb_
FN:59,_RNCNvNtNtNtNtCsk2dDpYChjKI_14oneiros_engine7domains5level8features4http4list0Bb_
FN:66,_RNCNvNtNtNtNtCsk2dDpYChjKI_14oneiros_engine7domains5level8features4http4show0Bb_
FN:76,_RNCNvNtNtNtNtCsk2dDpYChjKI_14oneiros_engine7domains5level8features4http6remove0Bb_
FNDA:304,_RNvMNtNtNtNtCsk2dDpYChjKI_14oneiros_engine7domains5level8features4httpNtB2_11LevelRouter6routes
FNDA:43,_RNvNtNtNtNtCsk2dDpYChjKI_14oneiros_engine7domains5level8features4http3set
FNDA:12,_RNvNtNtNtNtCsk2dDpYChjKI_14oneiros_engine7domains5level8features4http4list
FNDA:8,_RNvNtNtNtNtCsk2dDpYChjKI_14oneiros_engine7domains5level8features4http4show
FNDA:4,_RNvNtNtNtNtCsk2dDpYChjKI_14oneiros_engine7domains5level8features4http6remove
FNDA:304,_RNCNvMNtNtNtNtCsk2dDpYChjKI_14oneiros_engine7domains5level8features4httpNtB4_11LevelRouter6routes0Bc_
FNDA:304,_RNCNvMNtNtNtNtCsk2dDpYChjKI_14oneiros_engine7domains5level8features4httpNtB4_11LevelRouter6routess0_0Bc_
FNDA:304,_RNCNvMNtNtNtNtCsk2dDpYChjKI_14oneiros_engine7domains5level8features4httpNtB4_11LevelRouter6routess1_0Bc_
FNDA:304,_RNCNvMNtNtNtNtCsk2dDpYChjKI_14oneiros_engine7domains5level8features4httpNtB4_11LevelRouter6routess_0Bc_
FNDA:43,_RNCNvNtNtNtNtCsk2dDpYChjKI_14oneiros_engine7domains5level8features4http3set0Bb_
FNDA:12,_RNCNvNtNtNtNtCsk2dDpYChjKI_14oneiros_engine7domains5level8features4http4list0Bb_
FNDA:8,_RNCNvNtNtNtNtCsk2dDpYChjKI_14oneiros_engine7domains5level8features4http4show0Bb_
FNDA:4,_RNCNvNtNtNtNtCsk2dDpYChjKI_14oneiros_engine7domains5level8features4http6remove0Bb_
FNF:13
FNH:13
DA:13,304
DA:14,304
DA:15,304
DA:16,304
DA:17,304
DA:18,304
DA:19,304
DA:20,304
DA:21,304
DA:23,304
DA:24,304
DA:25,304
DA:26,304
DA:27,304
DA:28,304
DA:29,304
DA:30,304
DA:31,304
DA:32,304
DA:33,304
DA:34,304
DA:35,304
DA:38,304
DA:41,43
DA:42,43
DA:43,43
DA:44,43
DA:45,43
DA:46,43
DA:47,43
DA:48,43
DA:49,43
DA:52,43
DA:54,43
DA:56,12
DA:57,12
DA:58,12
DA:59,12
DA:60,12
DA:61,12
DA:63,8
DA:64,8
DA:65,8
DA:66,8
DA:68,8
DA:70,8
DA:72,4
DA:73,4
DA:74,4
DA:75,4
DA:76,4
DA:78,4
DA:79,4
DA:80,4
DA:81,4
DA:82,4
DA:83,4
DA:85,4
BRF:0
BRH:0
LF:66
LH:66
end_of_record
SF:/Users/esmevane/Code/projects/oneiros/crates/oneiros-engine/src/domains/level/features/mcp.rs
FN:10,_RNvMNtNtNtNtCsk2dDpYChjKI_14oneiros_engine7domains5level8features3mcpNtB2_8LevelMcp8resource
FN:6,_RNvMNtNtNtNtCsk2dDpYChjKI_14oneiros_engine7domains5level8features3mcpNtB2_8LevelMcp9resources
FN:23,_RNvNtNtNtNtNtCsk2dDpYChjKI_14oneiros_engine7domains5level8features3mcp9level_mcp8resource
FN:14,_RNCNvMNtNtNtNtCsk2dDpYChjKI_14oneiros_engine7domains5level8features3mcpNtB4_8LevelMcp8resource0Bc_
FN:26,_RNCNvNtNtNtNtNtCsk2dDpYChjKI_14oneiros_engine7domains5level8features3mcp9level_mcp8resource0Bd_
FNDA:1,_RNvMNtNtNtNtCsk2dDpYChjKI_14oneiros_engine7domains5level8features3mcpNtB2_8LevelMcp8resource
FNDA:1,_RNvMNtNtNtNtCsk2dDpYChjKI_14oneiros_engine7domains5level8features3mcpNtB2_8LevelMcp9resources
FNDA:1,_RNvNtNtNtNtNtCsk2dDpYChjKI_14oneiros_engine7domains5level8features3mcp9level_mcp8resource
FNDA:1,_RNCNvMNtNtNtNtCsk2dDpYChjKI_14oneiros_engine7domains5level8features3mcpNtB4_8LevelMcp8resource0Bc_
FNDA:1,_RNCNvNtNtNtNtNtCsk2dDpYChjKI_14oneiros_engine7domains5level8features3mcp9level_mcp8resource0Bd_
FNF:5
FNH:5
DA:6,1
DA:7,1
DA:8,1
DA:10,1
DA:11,1
DA:12,1
DA:13,1
DA:14,1
DA:15,1
DA:16,1
DA:17,1
DA:23,1
DA:24,1
DA:25,1
DA:26,1
DA:27,1
DA:28,1
DA:29,1
DA:30,1
DA:32,0
DA:33,0
DA:34,0
DA:36,0
DA:37,0
DA:38,0
DA:40,1
BRF:0
BRH:0
LF:28
LH:22
end_of_record
SF:/Users/esmevane/Code/projects/oneiros/crates/oneiros-engine/src/domains/level/features/projections.rs
FN:6,_RNvMNtNtNtNtCsk2dDpYChjKI_14oneiros_engine7domains5level8features11projectionsNtB2_16LevelProjections3all
FN:13,_RNCNvNtNtNtNtCsk2dDpYChjKI_14oneiros_engine7domains5level8features11projections11PROJECTIONS0Bb_
FN:15,_RNCNvNtNtNtNtCsk2dDpYChjKI_14oneiros_engine7domains5level8features11projections11PROJECTIONSs0_0Bb_
FN:14,_RNCNvNtNtNtNtCsk2dDpYChjKI_14oneiros_engine7domains5level8features11projections11PROJECTIONSs_0Bb_
FNDA:5825,_RNvMNtNtNtNtCsk2dDpYChjKI_14oneiros_engine7domains5level8features11projectionsNtB2_16LevelProjections3all
FNDA:574,_RNCNvNtNtNtNtCsk2dDpYChjKI_14oneiros_engine7domains5level8features11projections11PROJECTIONS0Bb_
FNDA:288,_RNCNvNtNtNtNtCsk2dDpYChjKI_14oneiros_engine7domains5level8features11projections11PROJECTIONSs0_0Bb_
FNDA:7005,_RNCNvNtNtNtNtCsk2dDpYChjKI_14oneiros_engine7domains5level8features11projections11PROJECTIONSs_0Bb_
FNF:4
FNH:4
DA:6,5825
DA:7,5825
DA:8,5825
DA:13,574
DA:14,7005
DA:15,288
BRF:0
BRH:0
LF:6
LH:6
end_of_record
SF:/Users/esmevane/Code/projects/oneiros/crates/oneiros-engine/src/domains/level/features/skills.rs
FN:6,_RNvMNtNtNtNtCsk2dDpYChjKI_14oneiros_engine7domains5level8features6skillsNtB2_11LevelSkills3all
FNDA:12,_RNvMNtNtNtNtCsk2dDpYChjKI_14oneiros_engine7domains5level8features6skillsNtB2_11LevelSkills3all
FNF:1
FNH:1
DA:6,12
DA:7,12
DA:8,12
DA:9,12
DA:10,12
DA:11,12
DA:13,12
BRF:0
BRH:0
LF:7
LH:7
end_of_record
SF:/Users/esmevane/Code/projects/oneiros/crates/oneiros-engine/src/domains/level/features/state.rs
FN:35,_RNvNtNtNtNtNtCsk2dDpYChjKI_14oneiros_engine7domains5level8features5state5testss_22sets_and_removes_level
FN:6,_RNvMNtNtNtNtCsk2dDpYChjKI_14oneiros_engine7domains5level8features5stateNtB2_10LevelState6reduce
FN:25,_RNvMNtNtNtNtCsk2dDpYChjKI_14oneiros_engine7domains5level8features5stateNtB2_10LevelState7reducer
FNDA:1,_RNvNtNtNtNtNtCsk2dDpYChjKI_14oneiros_engine7domains5level8features5state5testss_22sets_and_removes_level
FNDA:7007,_RNvMNtNtNtNtCsk2dDpYChjKI_14oneiros_engine7domains5level8features5stateNtB2_10LevelState6reduce
FNDA:580,_RNvMNtNtNtNtCsk2dDpYChjKI_14oneiros_engine7domains5level8features5stateNtB2_10LevelState7reducer
FNF:3
FNH:3
DA:6,7007
DA:7,7007
DA:8,1002
DA:9,997
DA:10,997
DA:11,997
DA:12,997
DA:14,5
DA:15,5
DA:16,5
DA:17,5
DA:20,6005
DA:22,7007
DA:23,7007
DA:25,580
DA:26,580
DA:27,580
DA:35,1
DA:36,1
DA:37,1
DA:38,1
DA:39,1
DA:40,1
DA:41,1
DA:42,1
DA:43,1
DA:44,1
DA:45,1
DA:47,1
DA:48,1
DA:50,1
DA:51,1
DA:52,1
DA:53,1
DA:54,1
DA:55,1
BRF:0
BRH:0
LF:36
LH:36
end_of_record
SF:/Users/esmevane/Code/projects/oneiros/crates/oneiros-engine/src/domains/level/model.rs
FN:18,_RNvXNtNtNtCsk2dDpYChjKI_14oneiros_engine7domains5level5modelNtB2_5LevelINtNtNtB8_6values12entity_index9IndexableNtB2_9LevelNameE2id
FNDA:997,_RNvXNtNtNtCsk2dDpYChjKI_14oneiros_engine7domains5level5modelNtB2_5LevelINtNtNtB8_6values12entity_index9IndexableNtB2_9LevelNameE2id
FNF:1
FNH:1
DA:18,997
DA:19,997
DA:20,997
BRF:0
BRH:0
LF:3
LH:3
end_of_record
SF:/Users/esmevane/Code/projects/oneiros/crates/oneiros-engine/src/domains/level/protocol/errors.rs
FN:36,_RNvXNtNtNtNtCsk2dDpYChjKI_14oneiros_engine7domains5level8protocol6errorsNtB2_10LevelErrorNtNtNtCs1iC2TOwIRjP_9axum_core8response13into_response12IntoResponse13into_response
FNDA:2,_RNvXNtNtNtNtCsk2dDpYChjKI_14oneiros_engine7domains5level8protocol6errorsNtB2_10LevelErrorNtNtNtCs1iC2TOwIRjP_9axum_core8response13into_response12IntoResponse13into_response
FNF:1
FNH:1
DA:36,2
DA:37,2
DA:38,2
DA:39,0
DA:41,0
DA:43,0
DA:44,0
DA:45,0
DA:47,2
DA:48,2
BRF:0
BRH:0
LF:10
LH:5
end_of_record
SF:/Users/esmevane/Code/projects/oneiros/crates/oneiros-engine/src/domains/level/protocol/events.rs
FN:34,_RNvNtNtNtNtNtCsk2dDpYChjKI_14oneiros_engine7domains5level8protocol6events5tests12sample_level
FN:43,_RNvNtNtNtNtNtCsk2dDpYChjKI_14oneiros_engine7domains5level8protocol6events5testss_27event_types_are_kebab_cased
FN:54,_RNvNtNtNtNtNtCsk2dDpYChjKI_14oneiros_engine7domains5level8protocol6events5testss_29level_set_wire_format_is_flat
FN:76,_RNvNtNtNtNtNtCsk2dDpYChjKI_14oneiros_engine7domains5level8protocol6events5testss_42level_removed_round_trips_through_v1_layer
FNDA:1,_RNvNtNtNtNtNtCsk2dDpYChjKI_14oneiros_engine7domains5level8protocol6events5tests12sample_level
FNDA:1,_RNvNtNtNtNtNtCsk2dDpYChjKI_14oneiros_engine7domains5level8protocol6events5testss_27event_types_are_kebab_cased
FNDA:1,_RNvNtNtNtNtNtCsk2dDpYChjKI_14oneiros_engine7domains5level8protocol6events5testss_29level_set_wire_format_is_flat
FNDA:1,_RNvNtNtNtNtNtCsk2dDpYChjKI_14oneiros_engine7domains5level8protocol6events5testss_42level_removed_round_trips_through_v1_layer
FNF:4
FNH:4
DA:34,1
DA:35,1
DA:36,1
DA:37,1
DA:38,1
DA:39,1
DA:40,1
DA:43,1
DA:44,1
DA:45,1
DA:46,1
DA:47,1
DA:48,2
DA:49,2
DA:51,1
DA:54,1
DA:57,1
DA:58,1
DA:59,1
DA:61,1
DA:62,1
DA:63,1
DA:64,1
DA:67,1
DA:68,1
DA:69,1
DA:70,1
DA:73,1
DA:76,1
DA:77,1
DA:78,1
DA:79,1
DA:81,1
DA:82,1
DA:84,1
DA:85,1
DA:86,1
DA:87,1
DA:89,0
DA:91,1
BRF:0
BRH:0
LF:40
LH:39
end_of_record
SF:/Users/esmevane/Code/projects/oneiros/crates/oneiros-engine/src/domains/level/protocol/requests.rs
FN:26,_RNvXNtNtNtNtCsk2dDpYChjKI_14oneiros_engine7domains5level8protocol8requestsNtB2_8SetLevelNtNtBa_6client13ClientRequest15execute_request
FN:64,_RNvXs0_NtNtNtNtCsk2dDpYChjKI_14oneiros_engine7domains5level8protocol8requestsNtB5_11RemoveLevelNtNtBd_6client13ClientRequest15execute_request
FN:86,_RNvXs1_NtNtNtNtCsk2dDpYChjKI_14oneiros_engine7domains5level8protocol8requestsNtB5_10ListLevelsNtNtBd_6client13ClientRequest15execute_request
FN:45,_RNvXs_NtNtNtNtCsk2dDpYChjKI_14oneiros_engine7domains5level8protocol8requestsNtB4_8GetLevelNtNtBc_6client13ClientRequest15execute_request
FN:26,_RNCNvXNtNtNtNtCsk2dDpYChjKI_14oneiros_engine7domains5level8protocol8requestsNtB4_8SetLevelNtNtBc_6client13ClientRequest15execute_request0Bc_
FN:64,_RNCNvXs0_NtNtNtNtCsk2dDpYChjKI_14oneiros_engine7domains5level8protocol8requestsNtB7_11RemoveLevelNtNtBf_6client13ClientRequest15execute_request0Bf_
FN:86,_RNCNvXs1_NtNtNtNtCsk2dDpYChjKI_14oneiros_engine7domains5level8protocol8requestsNtB7_10ListLevelsNtNtBf_6client13ClientRequest15execute_request0Bf_
FN:45,_RNCNvXs_NtNtNtNtCsk2dDpYChjKI_14oneiros_engine7domains5level8protocol8requestsNtB6_8GetLevelNtNtBe_6client13ClientRequest15execute_request0Be_
FN:111,_RNvNtNtNtNtNtCsk2dDpYChjKI_14oneiros_engine7domains5level8protocol8requests5testss_29request_types_are_kebab_cased
FNDA:43,_RNvXNtNtNtNtCsk2dDpYChjKI_14oneiros_engine7domains5level8protocol8requestsNtB2_8SetLevelNtNtBa_6client13ClientRequest15execute_request
FNDA:4,_RNvXs0_NtNtNtNtCsk2dDpYChjKI_14oneiros_engine7domains5level8protocol8requestsNtB5_11RemoveLevelNtNtBd_6client13ClientRequest15execute_request
FNDA:12,_RNvXs1_NtNtNtNtCsk2dDpYChjKI_14oneiros_engine7domains5level8protocol8requestsNtB5_10ListLevelsNtNtBd_6client13ClientRequest15execute_request
FNDA:8,_RNvXs_NtNtNtNtCsk2dDpYChjKI_14oneiros_engine7domains5level8protocol8requestsNtB4_8GetLevelNtNtBc_6client13ClientRequest15execute_request
FNDA:43,_RNCNvXNtNtNtNtCsk2dDpYChjKI_14oneiros_engine7domains5level8protocol8requestsNtB4_8SetLevelNtNtBc_6client13ClientRequest15execute_request0Bc_
FNDA:4,_RNCNvXs0_NtNtNtNtCsk2dDpYChjKI_14oneiros_engine7domains5level8protocol8requestsNtB7_11RemoveLevelNtNtBf_6client13ClientRequest15execute_request0Bf_
FNDA:12,_RNCNvXs1_NtNtNtNtCsk2dDpYChjKI_14oneiros_engine7domains5level8protocol8requestsNtB7_10ListLevelsNtNtBf_6client13ClientRequest15execute_request0Bf_
FNDA:8,_RNCNvXs_NtNtNtNtCsk2dDpYChjKI_14oneiros_engine7domains5level8protocol8requestsNtB6_8GetLevelNtNtBe_6client13ClientRequest15execute_request0Be_
FNDA:1,_RNvNtNtNtNtNtCsk2dDpYChjKI_14oneiros_engine7domains5level8protocol8requests5testss_29request_types_are_kebab_cased
FNF:9
FNH:9
DA:26,43
DA:27,43
DA:28,43
DA:29,43
DA:45,8
DA:46,8
DA:47,8
DA:48,8
DA:64,4
DA:65,4
DA:66,4
DA:67,4
DA:86,12
DA:87,12
DA:88,12
DA:92,12
DA:93,12
DA:111,1
DA:112,1
DA:113,1
DA:114,1
DA:115,1
DA:116,1
DA:117,1
DA:119,4
DA:120,4
DA:122,1
BRF:0
BRH:0
LF:31
LH:31
end_of_record
SF:/Users/esmevane/Code/projects/oneiros/crates/oneiros-engine/src/domains/level/repo.rs
FN:27,_RNCNCNvMNtNtNtCsk2dDpYChjKI_14oneiros_engine7domains5level4repoNtB6_9LevelRepo3get00Bc_
FN:53,_RNCNCNvMNtNtNtCsk2dDpYChjKI_14oneiros_engine7domains5level4repoNtB6_9LevelRepo4list00Bc_
FN:70,_RNCNCNvMNtNtNtCsk2dDpYChjKI_14oneiros_engine7domains5level4repoNtB6_9LevelRepo4list0s0_0Bc_
FN:61,_RNCNCNvMNtNtNtCsk2dDpYChjKI_14oneiros_engine7domains5level4repoNtB6_9LevelRepo4list0s_0Bc_
FN:19,_RNCNCNvMNtNtNtCsk2dDpYChjKI_14oneiros_engine7domains5level4repoNtB6_9LevelRepo5fetch00Bc_
FN:22,_RNCNvMNtNtNtCsk2dDpYChjKI_14oneiros_engine7domains5level4repoNtB4_9LevelRepo3get0Ba_
FN:48,_RNCNvMNtNtNtCsk2dDpYChjKI_14oneiros_engine7domains5level4repoNtB4_9LevelRepo4list0Ba_
FN:18,_RNCNvMNtNtNtCsk2dDpYChjKI_14oneiros_engine7domains5level4repoNtB4_9LevelRepo5fetch0Ba_
FN:22,_RNvMNtNtNtCsk2dDpYChjKI_14oneiros_engine7domains5level4repoNtB2_9LevelRepo3get
FN:10,_RNvMNtNtNtCsk2dDpYChjKI_14oneiros_engine7domains5level4repoNtB2_9LevelRepo3new
FN:48,_RNvMNtNtNtCsk2dDpYChjKI_14oneiros_engine7domains5level4repoNtB2_9LevelRepo4list
FN:18,_RNvMNtNtNtCsk2dDpYChjKI_14oneiros_engine7domains5level4repoNtB2_9LevelRepo5fetch
FNDA:632,_RNCNCNvMNtNtNtCsk2dDpYChjKI_14oneiros_engine7domains5level4repoNtB6_9LevelRepo3get00Bc_
FNDA:13,_RNCNCNvMNtNtNtCsk2dDpYChjKI_14oneiros_engine7domains5level4repoNtB6_9LevelRepo4list00Bc_
FNDA:30,_RNCNCNvMNtNtNtCsk2dDpYChjKI_14oneiros_engine7domains5level4repoNtB6_9LevelRepo4list0s0_0Bc_
FNDA:30,_RNCNCNvMNtNtNtCsk2dDpYChjKI_14oneiros_engine7domains5level4repoNtB6_9LevelRepo4list0s_0Bc_
FNDA:1278,_RNCNCNvMNtNtNtCsk2dDpYChjKI_14oneiros_engine7domains5level4repoNtB6_9LevelRepo5fetch00Bc_
FNDA:1285,_RNCNvMNtNtNtCsk2dDpYChjKI_14oneiros_engine7domains5level4repoNtB4_9LevelRepo3get0Ba_
FNDA:13,_RNCNvMNtNtNtCsk2dDpYChjKI_14oneiros_engine7domains5level4repoNtB4_9LevelRepo4list0Ba_
FNDA:631,_RNCNvMNtNtNtCsk2dDpYChjKI_14oneiros_engine7domains5level4repoNtB4_9LevelRepo5fetch0Ba_
FNDA:1285,_RNvMNtNtNtCsk2dDpYChjKI_14oneiros_engine7domains5level4repoNtB2_9LevelRepo3get
FNDA:651,_RNvMNtNtNtCsk2dDpYChjKI_14oneiros_engine7domains5level4repoNtB2_9LevelRepo3new
FNDA:13,_RNvMNtNtNtCsk2dDpYChjKI_14oneiros_engine7domains5level4repoNtB2_9LevelRepo4list
FNDA:631,_RNvMNtNtNtCsk2dDpYChjKI_14oneiros_engine7domains5level4repoNtB2_9LevelRepo5fetch
FNF:12
FNH:12
DA:10,651
DA:11,651
DA:12,651
DA:18,631
DA:19,1278
DA:20,631
DA:22,1285
DA:23,1285
DA:24,1285
DA:25,1285
DA:27,1285
DA:29,632
DA:30,632
DA:31,632
DA:33,632
DA:35,653
DA:36,632
DA:37,632
DA:38,632
DA:39,632
DA:40,632
DA:41,632
DA:42,632
DA:43,653
DA:44,0
DA:46,1285
DA:48,13
DA:49,13
DA:51,13
DA:52,13
DA:53,13
DA:56,13
DA:57,13
DA:58,13
DA:60,13
DA:61,30
DA:63,30
DA:64,30
DA:65,30
DA:67,30
DA:68,13
DA:69,13
DA:70,30
DA:71,30
DA:72,30
DA:73,30
DA:74,30
DA:75,30
DA:76,30
DA:77,13
DA:79,13
DA:80,13
BRF:0
BRH:0
LF:61
LH:59
end_of_record
SF:/Users/esmevane/Code/projects/oneiros/crates/oneiros-engine/src/domains/level/service.rs
FN:106,_RNCNCNCNvMNtNtNtCsk2dDpYChjKI_14oneiros_engine7domains5level7serviceNtB8_12LevelService6remove000Be_
FN:106,_RNCNCNvMNtNtNtCsk2dDpYChjKI_14oneiros_engine7domains5level7serviceNtB6_12LevelService6remove00Bc_
FN:48,_RNCNvMNtNtNtCsk2dDpYChjKI_14oneiros_engine7domains5level7serviceNtB4_12LevelService3get0Ba_
FN:10,_RNCNvMNtNtNtCsk2dDpYChjKI_14oneiros_engine7domains5level7serviceNtB4_12LevelService3set0Ba_
FN:66,_RNCNvMNtNtNtCsk2dDpYChjKI_14oneiros_engine7domains5level7serviceNtB4_12LevelService4list0Ba_
FN:86,_RNCNvMNtNtNtCsk2dDpYChjKI_14oneiros_engine7domains5level7serviceNtB4_12LevelService6remove0Ba_
FN:45,_RNvMNtNtNtCsk2dDpYChjKI_14oneiros_engine7domains5level7serviceNtB2_12LevelService3get
FN:6,_RNvMNtNtNtCsk2dDpYChjKI_14oneiros_engine7domains5level7serviceNtB2_12LevelService3set
FN:63,_RNvMNtNtNtCsk2dDpYChjKI_14oneiros_engine7domains5level7serviceNtB2_12LevelService4list
FN:82,_RNvMNtNtNtCsk2dDpYChjKI_14oneiros_engine7domains5level7serviceNtB2_12LevelService6remove
FNDA:7,_RNCNCNCNvMNtNtNtCsk2dDpYChjKI_14oneiros_engine7domains5level7serviceNtB8_12LevelService6remove000Be_
FNDA:7,_RNCNCNvMNtNtNtCsk2dDpYChjKI_14oneiros_engine7domains5level7serviceNtB6_12LevelService6remove00Bc_
FNDA:8,_RNCNvMNtNtNtCsk2dDpYChjKI_14oneiros_engine7domains5level7serviceNtB4_12LevelService3get0Ba_
FNDA:623,_RNCNvMNtNtNtCsk2dDpYChjKI_14oneiros_engine7domains5level7serviceNtB4_12LevelService3set0Ba_
FNDA:13,_RNCNvMNtNtNtCsk2dDpYChjKI_14oneiros_engine7domains5level7serviceNtB4_12LevelService4list0Ba_
FNDA:4,_RNCNvMNtNtNtCsk2dDpYChjKI_14oneiros_engine7domains5level7serviceNtB4_12LevelService6remove0Ba_
FNDA:8,_RNvMNtNtNtCsk2dDpYChjKI_14oneiros_engine7domains5level7serviceNtB2_12LevelService3get
FNDA:623,_RNvMNtNtNtCsk2dDpYChjKI_14oneiros_engine7domains5level7serviceNtB2_12LevelService3set
FNDA:13,_RNvMNtNtNtCsk2dDpYChjKI_14oneiros_engine7domains5level7serviceNtB2_12LevelService4list
FNDA:4,_RNvMNtNtNtCsk2dDpYChjKI_14oneiros_engine7domains5level7serviceNtB2_12LevelService6remove
FNF:10
FNH:10
DA:6,623
DA:7,623
DA:8,623
DA:9,623
DA:10,623
DA:11,623
DA:12,623
DA:13,623
DA:14,623
DA:15,623
DA:16,623
DA:17,623
DA:19,623
DA:20,623
DA:21,623
DA:22,623
DA:23,623
DA:25,623
DA:26,623
DA:27,623
DA:28,623
DA:29,623
DA:32,623
DA:33,623
DA:34,623
DA:35,623
DA:37,623
DA:38,623
DA:39,623
DA:40,623
DA:41,623
DA:42,623
DA:43,623
DA:45,8
DA:46,8
DA:47,8
DA:48,8
DA:49,8
DA:50,8
DA:51,8
DA:52,8
DA:53,8
DA:54,8
DA:55,6
DA:56,6
DA:57,6
DA:58,6
DA:59,6
DA:60,6
DA:61,8
DA:63,13
DA:64,13
DA:65,13
DA:66,13
DA:67,13
DA:68,13
DA:69,13
DA:70,3
DA:72,10
DA:73,10
DA:74,10
DA:75,10
DA:76,10
DA:77,10
DA:78,10
DA:80,13
DA:82,4
DA:83,4
DA:84,4
DA:85,4
DA:86,4
DA:87,4
DA:88,4
DA:90,4
DA:91,4
DA:92,4
DA:93,4
DA:94,4
DA:96,4
DA:97,4
DA:98,4
DA:99,4
DA:100,4
DA:103,4
DA:104,4
DA:105,4
DA:106,14
DA:107,4
DA:109,4
DA:110,4
DA:111,4
DA:112,4
BRF:0
BRH:0
LF:98
LH:98
end_of_record
SF:/Users/esmevane/Code/projects/oneiros/crates/oneiros-engine/src/domains/level/store.rs
FN:46,_RNCNvMNtNtNtCsk2dDpYChjKI_14oneiros_engine7domains5level5storeNtB4_10LevelStore4list0Ba_
FN:55,_RNCNvMNtNtNtCsk2dDpYChjKI_14oneiros_engine7domains5level5storeNtB4_10LevelStore4lists_0Ba_
FN:81,_RNvMNtNtNtCsk2dDpYChjKI_14oneiros_engine7domains5level5storeNtB2_10LevelStore11write_level
FN:10,_RNvMNtNtNtCsk2dDpYChjKI_14oneiros_engine7domains5level5storeNtB2_10LevelStore3new
FN:67,_RNvMNtNtNtCsk2dDpYChjKI_14oneiros_engine7domains5level5storeNtB2_10LevelStore3set
FN:40,_RNvMNtNtNtCsk2dDpYChjKI_14oneiros_engine7domains5level5storeNtB2_10LevelStore4list
FN:24,_RNvMNtNtNtCsk2dDpYChjKI_14oneiros_engine7domains5level5storeNtB2_10LevelStore5reset
FN:14,_RNvMNtNtNtCsk2dDpYChjKI_14oneiros_engine7domains5level5storeNtB2_10LevelStore6handle
FN:72,_RNvMNtNtNtCsk2dDpYChjKI_14oneiros_engine7domains5level5storeNtB2_10LevelStore6remove
FN:29,_RNvMNtNtNtCsk2dDpYChjKI_14oneiros_engine7domains5level5storeNtB2_10LevelStore7migrate
FNDA:570,_RNCNvMNtNtNtCsk2dDpYChjKI_14oneiros_engine7domains5level5storeNtB4_10LevelStore4list0Ba_
FNDA:570,_RNCNvMNtNtNtCsk2dDpYChjKI_14oneiros_engine7domains5level5storeNtB4_10LevelStore4lists_0Ba_
FNDA:996,_RNvMNtNtNtCsk2dDpYChjKI_14oneiros_engine7domains5level5storeNtB2_10LevelStore11write_level
FNDA:7981,_RNvMNtNtNtCsk2dDpYChjKI_14oneiros_engine7domains5level5storeNtB2_10LevelStore3new
FNDA:996,_RNvMNtNtNtCsk2dDpYChjKI_14oneiros_engine7domains5level5storeNtB2_10LevelStore3set
FNDA:114,_RNvMNtNtNtCsk2dDpYChjKI_14oneiros_engine7domains5level5storeNtB2_10LevelStore4list
FNDA:288,_RNvMNtNtNtCsk2dDpYChjKI_14oneiros_engine7domains5level5storeNtB2_10LevelStore5reset
FNDA:7005,_RNvMNtNtNtCsk2dDpYChjKI_14oneiros_engine7domains5level5storeNtB2_10LevelStore6handle
FNDA:4,_RNvMNtNtNtCsk2dDpYChjKI_14oneiros_engine7domains5level5storeNtB2_10LevelStore6remove
FNDA:574,_RNvMNtNtNtCsk2dDpYChjKI_14oneiros_engine7domains5level5storeNtB2_10LevelStore7migrate
FNF:10
FNH:10
DA:10,7981
DA:11,7981
DA:12,7981
DA:14,7005
DA:15,7005
DA:16,1000
DA:17,996
DA:18,4
DA:20,6005
DA:21,7005
DA:22,7005
DA:24,288
DA:25,288
DA:26,288
DA:27,288
DA:29,574
DA:30,574
DA:31,574
DA:32,574
DA:33,574
DA:34,574
DA:35,574
DA:36,0
DA:37,574
DA:38,574
DA:40,114
DA:41,114
DA:42,114
DA:43,114
DA:45,114
DA:46,570
DA:48,570
DA:49,570
DA:50,570
DA:52,570
DA:53,114
DA:54,114
DA:55,570
DA:56,570
DA:57,570
DA:58,570
DA:59,570
DA:60,570
DA:61,570
DA:62,114
DA:64,114
DA:65,114
DA:67,996
DA:68,996
DA:69,996
DA:70,996
DA:72,4
DA:73,4
DA:74,4
DA:75,4
DA:76,4
DA:77,0
DA:78,4
DA:79,4
DA:81,996
DA:82,996
DA:83,996
DA:84,996
DA:85,996
DA:86,996
DA:87,996
DA:89,0
DA:90,996
DA:91,996
BRF:0
BRH:0
LF:72
LH:68
end_of_record
SF:/Users/esmevane/Code/projects/oneiros/crates/oneiros-engine/src/domains/level/view.rs
FN:39,_RNvMNtNtNtCsk2dDpYChjKI_14oneiros_engine7domains5level4viewNtB2_9LevelView16vocabulary_table
FN:12,_RNvMNtNtNtCsk2dDpYChjKI_14oneiros_engine7domains5level4viewNtB2_9LevelView3mcp
FN:8,_RNvMNtNtNtCsk2dDpYChjKI_14oneiros_engine7domains5level4viewNtB2_9LevelView3new
FN:53,_RNvMNtNtNtCsk2dDpYChjKI_14oneiros_engine7domains5level4viewNtB2_9LevelView6render
FN:18,_RNCNvMNtNtNtCsk2dDpYChjKI_14oneiros_engine7domains5level4viewNtB4_9LevelView3mcp0Ba_
FNDA:1,_RNvMNtNtNtCsk2dDpYChjKI_14oneiros_engine7domains5level4viewNtB2_9LevelView16vocabulary_table
FNDA:1,_RNvMNtNtNtCsk2dDpYChjKI_14oneiros_engine7domains5level4viewNtB2_9LevelView3mcp
FNDA:55,_RNvMNtNtNtCsk2dDpYChjKI_14oneiros_engine7domains5level4viewNtB2_9LevelView3new
FNDA:54,_RNvMNtNtNtCsk2dDpYChjKI_14oneiros_engine7domains5level4viewNtB2_9LevelView6render
FNDA:5,_RNCNvMNtNtNtCsk2dDpYChjKI_14oneiros_engine7domains5level4viewNtB4_9LevelView3mcp0Ba_
FNF:5
FNH:5
DA:8,55
DA:9,55
DA:10,55
DA:12,1
DA:13,1
DA:14,1
DA:15,1
DA:16,1
DA:17,1
DA:18,5
DA:19,1
DA:20,1
DA:22,0
DA:23,0
DA:24,0
DA:25,0
DA:26,0
DA:27,0
DA:29,0
DA:30,0
DA:31,0
DA:33,0
DA:34,0
DA:37,1
DA:39,1
DA:40,1
DA:41,1
DA:42,0
DA:43,0
DA:44,1
DA:45,1
DA:46,5
DA:47,5
DA:48,5
DA:50,1
DA:51,1
DA:53,54
DA:54,54
DA:55,41
DA:56,41
DA:57,41
DA:58,41
DA:59,41
DA:61,41
DA:62,41
DA:63,41
DA:64,41
DA:66,41
DA:68,3
DA:69,3
DA:70,3
DA:71,3
DA:72,3
DA:73,3
DA:74,3
DA:75,3
DA:76,3
DA:79,3
DA:80,3
DA:81,3
DA:82,3
DA:84,8
DA:85,8
DA:86,8
DA:87,3
DA:89,3
DA:91,3
DA:92,3
DA:93,3
DA:94,3
DA:97,3
DA:98,3
DA:99,3
DA:100,3
DA:102,4
DA:103,4
DA:104,4
DA:105,4
DA:106,4
DA:108,4
DA:109,4
DA:110,4
DA:111,4
DA:113,4
DA:116,54
BRF:0
BRH:0
LF:86
LH:73
end_of_record
SF:/Users/esmevane/Code/projects/oneiros/crates/oneiros-engine/src/domains/mcp/features/cli.rs
FN:12,_RNvMNtNtNtNtCsk2dDpYChjKI_14oneiros_engine7domains3mcp8features3cliNtB2_11McpCommands7execute
FNDA:0,_RNvMNtNtNtNtCsk2dDpYChjKI_14oneiros_engine7domains3mcp8features3cliNtB2_11McpCommands7execute
FNF:1
FNH:0
DA:12,0
DA:13,0
DA:14,0
DA:15,0
DA:16,0
DA:18,0
DA:19,0
DA:20,0
DA:21,0
DA:22,0
DA:24,0
DA:26,0
DA:27,0
DA:28,0
DA:29,0
DA:30,0
DA:31,0
DA:32,0
DA:34,0
DA:35,0
DA:37,0
DA:40,0
DA:43,0
DA:48,0
DA:49,0
BRF:0
BRH:0
LF:25
LH:0
end_of_record
SF:/Users/esmevane/Code/projects/oneiros/crates/oneiros-engine/src/domains/mcp/features/skills.rs
FN:6,_RNvMNtNtNtNtCsk2dDpYChjKI_14oneiros_engine7domains3mcp8features6skillsNtB2_15McpConfigSkills3all
FNDA:12,_RNvMNtNtNtNtCsk2dDpYChjKI_14oneiros_engine7domains3mcp8features6skillsNtB2_15McpConfigSkills3all
FNF:1
FNH:1
DA:6,12
DA:7,12
DA:8,12
BRF:0
BRH:0
LF:3
LH:3
end_of_record
SF:/Users/esmevane/Code/projects/oneiros/crates/oneiros-engine/src/domains/mcp/protocol/errors.rs
FN:25,_RNvXNtNtNtNtCsk2dDpYChjKI_14oneiros_engine7domains3mcp8protocol6errorsNtB2_14McpConfigErrorNtNtNtCs1iC2TOwIRjP_9axum_core8response13into_response12IntoResponse13into_response
FNDA:0,_RNvXNtNtNtNtCsk2dDpYChjKI_14oneiros_engine7domains3mcp8protocol6errorsNtB2_14McpConfigErrorNtNtNtCs1iC2TOwIRjP_9axum_core8response13into_response12IntoResponse13into_response
FNF:1
FNH:0
DA:25,0
DA:26,0
DA:27,0
DA:29,0
DA:33,0
DA:34,0
BRF:0
BRH:0
LF:6
LH:0
end_of_record
SF:/Users/esmevane/Code/projects/oneiros/crates/oneiros-engine/src/domains/mcp/service.rs
FN:13,_RNCNvMNtNtNtCsk2dDpYChjKI_14oneiros_engine7domains3mcp7serviceNtB4_16McpConfigService4init0Ba_
FN:86,_RNvMNtNtNtCsk2dDpYChjKI_14oneiros_engine7domains3mcp7serviceNtB2_16McpConfigService11read_config
FN:79,_RNvMNtNtNtCsk2dDpYChjKI_14oneiros_engine7domains3mcp7serviceNtB2_16McpConfigService13is_configured
FN:72,_RNvMNtNtNtCsk2dDpYChjKI_14oneiros_engine7domains3mcp7serviceNtB2_16McpConfigService13mcp_json_path
FN:8,_RNvMNtNtNtCsk2dDpYChjKI_14oneiros_engine7domains3mcp7serviceNtB2_16McpConfigService4init
FN:57,_RNvMNtNtNtCsk2dDpYChjKI_14oneiros_engine7domains3mcp7serviceNtB2_16McpConfigService5write
FNDA:1,_RNCNvMNtNtNtCsk2dDpYChjKI_14oneiros_engine7domains3mcp7serviceNtB4_16McpConfigService4init0Ba_
FNDA:1,_RNvMNtNtNtCsk2dDpYChjKI_14oneiros_engine7domains3mcp7serviceNtB2_16McpConfigService11read_config
FNDA:5,_RNvMNtNtNtCsk2dDpYChjKI_14oneiros_engine7domains3mcp7serviceNtB2_16McpConfigService13is_configured
FNDA:8,_RNvMNtNtNtCsk2dDpYChjKI_14oneiros_engine7domains3mcp7serviceNtB2_16McpConfigService13mcp_json_path
FNDA:1,_RNvMNtNtNtCsk2dDpYChjKI_14oneiros_engine7domains3mcp7serviceNtB2_16McpConfigService4init
FNDA:0,_RNvMNtNtNtCsk2dDpYChjKI_14oneiros_engine7domains3mcp7serviceNtB2_16McpConfigService5write
FNF:6
FNH:5
DA:8,1
DA:9,1
DA:10,1
DA:11,1
DA:12,1
DA:13,1
DA:14,1
DA:16,1
DA:17,1
DA:19,1
DA:20,1
DA:21,1
DA:22,1
DA:23,1
DA:24,1
DA:25,1
DA:31,1
DA:33,1
DA:36,0
DA:37,0
DA:38,0
DA:39,0
DA:40,0
DA:41,0
DA:42,1
DA:44,1
DA:45,1
DA:47,1
DA:48,1
DA:49,1
DA:50,1
DA:51,1
DA:52,1
DA:53,1
DA:57,0
DA:58,0
DA:59,0
DA:60,0
DA:61,0
DA:62,0
DA:63,0
DA:64,0
DA:65,0
DA:66,0
DA:67,0
DA:68,0
DA:69,0
DA:72,8
DA:73,8
DA:74,8
DA:75,8
DA:76,8
DA:79,5
DA:80,5
DA:81,5
DA:86,1
DA:87,1
DA:88,1
DA:89,1
DA:90,1
DA:91,1
DA:92,1
DA:93,1
DA:94,1
DA:95,1
DA:96,1
DA:97,1
DA:99,1
DA:100,1
BRF:0
BRH:0
LF:70
LH:51
end_of_record
SF:/Users/esmevane/Code/projects/oneiros/crates/oneiros-engine/src/domains/mcp/view.rs
FN:13,_RNvMNtNtNtCsk2dDpYChjKI_14oneiros_engine7domains3mcp4viewNtB2_7McpView3new
FN:17,_RNvMNtNtNtCsk2dDpYChjKI_14oneiros_engine7domains3mcp4viewNtB2_7McpView6render
FNDA:0,_RNvMNtNtNtCsk2dDpYChjKI_14oneiros_engine7domains3mcp4viewNtB2_7McpView3new
FNDA:0,_RNvMNtNtNtCsk2dDpYChjKI_14oneiros_engine7domains3mcp4viewNtB2_7McpView6render
FNF:2
FNH:0
DA:13,0
DA:14,0
DA:15,0
DA:17,0
DA:18,0
DA:19,0
DA:20,0
DA:21,0
DA:23,0
DA:24,0
DA:26,0
DA:27,0
DA:28,0
DA:29,0
DA:30,0
DA:31,0
DA:32,0
DA:33,0
DA:34,0
DA:37,0
DA:38,0
DA:39,0
DA:41,0
DA:43,0
DA:44,0
DA:45,0
DA:46,0
DA:47,0
DA:48,0
DA:49,0
DA:50,0
DA:51,0
DA:55,0
BRF:0
BRH:0
LF:33
LH:0
end_of_record
SF:/Users/esmevane/Code/projects/oneiros/crates/oneiros-engine/src/domains/memory/docs.rs
FN:17,_RNvMNtNtNtCsk2dDpYChjKI_14oneiros_engine7domains6memory4docsNtB2_10MemoryDocs13resource_docs
FN:10,_RNvMNtNtNtCsk2dDpYChjKI_14oneiros_engine7domains6memory4docsNtB2_10MemoryDocs3tag
FNDA:912,_RNvMNtNtNtCsk2dDpYChjKI_14oneiros_engine7domains6memory4docsNtB2_10MemoryDocs13resource_docs
FNDA:1216,_RNvMNtNtNtCsk2dDpYChjKI_14oneiros_engine7domains6memory4docsNtB2_10MemoryDocs3tag
FNF:2
FNH:2
DA:10,1216
DA:11,1216
DA:12,1216
DA:13,1216
DA:14,1216
DA:15,1216
DA:17,912
DA:18,912
DA:19,912
DA:20,304
DA:21,304
DA:22,304
DA:23,304
DA:24,304
DA:25,304
DA:26,304
DA:27,304
DA:28,304
DA:29,304
DA:30,304
DA:31,304
DA:32,304
DA:33,304
DA:34,304
DA:35,304
DA:36,304
DA:37,304
DA:39,912
BRF:0
BRH:0
LF:28
LH:28
end_of_record
SF:/Users/esmevane/Code/projects/oneiros/crates/oneiros-engine/src/domains/memory/features/cli.rs
FN:16,_RNCNvMNtNtNtNtCsk2dDpYChjKI_14oneiros_engine7domains6memory8features3cliNtB4_14MemoryCommands7execute0Bc_
FN:13,_RNvMNtNtNtNtCsk2dDpYChjKI_14oneiros_engine7domains6memory8features3cliNtB2_14MemoryCommands7execute
FNDA:39,_RNCNvMNtNtNtNtCsk2dDpYChjKI_14oneiros_engine7domains6memory8features3cliNtB4_14MemoryCommands7execute0Bc_
FNDA:39,_RNvMNtNtNtNtCsk2dDpYChjKI_14oneiros_engine7domains6memory8features3cliNtB2_14MemoryCommands7execute
FNF:2
FNH:2
DA:13,39
DA:14,39
DA:15,39
DA:16,39
DA:17,39
DA:19,39
DA:20,31
DA:21,31
DA:22,30
DA:24,2
DA:25,2
DA:26,2
DA:28,6
DA:29,6
DA:30,6
DA:34,38
DA:35,38
DA:36,39
BRF:0
BRH:0
LF:19
LH:19
end_of_record
SF:/Users/esmevane/Code/projects/oneiros/crates/oneiros-engine/src/domains/memory/features/http.rs
FN:19,_RNCNvMNtNtNtNtCsk2dDpYChjKI_14oneiros_engine7domains6memory8features4httpNtB4_12MemoryRouter6routes0Bc_
FN:30,_RNCNvMNtNtNtNtCsk2dDpYChjKI_14oneiros_engine7domains6memory8features4httpNtB4_12MemoryRouter6routess0_0Bc_
FN:22,_RNCNvMNtNtNtNtCsk2dDpYChjKI_14oneiros_engine7domains6memory8features4httpNtB4_12MemoryRouter6routess_0Bc_
FN:42,_RNCNvNtNtNtNtCsk2dDpYChjKI_14oneiros_engine7domains6memory8features4http3add0Bb_
FN:50,_RNCNvNtNtNtNtCsk2dDpYChjKI_14oneiros_engine7domains6memory8features4http4list0Bb_
FN:57,_RNCNvNtNtNtNtCsk2dDpYChjKI_14oneiros_engine7domains6memory8features4http4show0Bb_
FN:13,_RNvMNtNtNtNtCsk2dDpYChjKI_14oneiros_engine7domains6memory8features4httpNtB2_12MemoryRouter6routes
FN:38,_RNvNtNtNtNtCsk2dDpYChjKI_14oneiros_engine7domains6memory8features4http3add
FN:47,_RNvNtNtNtNtCsk2dDpYChjKI_14oneiros_engine7domains6memory8features4http4list
FN:54,_RNvNtNtNtNtCsk2dDpYChjKI_14oneiros_engine7domains6memory8features4http4show
FNDA:304,_RNCNvMNtNtNtNtCsk2dDpYChjKI_14oneiros_engine7domains6memory8features4httpNtB4_12MemoryRouter6routes0Bc_
FNDA:304,_RNCNvMNtNtNtNtCsk2dDpYChjKI_14oneiros_engine7domains6memory8features4httpNtB4_12MemoryRouter6routess0_0Bc_
FNDA:304,_RNCNvMNtNtNtNtCsk2dDpYChjKI_14oneiros_engine7domains6memory8features4httpNtB4_12MemoryRouter6routess_0Bc_
FNDA:76,_RNCNvNtNtNtNtCsk2dDpYChjKI_14oneiros_engine7domains6memory8features4http3add0Bb_
FNDA:9,_RNCNvNtNtNtNtCsk2dDpYChjKI_14oneiros_engine7domains6memory8features4http4list0Bb_
FNDA:3,_RNCNvNtNtNtNtCsk2dDpYChjKI_14oneiros_engine7domains6memory8features4http4show0Bb_
FNDA:304,_RNvMNtNtNtNtCsk2dDpYChjKI_14oneiros_engine7domains6memory8features4httpNtB2_12MemoryRouter6routes
FNDA:76,_RNvNtNtNtNtCsk2dDpYChjKI_14oneiros_engine7domains6memory8features4http3add
FNDA:9,_RNvNtNtNtNtCsk2dDpYChjKI_14oneiros_engine7domains6memory8features4http4list
FNDA:3,_RNvNtNtNtNtCsk2dDpYChjKI_14oneiros_engine7domains6memory8features4http4show
FNF:10
FNH:10
DA:13,304
DA:14,304
DA:15,304
DA:16,304
DA:17,304
DA:18,304
DA:19,304
DA:20,304
DA:21,304
DA:22,304
DA:23,304
DA:24,304
DA:25,304
DA:26,304
DA:28,304
DA:29,304
DA:30,304
DA:31,304
DA:32,304
DA:35,304
DA:38,76
DA:39,76
DA:40,76
DA:41,76
DA:42,76
DA:43,76
DA:44,74
DA:45,76
DA:47,9
DA:48,9
DA:49,9
DA:50,9
DA:51,9
DA:52,9
DA:54,3
DA:55,3
DA:56,3
DA:57,3
DA:59,3
DA:61,3
BRF:0
BRH:0
LF:46
LH:46
end_of_record
SF:/Users/esmevane/Code/projects/oneiros/crates/oneiros-engine/src/domains/memory/features/mcp.rs
FN:55,_RNCNCNvNtNtNtNtNtCsk2dDpYChjKI_14oneiros_engine7domains6memory8features3mcp10memory_mcp8dispatch00Bf_
FN:51,_RNCNvNtNtNtNtNtCsk2dDpYChjKI_14oneiros_engine7domains6memory8features3mcp10memory_mcp8dispatch0Bd_
FN:76,_RNCNvNtNtNtNtNtCsk2dDpYChjKI_14oneiros_engine7domains6memory8features3mcp10memory_mcp8resource0Bd_
FN:16,_RNCNvMNtNtNtNtCsk2dDpYChjKI_14oneiros_engine7domains6memory8features3mcpNtB4_9MemoryMcp8dispatch0Bc_
FN:28,_RNCNvMNtNtNtNtCsk2dDpYChjKI_14oneiros_engine7domains6memory8features3mcpNtB4_9MemoryMcp8resource0Bc_
FN:46,_RNvNtNtNtNtNtCsk2dDpYChjKI_14oneiros_engine7domains6memory8features3mcp10memory_mcp8dispatch
FN:73,_RNvNtNtNtNtNtCsk2dDpYChjKI_14oneiros_engine7domains6memory8features3mcp10memory_mcp8resource
FN:36,_RNvNtNtNtNtNtCsk2dDpYChjKI_14oneiros_engine7domains6memory8features3mcp10memory_mcp9tool_defs
FN:20,_RNvMNtNtNtNtCsk2dDpYChjKI_14oneiros_engine7domains6memory8features3mcpNtB2_9MemoryMcp18resource_templates
FN:6,_RNvMNtNtNtNtCsk2dDpYChjKI_14oneiros_engine7domains6memory8features3mcpNtB2_9MemoryMcp4defs
FN:10,_RNvMNtNtNtNtCsk2dDpYChjKI_14oneiros_engine7domains6memory8features3mcpNtB2_9MemoryMcp8dispatch
FN:24,_RNvMNtNtNtNtCsk2dDpYChjKI_14oneiros_engine7domains6memory8features3mcpNtB2_9MemoryMcp8resource
FNDA:0,_RNCNCNvNtNtNtNtNtCsk2dDpYChjKI_14oneiros_engine7domains6memory8features3mcp10memory_mcp8dispatch00Bf_
FNDA:0,_RNCNvNtNtNtNtNtCsk2dDpYChjKI_14oneiros_engine7domains6memory8features3mcp10memory_mcp8dispatch0Bd_
FNDA:0,_RNCNvNtNtNtNtNtCsk2dDpYChjKI_14oneiros_engine7domains6memory8features3mcp10memory_mcp8resource0Bd_
FNDA:0,_RNCNvMNtNtNtNtCsk2dDpYChjKI_14oneiros_engine7domains6memory8features3mcpNtB4_9MemoryMcp8dispatch0Bc_
FNDA:0,_RNCNvMNtNtNtNtCsk2dDpYChjKI_14oneiros_engine7domains6memory8features3mcpNtB4_9MemoryMcp8resource0Bc_
FNDA:0,_RNvNtNtNtNtNtCsk2dDpYChjKI_14oneiros_engine7domains6memory8features3mcp10memory_mcp8dispatch
FNDA:0,_RNvNtNtNtNtNtCsk2dDpYChjKI_14oneiros_engine7domains6memory8features3mcp10memory_mcp8resource
FNDA:1,_RNvNtNtNtNtNtCsk2dDpYChjKI_14oneiros_engine7domains6memory8features3mcp10memory_mcp9tool_defs
FNDA:1,_RNvMNtNtNtNtCsk2dDpYChjKI_14oneiros_engine7domains6memory8features3mcpNtB2_9MemoryMcp18resource_templates
FNDA:1,_RNvMNtNtNtNtCsk2dDpYChjKI_14oneiros_engine7domains6memory8features3mcpNtB2_9MemoryMcp4defs
FNDA:0,_RNvMNtNtNtNtCsk2dDpYChjKI_14oneiros_engine7domains6memory8features3mcpNtB2_9MemoryMcp8dispatch
FNDA:0,_RNvMNtNtNtNtCsk2dDpYChjKI_14oneiros_engine7domains6memory8features3mcpNtB2_9MemoryMcp8resource
FNF:12
FNH:3
DA:6,1
DA:7,1
DA:8,1
DA:10,0
DA:11,0
DA:12,0
DA:13,0
DA:14,0
DA:15,0
DA:16,0
DA:17,0
DA:18,0
DA:20,1
DA:21,1
DA:22,1
DA:24,0
DA:25,0
DA:26,0
DA:27,0
DA:28,0
DA:29,0
DA:30,0
DA:36,1
DA:37,1
DA:38,1
DA:39,1
DA:40,1
DA:41,1
DA:42,1
DA:44,1
DA:46,0
DA:47,0
DA:48,0
DA:49,0
DA:50,0
DA:51,0
DA:52,0
DA:53,0
DA:54,0
DA:55,0
DA:57,0
DA:59,0
DA:60,0
DA:61,0
DA:62,0
DA:63,0
DA:64,0
DA:65,0
DA:68,0
DA:71,0
DA:73,0
DA:74,0
DA:75,0
DA:76,0
DA:77,0
DA:78,0
DA:79,0
DA:80,0
DA:82,0
DA:83,0
DA:84,0
DA:86,0
DA:87,0
DA:88,0
DA:92,0
DA:93,0
DA:94,0
DA:96,0
BRF:0
BRH:0
LF:73
LH:14
end_of_record
SF:/Users/esmevane/Code/projects/oneiros/crates/oneiros-engine/src/domains/memory/features/projections.rs
FN:6,_RNvMNtNtNtNtCsk2dDpYChjKI_14oneiros_engine7domains6memory8features11projectionsNtB2_17MemoryProjections3all
FN:13,_RNCNvNtNtNtNtCsk2dDpYChjKI_14oneiros_engine7domains6memory8features11projections11PROJECTIONS0Bb_
FN:15,_RNCNvNtNtNtNtCsk2dDpYChjKI_14oneiros_engine7domains6memory8features11projections11PROJECTIONSs0_0Bb_
FN:14,_RNCNvNtNtNtNtCsk2dDpYChjKI_14oneiros_engine7domains6memory8features11projections11PROJECTIONSs_0Bb_
FNDA:5825,_RNvMNtNtNtNtCsk2dDpYChjKI_14oneiros_engine7domains6memory8features11projectionsNtB2_17MemoryProjections3all
FNDA:574,_RNCNvNtNtNtNtCsk2dDpYChjKI_14oneiros_engine7domains6memory8features11projections11PROJECTIONS0Bb_
FNDA:288,_RNCNvNtNtNtNtCsk2dDpYChjKI_14oneiros_engine7domains6memory8features11projections11PROJECTIONSs0_0Bb_
FNDA:7005,_RNCNvNtNtNtNtCsk2dDpYChjKI_14oneiros_engine7domains6memory8features11projections11PROJECTIONSs_0Bb_
FNF:4
FNH:4
DA:6,5825
DA:7,5825
DA:8,5825
DA:13,574
DA:14,7005
DA:15,288
BRF:0
BRH:0
LF:6
LH:6
end_of_record
SF:/Users/esmevane/Code/projects/oneiros/crates/oneiros-engine/src/domains/memory/features/skills.rs
FN:6,_RNvMNtNtNtNtCsk2dDpYChjKI_14oneiros_engine7domains6memory8features6skillsNtB2_12MemorySkills3all
FNDA:12,_RNvMNtNtNtNtCsk2dDpYChjKI_14oneiros_engine7domains6memory8features6skillsNtB2_12MemorySkills3all
FNF:1
FNH:1
DA:6,12
DA:7,12
DA:8,12
DA:9,12
DA:10,12
DA:12,12
BRF:0
BRH:0
LF:6
LH:6
end_of_record
SF:/Users/esmevane/Code/projects/oneiros/crates/oneiros-engine/src/domains/memory/features/state.rs
FN:6,_RNvMNtNtNtNtCsk2dDpYChjKI_14oneiros_engine7domains6memory8features5stateNtB2_11MemoryState6reduce
FN:16,_RNvMNtNtNtNtCsk2dDpYChjKI_14oneiros_engine7domains6memory8features5stateNtB2_11MemoryState7reducer
FNDA:7005,_RNvMNtNtNtNtCsk2dDpYChjKI_14oneiros_engine7domains6memory8features5stateNtB2_11MemoryState6reduce
FNDA:580,_RNvMNtNtNtNtCsk2dDpYChjKI_14oneiros_engine7domains6memory8features5stateNtB2_11MemoryState7reducer
FNF:2
FNH:2
DA:6,7005
DA:7,7005
DA:8,84
DA:9,84
DA:10,84
DA:11,6921
DA:13,7005
DA:14,7005
DA:16,580
DA:17,580
DA:18,580
BRF:0
BRH:0
LF:11
LH:11
end_of_record
SF:/Users/esmevane/Code/projects/oneiros/crates/oneiros-engine/src/domains/memory/model.rs
FN:22,_RNvMNtNtNtCsk2dDpYChjKI_14oneiros_engine7domains6memory5modelNtB2_6Memory9ref_token
FN:28,_RNvXs_NtNtNtCsk2dDpYChjKI_14oneiros_engine7domains6memory5modelNtB4_6MemoryINtNtNtBa_6values12entity_index9IndexableNtB4_8MemoryIdE2id
FNDA:5,_RNvMNtNtNtCsk2dDpYChjKI_14oneiros_engine7domains6memory5modelNtB2_6Memory9ref_token
FNDA:84,_RNvXs_NtNtNtCsk2dDpYChjKI_14oneiros_engine7domains6memory5modelNtB4_6MemoryINtNtNtBa_6values12entity_index9IndexableNtB4_8MemoryIdE2id
FNF:2
FNH:2
DA:22,5
DA:23,5
DA:24,5
DA:28,84
DA:29,84
DA:30,84
BRF:0
BRH:0
LF:6
LH:6
end_of_record
SF:/Users/esmevane/Code/projects/oneiros/crates/oneiros-engine/src/domains/memory/protocol/errors.rs
FN:40,_RNvXNtNtNtNtCsk2dDpYChjKI_14oneiros_engine7domains6memory8protocol6errorsNtB2_11MemoryErrorNtNtNtCs1iC2TOwIRjP_9axum_core8response13into_response12IntoResponse13into_response
FNDA:3,_RNvXNtNtNtNtCsk2dDpYChjKI_14oneiros_engine7domains6memory8protocol6errorsNtB2_11MemoryErrorNtNtNtCs1iC2TOwIRjP_9axum_core8response13into_response12IntoResponse13into_response
FNF:1
FNH:1
DA:40,3
DA:41,3
DA:42,2
DA:43,1
DA:44,0
DA:45,0
DA:47,0
DA:49,0
DA:50,0
DA:51,0
DA:53,3
DA:54,3
BRF:0
BRH:0
LF:12
LH:6
end_of_record
SF:/Users/esmevane/Code/projects/oneiros/crates/oneiros-engine/src/domains/memory/protocol/events.rs
FN:25,_RNvNtNtNtNtNtCsk2dDpYChjKI_14oneiros_engine7domains6memory8protocol6events5tests13sample_memory
FN:34,_RNvNtNtNtNtNtCsk2dDpYChjKI_14oneiros_engine7domains6memory8protocol6events5testss_27event_types_are_kebab_cased
FN:39,_RNvNtNtNtNtNtCsk2dDpYChjKI_14oneiros_engine7domains6memory8protocol6events5testss_32memory_added_wire_format_is_flat
FNDA:1,_RNvNtNtNtNtNtCsk2dDpYChjKI_14oneiros_engine7domains6memory8protocol6events5tests13sample_memory
FNDA:1,_RNvNtNtNtNtNtCsk2dDpYChjKI_14oneiros_engine7domains6memory8protocol6events5testss_27event_types_are_kebab_cased
FNDA:1,_RNvNtNtNtNtNtCsk2dDpYChjKI_14oneiros_engine7domains6memory8protocol6events5testss_32memory_added_wire_format_is_flat
FNF:3
FNH:3
DA:25,1
DA:26,1
DA:27,1
DA:28,1
DA:29,1
DA:30,1
DA:31,1
DA:34,1
DA:35,1
DA:36,1
DA:39,1
DA:40,1
DA:41,1
DA:42,1
DA:44,1
DA:45,1
DA:46,1
DA:47,1
DA:50,1
DA:51,1
DA:52,1
DA:53,1
DA:54,1
DA:57,1
BRF:0
BRH:0
LF:24
LH:24
end_of_record
SF:/Users/esmevane/Code/projects/oneiros/crates/oneiros-engine/src/domains/memory/protocol/requests.rs
FN:22,_RNvXNtNtNtNtCsk2dDpYChjKI_14oneiros_engine7domains6memory8protocol8requestsNtB2_9AddMemoryNtNtBa_6client13ClientRequest15execute_request
FN:71,_RNvXs0_NtNtNtNtCsk2dDpYChjKI_14oneiros_engine7domains6memory8protocol8requestsNtB5_12ListMemoriesNtNtBd_6client13ClientRequest15execute_request
FN:40,_RNvXs_NtNtNtNtCsk2dDpYChjKI_14oneiros_engine7domains6memory8protocol8requestsNtB4_9GetMemoryNtNtBc_6client13ClientRequest15execute_request
FN:114,_RNvNtNtNtNtNtCsk2dDpYChjKI_14oneiros_engine7domains6memory8protocol8requests5testss_29request_types_are_kebab_cased
FN:92,_RNCNCNvXs0_NtNtNtNtCsk2dDpYChjKI_14oneiros_engine7domains6memory8protocol8requestsNtB9_12ListMemoriesNtNtBh_6client13ClientRequest15execute_request00Bh_
FN:22,_RNCNvXNtNtNtNtCsk2dDpYChjKI_14oneiros_engine7domains6memory8protocol8requestsNtB4_9AddMemoryNtNtBc_6client13ClientRequest15execute_request0Bc_
FN:71,_RNCNvXs0_NtNtNtNtCsk2dDpYChjKI_14oneiros_engine7domains6memory8protocol8requestsNtB7_12ListMemoriesNtNtBf_6client13ClientRequest15execute_request0Bf_
FN:40,_RNCNvXs_NtNtNtNtCsk2dDpYChjKI_14oneiros_engine7domains6memory8protocol8requestsNtB6_9GetMemoryNtNtBe_6client13ClientRequest15execute_request0Be_
FNDA:76,_RNvXNtNtNtNtCsk2dDpYChjKI_14oneiros_engine7domains6memory8protocol8requestsNtB2_9AddMemoryNtNtBa_6client13ClientRequest15execute_request
FNDA:9,_RNvXs0_NtNtNtNtCsk2dDpYChjKI_14oneiros_engine7domains6memory8protocol8requestsNtB5_12ListMemoriesNtNtBd_6client13ClientRequest15execute_request
FNDA:3,_RNvXs_NtNtNtNtCsk2dDpYChjKI_14oneiros_engine7domains6memory8protocol8requestsNtB4_9GetMemoryNtNtBc_6client13ClientRequest15execute_request
FNDA:1,_RNvNtNtNtNtNtCsk2dDpYChjKI_14oneiros_engine7domains6memory8protocol8requests5testss_29request_types_are_kebab_cased
FNDA:25,_RNCNCNvXs0_NtNtNtNtCsk2dDpYChjKI_14oneiros_engine7domains6memory8protocol8requestsNtB9_12ListMemoriesNtNtBh_6client13ClientRequest15execute_request00Bh_
FNDA:76,_RNCNvXNtNtNtNtCsk2dDpYChjKI_14oneiros_engine7domains6memory8protocol8requestsNtB4_9AddMemoryNtNtBc_6client13ClientRequest15execute_request0Bc_
FNDA:9,_RNCNvXs0_NtNtNtNtCsk2dDpYChjKI_14oneiros_engine7domains6memory8protocol8requestsNtB7_12ListMemoriesNtNtBf_6client13ClientRequest15execute_request0Bf_
FNDA:3,_RNCNvXs_NtNtNtNtCsk2dDpYChjKI_14oneiros_engine7domains6memory8protocol8requestsNtB6_9GetMemoryNtNtBe_6client13ClientRequest15execute_request0Be_
FNF:8
FNH:8
DA:22,76
DA:23,76
DA:24,76
DA:40,3
DA:41,3
DA:42,3
DA:43,3
DA:71,9
DA:72,9
DA:73,9
DA:75,9
DA:76,6
DA:77,6
DA:79,9
DA:80,0
DA:81,9
DA:83,9
DA:84,1
DA:85,8
DA:87,9
DA:88,9
DA:90,9
DA:91,9
DA:92,25
DA:93,9
DA:94,9
DA:96,9
DA:97,9
DA:114,1
DA:115,1
DA:116,1
DA:117,1
DA:118,1
DA:119,1
DA:121,3
DA:122,3
DA:124,1
BRF:0
BRH:0
LF:41
LH:40
end_of_record
SF:/Users/esmevane/Code/projects/oneiros/crates/oneiros-engine/src/domains/memory/repo.rs
FN:25,_RNvMNtNtNtCsk2dDpYChjKI_14oneiros_engine7domains6memory4repoNtB2_10MemoryRepo3get
FN:13,_RNvMNtNtNtCsk2dDpYChjKI_14oneiros_engine7domains6memory4repoNtB2_10MemoryRepo3new
FN:21,_RNvMNtNtNtCsk2dDpYChjKI_14oneiros_engine7domains6memory4repoNtB2_10MemoryRepo5fetch
FN:60,_RNvMNtNtNtCsk2dDpYChjKI_14oneiros_engine7domains6memory4repoNtB2_10MemoryRepo8get_many
FN:32,_RNCNCNvMNtNtNtCsk2dDpYChjKI_14oneiros_engine7domains6memory4repoNtB6_10MemoryRepo3get00Bc_
FN:22,_RNCNCNvMNtNtNtCsk2dDpYChjKI_14oneiros_engine7domains6memory4repoNtB6_10MemoryRepo5fetch00Bc_
FN:66,_RNCNCNvMNtNtNtCsk2dDpYChjKI_14oneiros_engine7domains6memory4repoNtB6_10MemoryRepo8get_many00Bc_
FN:98,_RNCNCNvMNtNtNtCsk2dDpYChjKI_14oneiros_engine7domains6memory4repoNtB6_10MemoryRepo8get_many0s0_0Bc_
FN:76,_RNCNCNvMNtNtNtCsk2dDpYChjKI_14oneiros_engine7domains6memory4repoNtB6_10MemoryRepo8get_many0s_0Bc_
FN:25,_RNCNvMNtNtNtCsk2dDpYChjKI_14oneiros_engine7domains6memory4repoNtB4_10MemoryRepo3get0Ba_
FN:21,_RNCNvMNtNtNtCsk2dDpYChjKI_14oneiros_engine7domains6memory4repoNtB4_10MemoryRepo5fetch0Ba_
FN:60,_RNCNvMNtNtNtCsk2dDpYChjKI_14oneiros_engine7domains6memory4repoNtB4_10MemoryRepo8get_many0Ba_
FNDA:166,_RNvMNtNtNtCsk2dDpYChjKI_14oneiros_engine7domains6memory4repoNtB2_10MemoryRepo3get
FNDA:110,_RNvMNtNtNtCsk2dDpYChjKI_14oneiros_engine7domains6memory4repoNtB2_10MemoryRepo3new
FNDA:77,_RNvMNtNtNtCsk2dDpYChjKI_14oneiros_engine7domains6memory4repoNtB2_10MemoryRepo5fetch
FNDA:33,_RNvMNtNtNtCsk2dDpYChjKI_14oneiros_engine7domains6memory4repoNtB2_10MemoryRepo8get_many
FNDA:76,_RNCNCNvMNtNtNtCsk2dDpYChjKI_14oneiros_engine7domains6memory4repoNtB6_10MemoryRepo3get00Bc_
FNDA:166,_RNCNCNvMNtNtNtCsk2dDpYChjKI_14oneiros_engine7domains6memory4repoNtB6_10MemoryRepo5fetch00Bc_
FNDA:17,_RNCNCNvMNtNtNtCsk2dDpYChjKI_14oneiros_engine7domains6memory4repoNtB6_10MemoryRepo8get_many00Bc_
FNDA:17,_RNCNCNvMNtNtNtCsk2dDpYChjKI_14oneiros_engine7domains6memory4repoNtB6_10MemoryRepo8get_many0s0_0Bc_
FNDA:17,_RNCNCNvMNtNtNtCsk2dDpYChjKI_14oneiros_engine7domains6memory4repoNtB6_10MemoryRepo8get_many0s_0Bc_
FNDA:166,_RNCNvMNtNtNtCsk2dDpYChjKI_14oneiros_engine7domains6memory4repoNtB4_10MemoryRepo3get0Ba_
FNDA:77,_RNCNvMNtNtNtCsk2dDpYChjKI_14oneiros_engine7domains6memory4repoNtB4_10MemoryRepo5fetch0Ba_
FNDA:33,_RNCNvMNtNtNtCsk2dDpYChjKI_14oneiros_engine7domains6memory4repoNtB4_10MemoryRepo8get_many0Ba_
FNF:12
FNH:12
DA:13,110
DA:14,110
DA:15,110
DA:21,77
DA:22,166
DA:23,77
DA:25,166
DA:26,166
DA:27,166
DA:28,166
DA:29,166
DA:30,166
DA:32,166
DA:33,76
DA:35,76
DA:36,76
DA:37,76
DA:38,76
DA:39,76
DA:41,76
DA:43,90
DA:44,76
DA:45,76
DA:46,76
DA:47,76
DA:48,76
DA:49,76
DA:50,76
DA:51,76
DA:53,90
DA:54,0
DA:56,166
DA:60,33
DA:61,33
DA:62,20
DA:63,13
DA:64,13
DA:65,13
DA:66,17
DA:67,13
DA:68,13
DA:69,13
DA:73,13
DA:74,13
DA:75,13
DA:76,17
DA:78,17
DA:79,17
DA:80,17
DA:81,17
DA:82,17
DA:84,17
DA:85,13
DA:87,13
DA:88,17
DA:89,17
DA:90,17
DA:91,17
DA:92,17
DA:93,17
DA:94,17
DA:95,17
DA:96,17
DA:98,17
DA:99,33
BRF:0
BRH:0
LF:74
LH:72
end_of_record
SF:/Users/esmevane/Code/projects/oneiros/crates/oneiros-engine/src/domains/memory/service.rs
FN:6,_RNvMNtNtNtCsk2dDpYChjKI_14oneiros_engine7domains6memory7serviceNtB2_13MemoryService3add
FN:50,_RNvMNtNtNtCsk2dDpYChjKI_14oneiros_engine7domains6memory7serviceNtB2_13MemoryService3get
FN:68,_RNvMNtNtNtCsk2dDpYChjKI_14oneiros_engine7domains6memory7serviceNtB2_13MemoryService4list
FN:15,_RNCNCNvMNtNtNtCsk2dDpYChjKI_14oneiros_engine7domains6memory7serviceNtB6_13MemoryService3add00Bc_
FN:78,_RNCNCNvMNtNtNtCsk2dDpYChjKI_14oneiros_engine7domains6memory7serviceNtB6_13MemoryService4list00Bc_
FN:102,_RNCNCNvMNtNtNtCsk2dDpYChjKI_14oneiros_engine7domains6memory7serviceNtB6_13MemoryService4list0s_0Bc_
FN:10,_RNCNvMNtNtNtCsk2dDpYChjKI_14oneiros_engine7domains6memory7serviceNtB4_13MemoryService3add0Ba_
FN:53,_RNCNvMNtNtNtCsk2dDpYChjKI_14oneiros_engine7domains6memory7serviceNtB4_13MemoryService3get0Ba_
FN:71,_RNCNvMNtNtNtCsk2dDpYChjKI_14oneiros_engine7domains6memory7serviceNtB4_13MemoryService4list0Ba_
FNDA:76,_RNvMNtNtNtCsk2dDpYChjKI_14oneiros_engine7domains6memory7serviceNtB2_13MemoryService3add
FNDA:3,_RNvMNtNtNtCsk2dDpYChjKI_14oneiros_engine7domains6memory7serviceNtB2_13MemoryService3get
FNDA:9,_RNvMNtNtNtCsk2dDpYChjKI_14oneiros_engine7domains6memory7serviceNtB2_13MemoryService4list
FNDA:2,_RNCNCNvMNtNtNtCsk2dDpYChjKI_14oneiros_engine7domains6memory7serviceNtB6_13MemoryService3add00Bc_
FNDA:0,_RNCNCNvMNtNtNtCsk2dDpYChjKI_14oneiros_engine7domains6memory7serviceNtB6_13MemoryService4list00Bc_
FNDA:12,_RNCNCNvMNtNtNtCsk2dDpYChjKI_14oneiros_engine7domains6memory7serviceNtB6_13MemoryService4list0s_0Bc_
FNDA:76,_RNCNvMNtNtNtCsk2dDpYChjKI_14oneiros_engine7domains6memory7serviceNtB4_13MemoryService3add0Ba_
FNDA:3,_RNCNvMNtNtNtCsk2dDpYChjKI_14oneiros_engine7domains6memory7serviceNtB4_13MemoryService3get0Ba_
FNDA:9,_RNCNvMNtNtNtCsk2dDpYChjKI_14oneiros_engine7domains6memory7serviceNtB4_13MemoryService4list0Ba_
FNF:9
FNH:8
DA:6,76
DA:7,76
DA:8,76
DA:9,76
DA:10,76
DA:11,76
DA:12,76
DA:13,76
DA:14,76
DA:15,76
DA:17,74
DA:18,74
DA:19,74
DA:20,74
DA:21,74
DA:22,74
DA:24,74
DA:25,74
DA:26,74
DA:27,74
DA:28,74
DA:30,74
DA:31,74
DA:32,74
DA:33,74
DA:34,74
DA:37,74
DA:38,74
DA:39,74
DA:40,74
DA:42,74
DA:43,74
DA:44,74
DA:45,74
DA:46,74
DA:47,74
DA:48,76
DA:50,3
DA:51,3
DA:52,3
DA:53,3
DA:54,3
DA:55,3
DA:56,3
DA:57,3
DA:58,3
DA:59,3
DA:60,2
DA:61,2
DA:62,2
DA:63,2
DA:64,2
DA:65,2
DA:66,3
DA:68,9
DA:69,9
DA:70,9
DA:71,9
DA:72,9
DA:73,9
DA:74,6
DA:75,6
DA:76,6
DA:77,6
DA:78,6
DA:79,6
DA:81,3
DA:84,9
DA:85,9
DA:86,9
DA:87,9
DA:88,9
DA:89,9
DA:91,9
DA:92,9
DA:93,9
DA:95,9
DA:96,1
DA:97,8
DA:99,8
DA:100,8
DA:101,8
DA:102,12
DA:103,12
DA:104,0
DA:105,12
DA:106,8
DA:107,8
DA:109,8
DA:110,8
DA:111,8
DA:112,8
DA:113,8
DA:114,8
DA:115,8
DA:116,9
BRF:0
BRH:0
LF:102
LH:100
end_of_record
SF:/Users/esmevane/Code/projects/oneiros/crates/oneiros-engine/src/domains/memory/store.rs
FN:58,_RNCNvMNtNtNtCsk2dDpYChjKI_14oneiros_engine7domains6memory5storeNtB4_11MemoryStore4list0Ba_
FN:90,_RNvMNtNtNtCsk2dDpYChjKI_14oneiros_engine7domains6memory5storeNtB2_11MemoryStore12write_memory
FN:11,_RNvMNtNtNtCsk2dDpYChjKI_14oneiros_engine7domains6memory5storeNtB2_11MemoryStore3new
FN:46,_RNvMNtNtNtCsk2dDpYChjKI_14oneiros_engine7domains6memory5storeNtB2_11MemoryStore4list
FN:28,_RNvMNtNtNtCsk2dDpYChjKI_14oneiros_engine7domains6memory5storeNtB2_11MemoryStore5reset
FN:15,_RNvMNtNtNtCsk2dDpYChjKI_14oneiros_engine7domains6memory5storeNtB2_11MemoryStore6handle
FN:33,_RNvMNtNtNtCsk2dDpYChjKI_14oneiros_engine7domains6memory5storeNtB2_11MemoryStore7migrate
FNDA:67,_RNCNvMNtNtNtCsk2dDpYChjKI_14oneiros_engine7domains6memory5storeNtB4_11MemoryStore4list0Ba_
FNDA:84,_RNvMNtNtNtCsk2dDpYChjKI_14oneiros_engine7domains6memory5storeNtB2_11MemoryStore12write_memory
FNDA:7981,_RNvMNtNtNtCsk2dDpYChjKI_14oneiros_engine7domains6memory5storeNtB2_11MemoryStore3new
FNDA:114,_RNvMNtNtNtCsk2dDpYChjKI_14oneiros_engine7domains6memory5storeNtB2_11MemoryStore4list
FNDA:288,_RNvMNtNtNtCsk2dDpYChjKI_14oneiros_engine7domains6memory5storeNtB2_11MemoryStore5reset
FNDA:7005,_RNvMNtNtNtCsk2dDpYChjKI_14oneiros_engine7domains6memory5storeNtB2_11MemoryStore6handle
FNDA:574,_RNvMNtNtNtCsk2dDpYChjKI_14oneiros_engine7domains6memory5storeNtB2_11MemoryStore7migrate
FNF:7
FNH:7
DA:11,7981
DA:12,7981
DA:13,7981
DA:15,7005
DA:16,7005
DA:17,84
DA:18,84
DA:19,84
DA:20,84
DA:21,84
DA:24,6921
DA:25,7005
DA:26,7005
DA:28,288
DA:29,288
DA:30,288
DA:31,288
DA:33,574
DA:34,574
DA:35,574
DA:36,574
DA:37,574
DA:38,574
DA:39,574
DA:40,574
DA:41,574
DA:42,0
DA:43,574
DA:44,574
DA:46,114
DA:47,114
DA:48,114
DA:49,114
DA:50,114
DA:51,0
DA:52,0
DA:53,0
DA:54,0
DA:55,0
DA:58,114
DA:60,67
DA:61,67
DA:62,67
DA:63,67
DA:64,67
DA:66,67
DA:68,114
DA:69,114
DA:70,0
DA:71,0
DA:72,114
DA:74,114
DA:75,114
DA:76,67
DA:77,67
DA:78,67
DA:79,67
DA:80,67
DA:81,67
DA:82,67
DA:83,67
DA:87,114
DA:88,114
DA:90,84
DA:91,84
DA:92,84
DA:93,84
DA:94,84
DA:95,84
DA:96,84
DA:97,84
DA:98,84
DA:99,84
DA:101,0
DA:102,84
DA:103,84
BRF:0
BRH:0
LF:77
LH:68
end_of_record
SF:/Users/esmevane/Code/projects/oneiros/crates/oneiros-engine/src/domains/memory/view.rs
FN:18,_RNvMNtNtNtCsk2dDpYChjKI_14oneiros_engine7domains6memory4viewNtB2_10MemoryView3mcp
FN:14,_RNvMNtNtNtCsk2dDpYChjKI_14oneiros_engine7domains6memory4viewNtB2_10MemoryView3new
FN:83,_RNvMNtNtNtCsk2dDpYChjKI_14oneiros_engine7domains6memory4viewNtB2_10MemoryView6render
FNDA:0,_RNvMNtNtNtCsk2dDpYChjKI_14oneiros_engine7domains6memory4viewNtB2_10MemoryView3mcp
FNDA:38,_RNvMNtNtNtCsk2dDpYChjKI_14oneiros_engine7domains6memory4viewNtB2_10MemoryView3new
FNDA:38,_RNvMNtNtNtCsk2dDpYChjKI_14oneiros_engine7domains6memory4viewNtB2_10MemoryView6render
FNF:3
FNH:2
DA:14,38
DA:15,38
DA:16,38
DA:18,0
DA:19,0
DA:20,0
DA:21,0
DA:22,0
DA:26,0
DA:27,0
DA:30,0
DA:31,0
DA:32,0
DA:39,0
DA:40,0
DA:43,0
DA:45,0
DA:46,0
DA:47,0
DA:48,0
DA:49,0
DA:50,0
DA:53,0
DA:55,0
DA:57,0
DA:60,0
DA:61,0
DA:62,0
DA:63,0
DA:64,0
DA:65,0
DA:66,0
DA:67,0
DA:68,0
DA:69,0
DA:70,0
DA:71,0
DA:72,0
DA:73,0
DA:74,0
DA:75,0
DA:76,0
DA:78,0
DA:79,0
DA:81,0
DA:83,38
DA:84,38
DA:85,30
DA:86,30
DA:87,30
DA:89,30
DA:90,30
DA:92,30
DA:93,30
DA:95,30
DA:96,30
DA:97,30
DA:98,30
DA:100,30
DA:102,2
DA:103,2
DA:104,2
DA:105,2
DA:106,2
DA:107,2
DA:108,2
DA:110,2
DA:111,2
DA:112,2
DA:113,2
DA:115,2
DA:118,5
DA:119,5
DA:121,5
DA:122,5
DA:123,5
DA:124,5
DA:127,7
DA:128,7
DA:129,7
DA:130,7
DA:131,7
DA:132,7
DA:133,7
DA:134,7
DA:136,5
DA:138,5
DA:141,5
DA:142,3
DA:143,3
DA:144,3
DA:145,3
DA:146,3
DA:148,2
DA:151,5
DA:152,5
DA:153,5
DA:154,5
DA:156,5
DA:158,1
DA:159,1
DA:160,1
DA:161,1
DA:164,0
DA:166,38
BRF:0
BRH:0
LF:105
LH:62
end_of_record
SF:/Users/esmevane/Code/projects/oneiros/crates/oneiros-engine/src/domains/nature/docs.rs
FN:18,_RNvMNtNtNtCsk2dDpYChjKI_14oneiros_engine7domains6nature4docsNtB2_10NatureDocs13resource_docs
FN:11,_RNvMNtNtNtCsk2dDpYChjKI_14oneiros_engine7domains6nature4docsNtB2_10NatureDocs3tag
FNDA:1216,_RNvMNtNtNtCsk2dDpYChjKI_14oneiros_engine7domains6nature4docsNtB2_10NatureDocs13resource_docs
FNDA:1520,_RNvMNtNtNtCsk2dDpYChjKI_14oneiros_engine7domains6nature4docsNtB2_10NatureDocs3tag
FNF:2
FNH:2
DA:11,1520
DA:12,1520
DA:13,1520
DA:14,1520
DA:15,1520
DA:16,1520
DA:18,1216
DA:19,1216
DA:20,1216
DA:21,304
DA:22,304
DA:23,304
DA:24,304
DA:25,304
DA:26,304
DA:27,304
DA:28,304
DA:29,304
DA:30,304
DA:31,304
DA:32,304
DA:33,304
DA:34,304
DA:35,304
DA:36,304
DA:37,304
DA:38,304
DA:39,304
DA:40,304
DA:41,304
DA:42,304
DA:43,304
DA:44,304
DA:46,1216
BRF:0
BRH:0
LF:34
LH:34
end_of_record
SF:/Users/esmevane/Code/projects/oneiros/crates/oneiros-engine/src/domains/nature/features/cli.rs
FN:19,_RNvMNtNtNtNtCsk2dDpYChjKI_14oneiros_engine7domains6nature8features3cliNtB2_14NatureCommands7execute
FN:22,_RNCNvMNtNtNtNtCsk2dDpYChjKI_14oneiros_engine7domains6nature8features3cliNtB4_14NatureCommands7execute0Bc_
FNDA:28,_RNvMNtNtNtNtCsk2dDpYChjKI_14oneiros_engine7domains6nature8features3cliNtB2_14NatureCommands7execute
FNDA:28,_RNCNvMNtNtNtNtCsk2dDpYChjKI_14oneiros_engine7domains6nature8features3cliNtB4_14NatureCommands7execute0Bc_
FNF:2
FNH:2
DA:19,28
DA:20,28
DA:21,28
DA:22,28
DA:23,28
DA:25,28
DA:26,19
DA:27,3
DA:28,4
DA:29,2
DA:32,28
DA:33,28
DA:34,28
BRF:0
BRH:0
LF:14
LH:14
end_of_record
SF:/Users/esmevane/Code/projects/oneiros/crates/oneiros-engine/src/domains/nature/features/http.rs
FN:19,_RNCNvMNtNtNtNtCsk2dDpYChjKI_14oneiros_engine7domains6nature8features4httpNtB4_12NatureRouter6routes0Bc_
FN:30,_RNCNvMNtNtNtNtCsk2dDpYChjKI_14oneiros_engine7domains6nature8features4httpNtB4_12NatureRouter6routess0_0Bc_
FN:33,_RNCNvMNtNtNtNtCsk2dDpYChjKI_14oneiros_engine7domains6nature8features4httpNtB4_12NatureRouter6routess1_0Bc_
FN:25,_RNCNvMNtNtNtNtCsk2dDpYChjKI_14oneiros_engine7domains6nature8features4httpNtB4_12NatureRouter6routess_0Bc_
FN:46,_RNCNvNtNtNtNtCsk2dDpYChjKI_14oneiros_engine7domains6nature8features4http3set0Bb_
FN:59,_RNCNvNtNtNtNtCsk2dDpYChjKI_14oneiros_engine7domains6nature8features4http4list0Bb_
FN:66,_RNCNvNtNtNtNtCsk2dDpYChjKI_14oneiros_engine7domains6nature8features4http4show0Bb_
FN:76,_RNCNvNtNtNtNtCsk2dDpYChjKI_14oneiros_engine7domains6nature8features4http6remove0Bb_
FN:13,_RNvMNtNtNtNtCsk2dDpYChjKI_14oneiros_engine7domains6nature8features4httpNtB2_12NatureRouter6routes
FN:41,_RNvNtNtNtNtCsk2dDpYChjKI_14oneiros_engine7domains6nature8features4http3set
FN:56,_RNvNtNtNtNtCsk2dDpYChjKI_14oneiros_engine7domains6nature8features4http4list
FN:63,_RNvNtNtNtNtCsk2dDpYChjKI_14oneiros_engine7domains6nature8features4http4show
FN:72,_RNvNtNtNtNtCsk2dDpYChjKI_14oneiros_engine7domains6nature8features4http6remove
FNDA:304,_RNCNvMNtNtNtNtCsk2dDpYChjKI_14oneiros_engine7domains6nature8features4httpNtB4_12NatureRouter6routes0Bc_
FNDA:304,_RNCNvMNtNtNtNtCsk2dDpYChjKI_14oneiros_engine7domains6nature8features4httpNtB4_12NatureRouter6routess0_0Bc_
FNDA:304,_RNCNvMNtNtNtNtCsk2dDpYChjKI_14oneiros_engine7domains6nature8features4httpNtB4_12NatureRouter6routess1_0Bc_
FNDA:304,_RNCNvMNtNtNtNtCsk2dDpYChjKI_14oneiros_engine7domains6nature8features4httpNtB4_12NatureRouter6routess_0Bc_
FNDA:19,_RNCNvNtNtNtNtCsk2dDpYChjKI_14oneiros_engine7domains6nature8features4http3set0Bb_
FNDA:4,_RNCNvNtNtNtNtCsk2dDpYChjKI_14oneiros_engine7domains6nature8features4http4list0Bb_
FNDA:5,_RNCNvNtNtNtNtCsk2dDpYChjKI_14oneiros_engine7domains6nature8features4http4show0Bb_
FNDA:2,_RNCNvNtNtNtNtCsk2dDpYChjKI_14oneiros_engine7domains6nature8features4http6remove0Bb_
FNDA:304,_RNvMNtNtNtNtCsk2dDpYChjKI_14oneiros_engine7domains6nature8features4httpNtB2_12NatureRouter6routes
FNDA:19,_RNvNtNtNtNtCsk2dDpYChjKI_14oneiros_engine7domains6nature8features4http3set
FNDA:4,_RNvNtNtNtNtCsk2dDpYChjKI_14oneiros_engine7domains6nature8features4http4list
FNDA:5,_RNvNtNtNtNtCsk2dDpYChjKI_14oneiros_engine7domains6nature8features4http4show
FNDA:2,_RNvNtNtNtNtCsk2dDpYChjKI_14oneiros_engine7domains6nature8features4http6remove
FNF:13
FNH:13
DA:13,304
DA:14,304
DA:15,304
DA:16,304
DA:17,304
DA:18,304
DA:19,304
DA:20,304
DA:21,304
DA:23,304
DA:24,304
DA:25,304
DA:26,304
DA:27,304
DA:28,304
DA:29,304
DA:30,304
DA:31,304
DA:32,304
DA:33,304
DA:34,304
DA:35,304
DA:38,304
DA:41,19
DA:42,19
DA:43,19
DA:44,19
DA:45,19
DA:46,19
DA:47,19
DA:48,19
DA:49,19
DA:52,19
DA:54,19
DA:56,4
DA:57,4
DA:58,4
DA:59,4
DA:60,4
DA:61,4
DA:63,5
DA:64,5
DA:65,5
DA:66,5
DA:68,5
DA:70,5
DA:72,2
DA:73,2
DA:74,2
DA:75,2
DA:76,2
DA:78,2
DA:79,2
DA:80,2
DA:81,2
DA:82,2
DA:83,2
DA:85,2
BRF:0
BRH:0
LF:66
LH:66
end_of_record
SF:/Users/esmevane/Code/projects/oneiros/crates/oneiros-engine/src/domains/nature/features/mcp.rs
FN:10,_RNvMNtNtNtNtCsk2dDpYChjKI_14oneiros_engine7domains6nature8features3mcpNtB2_9NatureMcp8resource
FN:6,_RNvMNtNtNtNtCsk2dDpYChjKI_14oneiros_engine7domains6nature8features3mcpNtB2_9NatureMcp9resources
FN:23,_RNvNtNtNtNtNtCsk2dDpYChjKI_14oneiros_engine7domains6nature8features3mcp10nature_mcp8resource
FN:14,_RNCNvMNtNtNtNtCsk2dDpYChjKI_14oneiros_engine7domains6nature8features3mcpNtB4_9NatureMcp8resource0Bc_
FN:26,_RNCNvNtNtNtNtNtCsk2dDpYChjKI_14oneiros_engine7domains6nature8features3mcp10nature_mcp8resource0Bd_
FNDA:0,_RNvMNtNtNtNtCsk2dDpYChjKI_14oneiros_engine7domains6nature8features3mcpNtB2_9NatureMcp8resource
FNDA:1,_RNvMNtNtNtNtCsk2dDpYChjKI_14oneiros_engine7domains6nature8features3mcpNtB2_9NatureMcp9resources
FNDA:0,_RNvNtNtNtNtNtCsk2dDpYChjKI_14oneiros_engine7domains6nature8features3mcp10nature_mcp8resource
FNDA:0,_RNCNvMNtNtNtNtCsk2dDpYChjKI_14oneiros_engine7domains6nature8features3mcpNtB4_9NatureMcp8resource0Bc_
FNDA:0,_RNCNvNtNtNtNtNtCsk2dDpYChjKI_14oneiros_engine7domains6nature8features3mcp10nature_mcp8resource0Bd_
FNF:5
FNH:1
DA:6,1
DA:7,1
DA:8,1
DA:10,0
DA:11,0
DA:12,0
DA:13,0
DA:14,0
DA:15,0
DA:16,0
DA:17,0
DA:23,0
DA:24,0
DA:25,0
DA:26,0
DA:27,0
DA:28,0
DA:29,0
DA:30,0
DA:31,0
DA:32,0
DA:34,0
DA:35,0
DA:36,0
DA:38,0
DA:39,0
DA:40,0
DA:42,0
BRF:0
BRH:0
LF:30
LH:3
end_of_record
SF:/Users/esmevane/Code/projects/oneiros/crates/oneiros-engine/src/domains/nature/features/projections.rs
FN:13,_RNCNvNtNtNtNtCsk2dDpYChjKI_14oneiros_engine7domains6nature8features11projections11PROJECTIONS0Bb_
FN:15,_RNCNvNtNtNtNtCsk2dDpYChjKI_14oneiros_engine7domains6nature8features11projections11PROJECTIONSs0_0Bb_
FN:14,_RNCNvNtNtNtNtCsk2dDpYChjKI_14oneiros_engine7domains6nature8features11projections11PROJECTIONSs_0Bb_
FN:6,_RNvMNtNtNtNtCsk2dDpYChjKI_14oneiros_engine7domains6nature8features11projectionsNtB2_17NatureProjections3all
FNDA:574,_RNCNvNtNtNtNtCsk2dDpYChjKI_14oneiros_engine7domains6nature8features11projections11PROJECTIONS0Bb_
FNDA:288,_RNCNvNtNtNtNtCsk2dDpYChjKI_14oneiros_engine7domains6nature8features11projections11PROJECTIONSs0_0Bb_
FNDA:7005,_RNCNvNtNtNtNtCsk2dDpYChjKI_14oneiros_engine7domains6nature8features11projections11PROJECTIONSs_0Bb_
FNDA:5825,_RNvMNtNtNtNtCsk2dDpYChjKI_14oneiros_engine7domains6nature8features11projectionsNtB2_17NatureProjections3all
FNF:4
FNH:4
DA:6,5825
DA:7,5825
DA:8,5825
DA:13,574
DA:14,7005
DA:15,288
BRF:0
BRH:0
LF:6
LH:6
end_of_record
SF:/Users/esmevane/Code/projects/oneiros/crates/oneiros-engine/src/domains/nature/features/skills.rs
FN:6,_RNvMNtNtNtNtCsk2dDpYChjKI_14oneiros_engine7domains6nature8features6skillsNtB2_12NatureSkills3all
FNDA:12,_RNvMNtNtNtNtCsk2dDpYChjKI_14oneiros_engine7domains6nature8features6skillsNtB2_12NatureSkills3all
FNF:1
FNH:1
DA:6,12
DA:7,12
DA:8,12
DA:9,12
DA:10,12
DA:11,12
DA:13,12
BRF:0
BRH:0
LF:7
LH:7
end_of_record
SF:/Users/esmevane/Code/projects/oneiros/crates/oneiros-engine/src/domains/nature/features/state.rs
FN:6,_RNvMNtNtNtNtCsk2dDpYChjKI_14oneiros_engine7domains6nature8features5stateNtB2_11NatureState6reduce
FN:25,_RNvMNtNtNtNtCsk2dDpYChjKI_14oneiros_engine7domains6nature8features5stateNtB2_11NatureState7reducer
FNDA:7005,_RNvMNtNtNtNtCsk2dDpYChjKI_14oneiros_engine7domains6nature8features5stateNtB2_11NatureState6reduce
FNDA:580,_RNvMNtNtNtNtCsk2dDpYChjKI_14oneiros_engine7domains6nature8features5stateNtB2_11NatureState7reducer
FNF:2
FNH:2
DA:6,7005
DA:7,7005
DA:8,1019
DA:9,1017
DA:10,1017
DA:11,1017
DA:12,1017
DA:14,2
DA:15,2
DA:16,2
DA:17,2
DA:20,5986
DA:22,7005
DA:23,7005
DA:25,580
DA:26,580
DA:27,580
BRF:0
BRH:0
LF:17
LH:17
end_of_record
SF:/Users/esmevane/Code/projects/oneiros/crates/oneiros-engine/src/domains/nature/model.rs
FN:18,_RNvXNtNtNtCsk2dDpYChjKI_14oneiros_engine7domains6nature5modelNtB2_6NatureINtNtNtB8_6values12entity_index9IndexableNtB2_10NatureNameE2id
FNDA:1017,_RNvXNtNtNtCsk2dDpYChjKI_14oneiros_engine7domains6nature5modelNtB2_6NatureINtNtNtB8_6values12entity_index9IndexableNtB2_10NatureNameE2id
FNF:1
FNH:1
DA:18,1017
DA:19,1017
DA:20,1017
BRF:0
BRH:0
LF:3
LH:3
end_of_record
SF:/Users/esmevane/Code/projects/oneiros/crates/oneiros-engine/src/domains/nature/protocol/errors.rs
FN:36,_RNvXNtNtNtNtCsk2dDpYChjKI_14oneiros_engine7domains6nature8protocol6errorsNtB2_11NatureErrorNtNtNtCs1iC2TOwIRjP_9axum_core8response13into_response12IntoResponse13into_response
FNDA:1,_RNvXNtNtNtNtCsk2dDpYChjKI_14oneiros_engine7domains6nature8protocol6errorsNtB2_11NatureErrorNtNtNtCs1iC2TOwIRjP_9axum_core8response13into_response12IntoResponse13into_response
FNF:1
FNH:1
DA:36,1
DA:37,1
DA:38,1
DA:39,0
DA:41,0
DA:43,0
DA:44,0
DA:45,0
DA:47,1
DA:48,1
BRF:0
BRH:0
LF:10
LH:5
end_of_record
SF:/Users/esmevane/Code/projects/oneiros/crates/oneiros-engine/src/domains/nature/protocol/events.rs
FN:34,_RNvNtNtNtNtNtCsk2dDpYChjKI_14oneiros_engine7domains6nature8protocol6events5tests13sample_nature
FN:43,_RNvNtNtNtNtNtCsk2dDpYChjKI_14oneiros_engine7domains6nature8protocol6events5testss_27event_types_are_kebab_cased
FN:54,_RNvNtNtNtNtNtCsk2dDpYChjKI_14oneiros_engine7domains6nature8protocol6events5testss_30nature_set_wire_format_is_flat
FN:74,_RNvNtNtNtNtNtCsk2dDpYChjKI_14oneiros_engine7domains6nature8protocol6events5testss_43nature_removed_round_trips_through_v1_layer
FNDA:1,_RNvNtNtNtNtNtCsk2dDpYChjKI_14oneiros_engine7domains6nature8protocol6events5tests13sample_nature
FNDA:1,_RNvNtNtNtNtNtCsk2dDpYChjKI_14oneiros_engine7domains6nature8protocol6events5testss_27event_types_are_kebab_cased
FNDA:1,_RNvNtNtNtNtNtCsk2dDpYChjKI_14oneiros_engine7domains6nature8protocol6events5testss_30nature_set_wire_format_is_flat
FNDA:1,_RNvNtNtNtNtNtCsk2dDpYChjKI_14oneiros_engine7domains6nature8protocol6events5testss_43nature_removed_round_trips_through_v1_layer
FNF:4
FNH:4
DA:34,1
DA:35,1
DA:36,1
DA:37,1
DA:38,1
DA:39,1
DA:40,1
DA:43,1
DA:44,1
DA:45,1
DA:46,1
DA:47,1
DA:48,2
DA:49,2
DA:51,1
DA:54,1
DA:55,1
DA:56,1
DA:57,1
DA:59,1
DA:60,1
DA:61,1
DA:62,1
DA:65,1
DA:66,1
DA:67,1
DA:68,1
DA:71,1
DA:74,1
DA:75,1
DA:76,1
DA:77,1
DA:79,1
DA:80,1
DA:82,1
DA:83,1
DA:84,1
DA:85,1
DA:87,0
DA:89,1
BRF:0
BRH:0
LF:40
LH:39
end_of_record
SF:/Users/esmevane/Code/projects/oneiros/crates/oneiros-engine/src/domains/nature/protocol/requests.rs
FN:111,_RNvNtNtNtNtNtCsk2dDpYChjKI_14oneiros_engine7domains6nature8protocol8requests5testss_29request_types_are_kebab_cased
FN:26,_RNCNvXNtNtNtNtCsk2dDpYChjKI_14oneiros_engine7domains6nature8protocol8requestsNtB4_9SetNatureNtNtBc_6client13ClientRequest15execute_request0Bc_
FN:64,_RNCNvXs0_NtNtNtNtCsk2dDpYChjKI_14oneiros_engine7domains6nature8protocol8requestsNtB7_12RemoveNatureNtNtBf_6client13ClientRequest15execute_request0Bf_
FN:86,_RNCNvXs1_NtNtNtNtCsk2dDpYChjKI_14oneiros_engine7domains6nature8protocol8requestsNtB7_11ListNaturesNtNtBf_6client13ClientRequest15execute_request0Bf_
FN:45,_RNCNvXs_NtNtNtNtCsk2dDpYChjKI_14oneiros_engine7domains6nature8protocol8requestsNtB6_9GetNatureNtNtBe_6client13ClientRequest15execute_request0Be_
FN:26,_RNvXNtNtNtNtCsk2dDpYChjKI_14oneiros_engine7domains6nature8protocol8requestsNtB2_9SetNatureNtNtBa_6client13ClientRequest15execute_request
FN:64,_RNvXs0_NtNtNtNtCsk2dDpYChjKI_14oneiros_engine7domains6nature8protocol8requestsNtB5_12RemoveNatureNtNtBd_6client13ClientRequest15execute_request
FN:86,_RNvXs1_NtNtNtNtCsk2dDpYChjKI_14oneiros_engine7domains6nature8protocol8requestsNtB5_11ListNaturesNtNtBd_6client13ClientRequest15execute_request
FN:45,_RNvXs_NtNtNtNtCsk2dDpYChjKI_14oneiros_engine7domains6nature8protocol8requestsNtB4_9GetNatureNtNtBc_6client13ClientRequest15execute_request
FNDA:1,_RNvNtNtNtNtNtCsk2dDpYChjKI_14oneiros_engine7domains6nature8protocol8requests5testss_29request_types_are_kebab_cased
FNDA:19,_RNCNvXNtNtNtNtCsk2dDpYChjKI_14oneiros_engine7domains6nature8protocol8requestsNtB4_9SetNatureNtNtBc_6client13ClientRequest15execute_request0Bc_
FNDA:2,_RNCNvXs0_NtNtNtNtCsk2dDpYChjKI_14oneiros_engine7domains6nature8protocol8requestsNtB7_12RemoveNatureNtNtBf_6client13ClientRequest15execute_request0Bf_
FNDA:4,_RNCNvXs1_NtNtNtNtCsk2dDpYChjKI_14oneiros_engine7domains6nature8protocol8requestsNtB7_11ListNaturesNtNtBf_6client13ClientRequest15execute_request0Bf_
FNDA:5,_RNCNvXs_NtNtNtNtCsk2dDpYChjKI_14oneiros_engine7domains6nature8protocol8requestsNtB6_9GetNatureNtNtBe_6client13ClientRequest15execute_request0Be_
FNDA:19,_RNvXNtNtNtNtCsk2dDpYChjKI_14oneiros_engine7domains6nature8protocol8requestsNtB2_9SetNatureNtNtBa_6client13ClientRequest15execute_request
FNDA:2,_RNvXs0_NtNtNtNtCsk2dDpYChjKI_14oneiros_engine7domains6nature8protocol8requestsNtB5_12RemoveNatureNtNtBd_6client13ClientRequest15execute_request
FNDA:4,_RNvXs1_NtNtNtNtCsk2dDpYChjKI_14oneiros_engine7domains6nature8protocol8requestsNtB5_11ListNaturesNtNtBd_6client13ClientRequest15execute_request
FNDA:5,_RNvXs_NtNtNtNtCsk2dDpYChjKI_14oneiros_engine7domains6nature8protocol8requestsNtB4_9GetNatureNtNtBc_6client13ClientRequest15execute_request
FNF:9
FNH:9
DA:26,19
DA:27,19
DA:28,19
DA:29,19
DA:45,5
DA:46,5
DA:47,5
DA:48,5
DA:64,2
DA:65,2
DA:66,2
DA:67,2
DA:86,4
DA:87,4
DA:88,4
DA:92,4
DA:93,4
DA:111,1
DA:112,1
DA:113,1
DA:114,1
DA:115,1
DA:116,1
DA:117,1
DA:119,4
DA:120,4
DA:122,1
BRF:0
BRH:0
LF:31
LH:31
end_of_record
SF:/Users/esmevane/Code/projects/oneiros/crates/oneiros-engine/src/domains/nature/repo.rs
FN:27,_RNCNCNvMNtNtNtCsk2dDpYChjKI_14oneiros_engine7domains6nature4repoNtB6_10NatureRepo3get00Bc_
FN:53,_RNCNCNvMNtNtNtCsk2dDpYChjKI_14oneiros_engine7domains6nature4repoNtB6_10NatureRepo4list00Bc_
FN:70,_RNCNCNvMNtNtNtCsk2dDpYChjKI_14oneiros_engine7domains6nature4repoNtB6_10NatureRepo4list0s0_0Bc_
FN:61,_RNCNCNvMNtNtNtCsk2dDpYChjKI_14oneiros_engine7domains6nature4repoNtB6_10NatureRepo4list0s_0Bc_
FN:19,_RNCNCNvMNtNtNtCsk2dDpYChjKI_14oneiros_engine7domains6nature4repoNtB6_10NatureRepo5fetch00Bc_
FN:22,_RNCNvMNtNtNtCsk2dDpYChjKI_14oneiros_engine7domains6nature4repoNtB4_10NatureRepo3get0Ba_
FN:48,_RNCNvMNtNtNtCsk2dDpYChjKI_14oneiros_engine7domains6nature4repoNtB4_10NatureRepo4list0Ba_
FN:18,_RNCNvMNtNtNtCsk2dDpYChjKI_14oneiros_engine7domains6nature4repoNtB4_10NatureRepo5fetch0Ba_
FN:22,_RNvMNtNtNtCsk2dDpYChjKI_14oneiros_engine7domains6nature4repoNtB2_10NatureRepo3get
FN:10,_RNvMNtNtNtCsk2dDpYChjKI_14oneiros_engine7domains6nature4repoNtB2_10NatureRepo3new
FN:48,_RNvMNtNtNtCsk2dDpYChjKI_14oneiros_engine7domains6nature4repoNtB2_10NatureRepo4list
FN:18,_RNvMNtNtNtCsk2dDpYChjKI_14oneiros_engine7domains6nature4repoNtB2_10NatureRepo5fetch
FNDA:721,_RNCNCNvMNtNtNtCsk2dDpYChjKI_14oneiros_engine7domains6nature4repoNtB6_10NatureRepo3get00Bc_
FNDA:4,_RNCNCNvMNtNtNtCsk2dDpYChjKI_14oneiros_engine7domains6nature4repoNtB6_10NatureRepo4list00Bc_
FNDA:3,_RNCNCNvMNtNtNtCsk2dDpYChjKI_14oneiros_engine7domains6nature4repoNtB6_10NatureRepo4list0s0_0Bc_
FNDA:3,_RNCNCNvMNtNtNtCsk2dDpYChjKI_14oneiros_engine7domains6nature4repoNtB6_10NatureRepo4list0s_0Bc_
FNDA:1450,_RNCNCNvMNtNtNtCsk2dDpYChjKI_14oneiros_engine7domains6nature4repoNtB6_10NatureRepo5fetch00Bc_
FNDA:1454,_RNCNvMNtNtNtCsk2dDpYChjKI_14oneiros_engine7domains6nature4repoNtB4_10NatureRepo3get0Ba_
FNDA:4,_RNCNvMNtNtNtCsk2dDpYChjKI_14oneiros_engine7domains6nature4repoNtB4_10NatureRepo4list0Ba_
FNDA:720,_RNCNvMNtNtNtCsk2dDpYChjKI_14oneiros_engine7domains6nature4repoNtB4_10NatureRepo5fetch0Ba_
FNDA:1454,_RNvMNtNtNtCsk2dDpYChjKI_14oneiros_engine7domains6nature4repoNtB2_10NatureRepo3get
FNDA:728,_RNvMNtNtNtCsk2dDpYChjKI_14oneiros_engine7domains6nature4repoNtB2_10NatureRepo3new
FNDA:4,_RNvMNtNtNtCsk2dDpYChjKI_14oneiros_engine7domains6nature4repoNtB2_10NatureRepo4list
FNDA:720,_RNvMNtNtNtCsk2dDpYChjKI_14oneiros_engine7domains6nature4repoNtB2_10NatureRepo5fetch
FNF:12
FNH:12
DA:10,728
DA:11,728
DA:12,728
DA:18,720
DA:19,1450
DA:20,720
DA:22,1454
DA:23,1454
DA:24,1454
DA:25,1454
DA:27,1454
DA:29,721
DA:30,721
DA:31,721
DA:33,721
DA:35,733
DA:36,721
DA:37,721
DA:38,721
DA:39,721
DA:40,721
DA:41,721
DA:42,721
DA:43,733
DA:44,0
DA:46,1454
DA:48,4
DA:49,4
DA:51,4
DA:52,4
DA:53,4
DA:56,4
DA:57,4
DA:58,4
DA:60,4
DA:61,4
DA:63,3
DA:64,3
DA:65,3
DA:67,3
DA:68,4
DA:69,4
DA:70,4
DA:71,3
DA:72,3
DA:73,3
DA:74,3
DA:75,3
DA:76,3
DA:77,4
DA:79,4
DA:80,4
BRF:0
BRH:0
LF:61
LH:59
end_of_record
SF:/Users/esmevane/Code/projects/oneiros/crates/oneiros-engine/src/domains/nature/service.rs
FN:45,_RNvMNtNtNtCsk2dDpYChjKI_14oneiros_engine7domains6nature7serviceNtB2_13NatureService3get
FN:6,_RNvMNtNtNtCsk2dDpYChjKI_14oneiros_engine7domains6nature7serviceNtB2_13NatureService3set
FN:63,_RNvMNtNtNtCsk2dDpYChjKI_14oneiros_engine7domains6nature7serviceNtB2_13NatureService4list
FN:82,_RNvMNtNtNtCsk2dDpYChjKI_14oneiros_engine7domains6nature7serviceNtB2_13NatureService6remove
FN:109,_RNCNCNCNvMNtNtNtCsk2dDpYChjKI_14oneiros_engine7domains6nature7serviceNtB8_13NatureService6remove000Be_
FN:109,_RNCNCNvMNtNtNtCsk2dDpYChjKI_14oneiros_engine7domains6nature7serviceNtB6_13NatureService6remove00Bc_
FN:48,_RNCNvMNtNtNtCsk2dDpYChjKI_14oneiros_engine7domains6nature7serviceNtB4_13NatureService3get0Ba_
FN:10,_RNCNvMNtNtNtCsk2dDpYChjKI_14oneiros_engine7domains6nature7serviceNtB4_13NatureService3set0Ba_
FN:66,_RNCNvMNtNtNtCsk2dDpYChjKI_14oneiros_engine7domains6nature7serviceNtB4_13NatureService4list0Ba_
FN:86,_RNCNvMNtNtNtCsk2dDpYChjKI_14oneiros_engine7domains6nature7serviceNtB4_13NatureService6remove0Ba_
FNDA:5,_RNvMNtNtNtCsk2dDpYChjKI_14oneiros_engine7domains6nature7serviceNtB2_13NatureService3get
FNDA:715,_RNvMNtNtNtCsk2dDpYChjKI_14oneiros_engine7domains6nature7serviceNtB2_13NatureService3set
FNDA:4,_RNvMNtNtNtCsk2dDpYChjKI_14oneiros_engine7domains6nature7serviceNtB2_13NatureService4list
FNDA:2,_RNvMNtNtNtCsk2dDpYChjKI_14oneiros_engine7domains6nature7serviceNtB2_13NatureService6remove
FNDA:4,_RNCNCNCNvMNtNtNtCsk2dDpYChjKI_14oneiros_engine7domains6nature7serviceNtB8_13NatureService6remove000Be_
FNDA:4,_RNCNCNvMNtNtNtCsk2dDpYChjKI_14oneiros_engine7domains6nature7serviceNtB6_13NatureService6remove00Bc_
FNDA:5,_RNCNvMNtNtNtCsk2dDpYChjKI_14oneiros_engine7domains6nature7serviceNtB4_13NatureService3get0Ba_
FNDA:715,_RNCNvMNtNtNtCsk2dDpYChjKI_14oneiros_engine7domains6nature7serviceNtB4_13NatureService3set0Ba_
FNDA:4,_RNCNvMNtNtNtCsk2dDpYChjKI_14oneiros_engine7domains6nature7serviceNtB4_13NatureService4list0Ba_
FNDA:2,_RNCNvMNtNtNtCsk2dDpYChjKI_14oneiros_engine7domains6nature7serviceNtB4_13NatureService6remove0Ba_
FNF:10
FNH:10
DA:6,715
DA:7,715
DA:8,715
DA:9,715
DA:10,715
DA:11,715
DA:12,715
DA:13,715
DA:14,715
DA:15,715
DA:16,715
DA:17,715
DA:19,715
DA:20,715
DA:21,715
DA:22,715
DA:23,715
DA:25,715
DA:26,715
DA:27,715
DA:28,715
DA:29,715
DA:32,715
DA:33,715
DA:34,715
DA:35,715
DA:37,715
DA:38,715
DA:39,715
DA:40,715
DA:41,715
DA:42,715
DA:43,715
DA:45,5
DA:46,5
DA:47,5
DA:48,5
DA:49,5
DA:50,5
DA:51,5
DA:52,5
DA:53,5
DA:54,5
DA:55,4
DA:56,4
DA:57,4
DA:58,4
DA:59,4
DA:60,4
DA:61,5
DA:63,4
DA:64,4
DA:65,4
DA:66,4
DA:67,4
DA:68,4
DA:69,4
DA:70,2
DA:72,2
DA:73,2
DA:74,2
DA:75,2
DA:76,2
DA:77,2
DA:78,2
DA:80,4
DA:82,2
DA:83,2
DA:84,2
DA:85,2
DA:86,2
DA:87,2
DA:88,2
DA:90,2
DA:91,2
DA:92,2
DA:93,2
DA:94,2
DA:95,2
DA:96,2
DA:97,2
DA:99,2
DA:100,2
DA:101,2
DA:102,2
DA:103,2
DA:106,2
DA:107,2
DA:108,2
DA:109,8
DA:110,2
DA:112,2
DA:113,2
DA:114,2
DA:115,2
DA:116,2
DA:117,2
DA:118,2
BRF:0
BRH:0
LF:104
LH:104
end_of_record
SF:/Users/esmevane/Code/projects/oneiros/crates/oneiros-engine/src/domains/nature/store.rs
FN:81,_RNvMNtNtNtCsk2dDpYChjKI_14oneiros_engine7domains6nature5storeNtB2_11NatureStore12write_nature
FN:10,_RNvMNtNtNtCsk2dDpYChjKI_14oneiros_engine7domains6nature5storeNtB2_11NatureStore3new
FN:67,_RNvMNtNtNtCsk2dDpYChjKI_14oneiros_engine7domains6nature5storeNtB2_11NatureStore3set
FN:40,_RNvMNtNtNtCsk2dDpYChjKI_14oneiros_engine7domains6nature5storeNtB2_11NatureStore4list
FN:24,_RNvMNtNtNtCsk2dDpYChjKI_14oneiros_engine7domains6nature5storeNtB2_11NatureStore5reset
FN:14,_RNvMNtNtNtCsk2dDpYChjKI_14oneiros_engine7domains6nature5storeNtB2_11NatureStore6handle
FN:72,_RNvMNtNtNtCsk2dDpYChjKI_14oneiros_engine7domains6nature5storeNtB2_11NatureStore6remove
FN:29,_RNvMNtNtNtCsk2dDpYChjKI_14oneiros_engine7domains6nature5storeNtB2_11NatureStore7migrate
FN:46,_RNCNvMNtNtNtCsk2dDpYChjKI_14oneiros_engine7domains6nature5storeNtB4_11NatureStore4list0Ba_
FN:55,_RNCNvMNtNtNtCsk2dDpYChjKI_14oneiros_engine7domains6nature5storeNtB4_11NatureStore4lists_0Ba_
FNDA:1017,_RNvMNtNtNtCsk2dDpYChjKI_14oneiros_engine7domains6nature5storeNtB2_11NatureStore12write_nature
FNDA:7981,_RNvMNtNtNtCsk2dDpYChjKI_14oneiros_engine7domains6nature5storeNtB2_11NatureStore3new
FNDA:1017,_RNvMNtNtNtCsk2dDpYChjKI_14oneiros_engine7domains6nature5storeNtB2_11NatureStore3set
FNDA:114,_RNvMNtNtNtCsk2dDpYChjKI_14oneiros_engine7domains6nature5storeNtB2_11NatureStore4list
FNDA:288,_RNvMNtNtNtCsk2dDpYChjKI_14oneiros_engine7domains6nature5storeNtB2_11NatureStore5reset
FNDA:7005,_RNvMNtNtNtCsk2dDpYChjKI_14oneiros_engine7domains6nature5storeNtB2_11NatureStore6handle
FNDA:2,_RNvMNtNtNtCsk2dDpYChjKI_14oneiros_engine7domains6nature5storeNtB2_11NatureStore6remove
FNDA:574,_RNvMNtNtNtCsk2dDpYChjKI_14oneiros_engine7domains6nature5storeNtB2_11NatureStore7migrate
FNDA:684,_RNCNvMNtNtNtCsk2dDpYChjKI_14oneiros_engine7domains6nature5storeNtB4_11NatureStore4list0Ba_
FNDA:684,_RNCNvMNtNtNtCsk2dDpYChjKI_14oneiros_engine7domains6nature5storeNtB4_11NatureStore4lists_0Ba_
FNF:10
FNH:10
DA:10,7981
DA:11,7981
DA:12,7981
DA:14,7005
DA:15,7005
DA:16,1019
DA:17,1017
DA:18,2
DA:20,5986
DA:21,7005
DA:22,7005
DA:24,288
DA:25,288
DA:26,288
DA:27,288
DA:29,574
DA:30,574
DA:31,574
DA:32,574
DA:33,574
DA:34,574
DA:35,574
DA:36,0
DA:37,574
DA:38,574
DA:40,114
DA:41,114
DA:42,114
DA:43,114
DA:45,114
DA:46,684
DA:48,684
DA:49,684
DA:50,684
DA:52,684
DA:53,114
DA:54,114
DA:55,684
DA:56,684
DA:57,684
DA:58,684
DA:59,684
DA:60,684
DA:61,684
DA:62,114
DA:64,114
DA:65,114
DA:67,1017
DA:68,1017
DA:69,1017
DA:70,1017
DA:72,2
DA:73,2
DA:74,2
DA:75,2
DA:76,2
DA:77,0
DA:78,2
DA:79,2
DA:81,1017
DA:82,1017
DA:83,1017
DA:84,1017
DA:85,1017
DA:86,1017
DA:87,1017
DA:89,0
DA:90,1017
DA:91,1017
BRF:0
BRH:0
LF:72
LH:68
end_of_record
SF:/Users/esmevane/Code/projects/oneiros/crates/oneiros-engine/src/domains/nature/view.rs
FN:39,_RNvMNtNtNtCsk2dDpYChjKI_14oneiros_engine7domains6nature4viewNtB2_10NatureView16vocabulary_table
FN:12,_RNvMNtNtNtCsk2dDpYChjKI_14oneiros_engine7domains6nature4viewNtB2_10NatureView3mcp
FN:8,_RNvMNtNtNtCsk2dDpYChjKI_14oneiros_engine7domains6nature4viewNtB2_10NatureView3new
FN:53,_RNvMNtNtNtCsk2dDpYChjKI_14oneiros_engine7domains6nature4viewNtB2_10NatureView6render
FN:18,_RNCNvMNtNtNtCsk2dDpYChjKI_14oneiros_engine7domains6nature4viewNtB4_10NatureView3mcp0Ba_
FNDA:0,_RNvMNtNtNtCsk2dDpYChjKI_14oneiros_engine7domains6nature4viewNtB2_10NatureView16vocabulary_table
FNDA:0,_RNvMNtNtNtCsk2dDpYChjKI_14oneiros_engine7domains6nature4viewNtB2_10NatureView3mcp
FNDA:28,_RNvMNtNtNtCsk2dDpYChjKI_14oneiros_engine7domains6nature4viewNtB2_10NatureView3new
FNDA:28,_RNvMNtNtNtCsk2dDpYChjKI_14oneiros_engine7domains6nature4viewNtB2_10NatureView6render
FNDA:0,_RNCNvMNtNtNtCsk2dDpYChjKI_14oneiros_engine7domains6nature4viewNtB4_10NatureView3mcp0Ba_
FNF:5
FNH:2
DA:8,28
DA:9,28
DA:10,28
DA:12,0
DA:13,0
DA:14,0
DA:15,0
DA:16,0
DA:17,0
DA:18,0
DA:19,0
DA:20,0
DA:22,0
DA:23,0
DA:24,0
DA:25,0
DA:26,0
DA:27,0
DA:29,0
DA:30,0
DA:31,0
DA:33,0
DA:34,0
DA:37,0
DA:39,0
DA:40,0
DA:41,0
DA:42,0
DA:43,0
DA:44,0
DA:45,0
DA:46,0
DA:47,0
DA:48,0
DA:50,0
DA:51,0
DA:53,28
DA:54,28
DA:55,19
DA:56,19
DA:57,19
DA:58,19
DA:59,19
DA:60,19
DA:61,19
DA:63,19
DA:64,19
DA:65,19
DA:66,19
DA:68,19
DA:70,3
DA:71,3
DA:72,3
DA:73,3
DA:74,3
DA:75,3
DA:76,3
DA:77,3
DA:78,3
DA:81,2
DA:82,2
DA:83,2
DA:84,2
DA:86,3
DA:87,3
DA:88,3
DA:89,2
DA:91,2
DA:93,2
DA:94,2
DA:95,2
DA:96,2
DA:99,2
DA:100,2
DA:101,2
DA:102,2
DA:104,2
DA:105,2
DA:106,2
DA:107,2
DA:108,2
DA:109,2
DA:110,2
DA:112,2
DA:113,2
DA:114,2
DA:115,2
DA:117,2
DA:120,28
BRF:0
BRH:0
LF:90
LH:56
end_of_record
SF:/Users/esmevane/Code/projects/oneiros/crates/oneiros-engine/src/domains/peer/docs.rs
FN:18,_RNvMNtNtNtCsk2dDpYChjKI_14oneiros_engine7domains4peer4docsNtB2_8PeerDocs13resource_docs
FN:11,_RNvMNtNtNtCsk2dDpYChjKI_14oneiros_engine7domains4peer4docsNtB2_8PeerDocs3tag
FNDA:1216,_RNvMNtNtNtCsk2dDpYChjKI_14oneiros_engine7domains4peer4docsNtB2_8PeerDocs13resource_docs
FNDA:1520,_RNvMNtNtNtCsk2dDpYChjKI_14oneiros_engine7domains4peer4docsNtB2_8PeerDocs3tag
FNF:2
FNH:2
DA:11,1520
DA:12,1520
DA:13,1520
DA:14,1520
DA:15,1520
DA:16,1520
DA:18,1216
DA:19,1216
DA:20,1216
DA:21,304
DA:22,304
DA:23,304
DA:24,304
DA:25,304
DA:28,304
DA:29,304
DA:30,304
DA:31,304
DA:32,304
DA:33,304
DA:34,304
DA:35,304
DA:36,304
DA:37,304
DA:38,304
DA:39,304
DA:40,304
DA:41,304
DA:42,304
DA:43,304
DA:44,304
DA:45,304
DA:48,304
DA:50,1216
BRF:0
BRH:0
LF:34
LH:34
end_of_record
SF:/Users/esmevane/Code/projects/oneiros/crates/oneiros-engine/src/domains/peer/features/cli.rs
FN:14,_RNCNvMNtNtNtNtCsk2dDpYChjKI_14oneiros_engine7domains4peer8features3cliNtB4_12PeerCommands7execute0Bc_
FN:14,_RNvMNtNtNtNtCsk2dDpYChjKI_14oneiros_engine7domains4peer8features3cliNtB2_12PeerCommands7execute
FNDA:3,_RNCNvMNtNtNtNtCsk2dDpYChjKI_14oneiros_engine7domains4peer8features3cliNtB4_12PeerCommands7execute0Bc_
FNDA:3,_RNvMNtNtNtNtCsk2dDpYChjKI_14oneiros_engine7domains4peer8features3cliNtB2_12PeerCommands7execute
FNF:2
FNH:2
DA:14,3
DA:15,3
DA:17,3
DA:18,0
DA:19,0
DA:20,3
DA:21,0
DA:24,3
DA:25,3
DA:26,3
BRF:0
BRH:0
LF:11
LH:8
end_of_record
SF:/Users/esmevane/Code/projects/oneiros/crates/oneiros-engine/src/domains/peer/features/http.rs
FN:19,_RNCNvMNtNtNtNtCsk2dDpYChjKI_14oneiros_engine7domains4peer8features4httpNtB4_10PeerRouter6routes0Bc_
FN:26,_RNCNvMNtNtNtNtCsk2dDpYChjKI_14oneiros_engine7domains4peer8features4httpNtB4_10PeerRouter6routess0_0Bc_
FN:27,_RNCNvMNtNtNtNtCsk2dDpYChjKI_14oneiros_engine7domains4peer8features4httpNtB4_10PeerRouter6routess1_0Bc_
FN:20,_RNCNvMNtNtNtNtCsk2dDpYChjKI_14oneiros_engine7domains4peer8features4httpNtB4_10PeerRouter6routess_0Bc_
FN:37,_RNCNvNtNtNtNtCsk2dDpYChjKI_14oneiros_engine7domains4peer8features4http3add0Bb_
FN:45,_RNCNvNtNtNtNtCsk2dDpYChjKI_14oneiros_engine7domains4peer8features4http4list0Bb_
FN:52,_RNCNvNtNtNtNtCsk2dDpYChjKI_14oneiros_engine7domains4peer8features4http4show0Bb_
FN:62,_RNCNvNtNtNtNtCsk2dDpYChjKI_14oneiros_engine7domains4peer8features4http6remove0Bb_
FN:13,_RNvMNtNtNtNtCsk2dDpYChjKI_14oneiros_engine7domains4peer8features4httpNtB2_10PeerRouter6routes
FN:33,_RNvNtNtNtNtCsk2dDpYChjKI_14oneiros_engine7domains4peer8features4http3add
FN:42,_RNvNtNtNtNtCsk2dDpYChjKI_14oneiros_engine7domains4peer8features4http4list
FN:49,_RNvNtNtNtNtCsk2dDpYChjKI_14oneiros_engine7domains4peer8features4http4show
FN:58,_RNvNtNtNtNtCsk2dDpYChjKI_14oneiros_engine7domains4peer8features4http6remove
FNDA:304,_RNCNvMNtNtNtNtCsk2dDpYChjKI_14oneiros_engine7domains4peer8features4httpNtB4_10PeerRouter6routes0Bc_
FNDA:304,_RNCNvMNtNtNtNtCsk2dDpYChjKI_14oneiros_engine7domains4peer8features4httpNtB4_10PeerRouter6routess0_0Bc_
FNDA:304,_RNCNvMNtNtNtNtCsk2dDpYChjKI_14oneiros_engine7domains4peer8features4httpNtB4_10PeerRouter6routess1_0Bc_
FNDA:304,_RNCNvMNtNtNtNtCsk2dDpYChjKI_14oneiros_engine7domains4peer8features4httpNtB4_10PeerRouter6routess_0Bc_
FNDA:0,_RNCNvNtNtNtNtCsk2dDpYChjKI_14oneiros_engine7domains4peer8features4http3add0Bb_
FNDA:3,_RNCNvNtNtNtNtCsk2dDpYChjKI_14oneiros_engine7domains4peer8features4http4list0Bb_
FNDA:0,_RNCNvNtNtNtNtCsk2dDpYChjKI_14oneiros_engine7domains4peer8features4http4show0Bb_
FNDA:0,_RNCNvNtNtNtNtCsk2dDpYChjKI_14oneiros_engine7domains4peer8features4http6remove0Bb_
FNDA:304,_RNvMNtNtNtNtCsk2dDpYChjKI_14oneiros_engine7domains4peer8features4httpNtB2_10PeerRouter6routes
FNDA:0,_RNvNtNtNtNtCsk2dDpYChjKI_14oneiros_engine7domains4peer8features4http3add
FNDA:3,_RNvNtNtNtNtCsk2dDpYChjKI_14oneiros_engine7domains4peer8features4http4list
FNDA:0,_RNvNtNtNtNtCsk2dDpYChjKI_14oneiros_engine7domains4peer8features4http4show
FNDA:0,_RNvNtNtNtNtCsk2dDpYChjKI_14oneiros_engine7domains4peer8features4http6remove
FNF:13
FNH:7
DA:13,304
DA:14,304
DA:15,304
DA:16,304
DA:17,304
DA:18,304
DA:19,304
DA:20,304
DA:21,304
DA:22,304
DA:24,304
DA:25,304
DA:26,304
DA:27,304
DA:30,304
DA:33,0
DA:34,0
DA:35,0
DA:36,0
DA:37,0
DA:38,0
DA:39,0
DA:40,0
DA:42,3
DA:43,3
DA:44,3
DA:45,3
DA:46,3
DA:47,3
DA:49,0
DA:50,0
DA:51,0
DA:52,0
DA:54,0
DA:56,0
DA:58,0
DA:59,0
DA:60,0
DA:61,0
DA:62,0
DA:64,0
DA:65,0
DA:66,0
DA:67,0
DA:68,0
DA:69,0
DA:71,0
BRF:0
BRH:0
LF:55
LH:26
end_of_record
SF:/Users/esmevane/Code/projects/oneiros/crates/oneiros-engine/src/domains/peer/features/projections.rs
FN:13,_RNCNvNtNtNtNtCsk2dDpYChjKI_14oneiros_engine7domains4peer8features11projections11PROJECTIONS0Bb_
FN:15,_RNCNvNtNtNtNtCsk2dDpYChjKI_14oneiros_engine7domains4peer8features11projections11PROJECTIONSs0_0Bb_
FN:14,_RNCNvNtNtNtNtCsk2dDpYChjKI_14oneiros_engine7domains4peer8features11projections11PROJECTIONSs_0Bb_
FN:6,_RNvMNtNtNtNtCsk2dDpYChjKI_14oneiros_engine7domains4peer8features11projectionsNtB2_15PeerProjections3all
FNDA:1848,_RNCNvNtNtNtNtCsk2dDpYChjKI_14oneiros_engine7domains4peer8features11projections11PROJECTIONS0Bb_
FNDA:0,_RNCNvNtNtNtNtCsk2dDpYChjKI_14oneiros_engine7domains4peer8features11projections11PROJECTIONSs0_0Bb_
FNDA:1545,_RNCNvNtNtNtNtCsk2dDpYChjKI_14oneiros_engine7domains4peer8features11projections11PROJECTIONSs_0Bb_
FNDA:1848,_RNvMNtNtNtNtCsk2dDpYChjKI_14oneiros_engine7domains4peer8features11projectionsNtB2_15PeerProjections3all
FNF:4
FNH:3
DA:6,1848
DA:7,1848
DA:8,1848
DA:13,1848
DA:14,1545
DA:15,0
BRF:0
BRH:0
LF:6
LH:5
end_of_record
SF:/Users/esmevane/Code/projects/oneiros/crates/oneiros-engine/src/domains/peer/features/skills.rs
FN:6,_RNvMNtNtNtNtCsk2dDpYChjKI_14oneiros_engine7domains4peer8features6skillsNtB2_10PeerSkills3all
FNDA:12,_RNvMNtNtNtNtCsk2dDpYChjKI_14oneiros_engine7domains4peer8features6skillsNtB2_10PeerSkills3all
FNF:1
FNH:1
DA:6,12
DA:7,12
DA:8,12
DA:9,12
DA:10,12
DA:11,12
DA:13,12
BRF:0
BRH:0
LF:7
LH:7
end_of_record
SF:/Users/esmevane/Code/projects/oneiros/crates/oneiros-engine/src/domains/peer/features/state.rs
FN:6,_RNvMNtNtNtNtCsk2dDpYChjKI_14oneiros_engine7domains4peer8features5stateNtB2_9PeerState6reduce
FN:44,_RNvMNtNtNtNtCsk2dDpYChjKI_14oneiros_engine7domains4peer8features5stateNtB2_9PeerState7reducer
FNDA:1545,_RNvMNtNtNtNtCsk2dDpYChjKI_14oneiros_engine7domains4peer8features5stateNtB2_9PeerState6reduce
FNDA:1848,_RNvMNtNtNtNtCsk2dDpYChjKI_14oneiros_engine7domains4peer8features5stateNtB2_9PeerState7reducer
FNF:2
FNH:2
DA:6,1545
DA:7,1545
DA:8,9
DA:9,9
DA:10,9
DA:11,9
DA:12,9
DA:13,9
DA:14,9
DA:15,9
DA:16,9
DA:17,9
DA:18,9
DA:19,9
DA:21,0
DA:22,0
DA:23,0
DA:24,0
DA:25,0
DA:26,0
DA:27,0
DA:28,0
DA:29,0
DA:30,0
DA:31,0
DA:33,0
DA:34,0
DA:35,0
DA:36,0
DA:39,1536
DA:41,1545
DA:42,1545
DA:44,1848
DA:45,1848
DA:46,1848
BRF:0
BRH:0
LF:35
LH:20
end_of_record
SF:/Users/esmevane/Code/projects/oneiros/crates/oneiros-engine/src/domains/peer/model.rs
FN:30,_RNvXNtNtNtCsk2dDpYChjKI_14oneiros_engine7domains4peer5modelNtB2_4PeerINtNtNtB8_6values12entity_index9IndexableNtB2_6PeerIdE2id
FNDA:9,_RNvXNtNtNtCsk2dDpYChjKI_14oneiros_engine7domains4peer5modelNtB2_4PeerINtNtNtB8_6values12entity_index9IndexableNtB2_6PeerIdE2id
FNF:1
FNH:1
DA:30,9
DA:31,9
DA:32,9
BRF:0
BRH:0
LF:3
LH:3
end_of_record
SF:/Users/esmevane/Code/projects/oneiros/crates/oneiros-engine/src/domains/peer/protocol/errors.rs
FN:40,_RNvXNtNtNtNtCsk2dDpYChjKI_14oneiros_engine7domains4peer8protocol6errorsNtB2_9PeerErrorNtNtNtCs1iC2TOwIRjP_9axum_core8response13into_response12IntoResponse13into_response
FNDA:0,_RNvXNtNtNtNtCsk2dDpYChjKI_14oneiros_engine7domains4peer8protocol6errorsNtB2_9PeerErrorNtNtNtCs1iC2TOwIRjP_9axum_core8response13into_response12IntoResponse13into_response
FNF:1
FNH:0
DA:40,0
DA:41,0
DA:42,0
DA:44,0
DA:47,0
DA:49,0
DA:50,0
DA:51,0
DA:53,0
DA:54,0
BRF:0
BRH:0
LF:10
LH:0
end_of_record
SF:/Users/esmevane/Code/projects/oneiros/crates/oneiros-engine/src/domains/peer/protocol/events.rs
FN:65,_RNvNtNtNtNtNtCsk2dDpYChjKI_14oneiros_engine7domains4peer8protocol6events5testss_27event_types_are_kebab_cased
FNDA:1,_RNvNtNtNtNtNtCsk2dDpYChjKI_14oneiros_engine7domains4peer8protocol6events5testss_27event_types_are_kebab_cased
FNF:1
FNH:1
DA:65,1
DA:66,1
DA:67,1
DA:68,1
DA:69,1
BRF:0
BRH:0
LF:5
LH:5
end_of_record
SF:/Users/esmevane/Code/projects/oneiros/crates/oneiros-engine/src/domains/peer/protocol/requests.rs
FN:23,_RNvXNtNtNtNtCsk2dDpYChjKI_14oneiros_engine7domains4peer8protocol8requestsNtB2_7AddPeerNtNtBa_6client13ClientRequest15execute_request
FN:60,_RNvXs0_NtNtNtNtCsk2dDpYChjKI_14oneiros_engine7domains4peer8protocol8requestsNtB5_10RemovePeerNtNtBd_6client13ClientRequest15execute_request
FN:82,_RNvXs1_NtNtNtNtCsk2dDpYChjKI_14oneiros_engine7domains4peer8protocol8requestsNtB5_9ListPeersNtNtBd_6client13ClientRequest15execute_request
FN:41,_RNvXs_NtNtNtNtCsk2dDpYChjKI_14oneiros_engine7domains4peer8protocol8requestsNtB4_7GetPeerNtNtBc_6client13ClientRequest15execute_request
FN:107,_RNvNtNtNtNtNtCsk2dDpYChjKI_14oneiros_engine7domains4peer8protocol8requests5testss_29request_types_are_kebab_cased
FN:23,_RNCNvXNtNtNtNtCsk2dDpYChjKI_14oneiros_engine7domains4peer8protocol8requestsNtB4_7AddPeerNtNtBc_6client13ClientRequest15execute_request0Bc_
FN:60,_RNCNvXs0_NtNtNtNtCsk2dDpYChjKI_14oneiros_engine7domains4peer8protocol8requestsNtB7_10RemovePeerNtNtBf_6client13ClientRequest15execute_request0Bf_
FN:82,_RNCNvXs1_NtNtNtNtCsk2dDpYChjKI_14oneiros_engine7domains4peer8protocol8requestsNtB7_9ListPeersNtNtBf_6client13ClientRequest15execute_request0Bf_
FN:41,_RNCNvXs_NtNtNtNtCsk2dDpYChjKI_14oneiros_engine7domains4peer8protocol8requestsNtB6_7GetPeerNtNtBe_6client13ClientRequest15execute_request0Be_
FNDA:0,_RNvXNtNtNtNtCsk2dDpYChjKI_14oneiros_engine7domains4peer8protocol8requestsNtB2_7AddPeerNtNtBa_6client13ClientRequest15execute_request
FNDA:0,_RNvXs0_NtNtNtNtCsk2dDpYChjKI_14oneiros_engine7domains4peer8protocol8requestsNtB5_10RemovePeerNtNtBd_6client13ClientRequest15execute_request
FNDA:3,_RNvXs1_NtNtNtNtCsk2dDpYChjKI_14oneiros_engine7domains4peer8protocol8requestsNtB5_9ListPeersNtNtBd_6client13ClientRequest15execute_request
FNDA:0,_RNvXs_NtNtNtNtCsk2dDpYChjKI_14oneiros_engine7domains4peer8protocol8requestsNtB4_7GetPeerNtNtBc_6client13ClientRequest15execute_request
FNDA:1,_RNvNtNtNtNtNtCsk2dDpYChjKI_14oneiros_engine7domains4peer8protocol8requests5testss_29request_types_are_kebab_cased
FNDA:0,_RNCNvXNtNtNtNtCsk2dDpYChjKI_14oneiros_engine7domains4peer8protocol8requestsNtB4_7AddPeerNtNtBc_6client13ClientRequest15execute_request0Bc_
FNDA:0,_RNCNvXs0_NtNtNtNtCsk2dDpYChjKI_14oneiros_engine7domains4peer8protocol8requestsNtB7_10RemovePeerNtNtBf_6client13ClientRequest15execute_request0Bf_
FNDA:3,_RNCNvXs1_NtNtNtNtCsk2dDpYChjKI_14oneiros_engine7domains4peer8protocol8requestsNtB7_9ListPeersNtNtBf_6client13ClientRequest15execute_request0Bf_
FNDA:0,_RNCNvXs_NtNtNtNtCsk2dDpYChjKI_14oneiros_engine7domains4peer8protocol8requestsNtB6_7GetPeerNtNtBe_6client13ClientRequest15execute_request0Be_
FNF:9
FNH:3
DA:23,0
DA:24,0
DA:25,0
DA:41,0
DA:42,0
DA:43,0
DA:44,0
DA:60,0
DA:61,0
DA:62,0
DA:63,0
DA:82,3
DA:83,3
DA:84,3
DA:88,3
DA:89,3
DA:107,1
DA:108,1
DA:109,1
DA:110,1
DA:111,1
DA:112,1
DA:113,1
DA:115,4
DA:116,4
DA:118,1
BRF:0
BRH:0
LF:30
LH:16
end_of_record
SF:/Users/esmevane/Code/projects/oneiros/crates/oneiros-engine/src/domains/peer/repo.rs
FN:28,_RNCNCNvMNtNtNtCsk2dDpYChjKI_14oneiros_engine7domains4peer4repoNtB6_8PeerRepo3get00Bc_
FN:52,_RNCNCNvMNtNtNtCsk2dDpYChjKI_14oneiros_engine7domains4peer4repoNtB6_8PeerRepo4list00Bc_
FN:60,_RNCNCNvMNtNtNtCsk2dDpYChjKI_14oneiros_engine7domains4peer4repoNtB6_8PeerRepo4list0s_0Bc_
FN:20,_RNCNCNvMNtNtNtCsk2dDpYChjKI_14oneiros_engine7domains4peer4repoNtB6_8PeerRepo5fetch00Bc_
FN:23,_RNCNvMNtNtNtCsk2dDpYChjKI_14oneiros_engine7domains4peer4repoNtB4_8PeerRepo3get0Ba_
FN:47,_RNCNvMNtNtNtCsk2dDpYChjKI_14oneiros_engine7domains4peer4repoNtB4_8PeerRepo4list0Ba_
FN:19,_RNCNvMNtNtNtCsk2dDpYChjKI_14oneiros_engine7domains4peer4repoNtB4_8PeerRepo5fetch0Ba_
FN:90,_RNCNvNtNtNtCsk2dDpYChjKI_14oneiros_engine7domains4peer4repo17peer_from_columns0B9_
FN:93,_RNCNvNtNtNtCsk2dDpYChjKI_14oneiros_engine7domains4peer4repo17peer_from_columnss_0B9_
FN:23,_RNvMNtNtNtCsk2dDpYChjKI_14oneiros_engine7domains4peer4repoNtB2_8PeerRepo3get
FN:11,_RNvMNtNtNtCsk2dDpYChjKI_14oneiros_engine7domains4peer4repoNtB2_8PeerRepo3new
FN:47,_RNvMNtNtNtCsk2dDpYChjKI_14oneiros_engine7domains4peer4repoNtB2_8PeerRepo4list
FN:19,_RNvMNtNtNtCsk2dDpYChjKI_14oneiros_engine7domains4peer4repoNtB2_8PeerRepo5fetch
FN:81,_RNvNtNtNtCsk2dDpYChjKI_14oneiros_engine7domains4peer4repo17peer_from_columns
FNDA:0,_RNCNCNvMNtNtNtCsk2dDpYChjKI_14oneiros_engine7domains4peer4repoNtB6_8PeerRepo3get00Bc_
FNDA:13,_RNCNCNvMNtNtNtCsk2dDpYChjKI_14oneiros_engine7domains4peer4repoNtB6_8PeerRepo4list00Bc_
FNDA:2,_RNCNCNvMNtNtNtCsk2dDpYChjKI_14oneiros_engine7domains4peer4repoNtB6_8PeerRepo4list0s_0Bc_
FNDA:0,_RNCNCNvMNtNtNtCsk2dDpYChjKI_14oneiros_engine7domains4peer4repoNtB6_8PeerRepo5fetch00Bc_
FNDA:0,_RNCNvMNtNtNtCsk2dDpYChjKI_14oneiros_engine7domains4peer4repoNtB4_8PeerRepo3get0Ba_
FNDA:13,_RNCNvMNtNtNtCsk2dDpYChjKI_14oneiros_engine7domains4peer4repoNtB4_8PeerRepo4list0Ba_
FNDA:0,_RNCNvMNtNtNtCsk2dDpYChjKI_14oneiros_engine7domains4peer4repoNtB4_8PeerRepo5fetch0Ba_
FNDA:0,_RNCNvNtNtNtCsk2dDpYChjKI_14oneiros_engine7domains4peer4repo17peer_from_columns0B9_
FNDA:0,_RNCNvNtNtNtCsk2dDpYChjKI_14oneiros_engine7domains4peer4repo17peer_from_columnss_0B9_
FNDA:0,_RNvMNtNtNtCsk2dDpYChjKI_14oneiros_engine7domains4peer4repoNtB2_8PeerRepo3get
FNDA:13,_RNvMNtNtNtCsk2dDpYChjKI_14oneiros_engine7domains4peer4repoNtB2_8PeerRepo3new
FNDA:13,_RNvMNtNtNtCsk2dDpYChjKI_14oneiros_engine7domains4peer4repoNtB2_8PeerRepo4list
FNDA:0,_RNvMNtNtNtCsk2dDpYChjKI_14oneiros_engine7domains4peer4repoNtB2_8PeerRepo5fetch
FNDA:2,_RNvNtNtNtCsk2dDpYChjKI_14oneiros_engine7domains4peer4repo17peer_from_columns
FNF:14
FNH:6
DA:11,13
DA:12,13
DA:13,13
DA:19,0
DA:20,0
DA:21,0
DA:23,0
DA:24,0
DA:25,0
DA:26,0
DA:28,0
DA:29,0
DA:30,0
DA:31,0
DA:32,0
DA:33,0
DA:35,0
DA:36,0
DA:38,0
DA:39,0
DA:40,0
DA:42,0
DA:43,0
DA:45,0
DA:47,13
DA:48,13
DA:50,13
DA:51,13
DA:52,13
DA:55,13
DA:56,13
DA:57,13
DA:59,13
DA:60,13
DA:62,2
DA:63,2
DA:64,2
DA:65,2
DA:66,2
DA:68,2
DA:69,13
DA:71,13
DA:73,13
DA:74,2
DA:77,13
DA:78,13
DA:81,2
DA:82,2
DA:83,2
DA:84,2
DA:85,2
DA:86,2
DA:87,2
DA:88,2
DA:89,2
DA:90,2
DA:91,2
DA:92,2
DA:93,2
DA:95,2
DA:96,2
DA:97,2
DA:98,2
DA:99,2
DA:100,2
DA:101,2
DA:102,2
BRF:0
BRH:0
LF:77
LH:49
end_of_record
SF:/Users/esmevane/Code/projects/oneiros/crates/oneiros-engine/src/domains/peer/service.rs
FN:35,_RNCNCNvMNtNtNtCsk2dDpYChjKI_14oneiros_engine7domains4peer7serviceNtB6_11PeerService3add00Bc_
FN:121,_RNCNCNvMNtNtNtCsk2dDpYChjKI_14oneiros_engine7domains4peer7serviceNtB6_11PeerService6ensure00Bc_
FN:30,_RNCNvMNtNtNtCsk2dDpYChjKI_14oneiros_engine7domains4peer7serviceNtB4_11PeerService3add0Ba_
FN:77,_RNCNvMNtNtNtCsk2dDpYChjKI_14oneiros_engine7domains4peer7serviceNtB4_11PeerService3get0Ba_
FN:92,_RNCNvMNtNtNtCsk2dDpYChjKI_14oneiros_engine7domains4peer7serviceNtB4_11PeerService4list0Ba_
FN:115,_RNCNvMNtNtNtCsk2dDpYChjKI_14oneiros_engine7domains4peer7serviceNtB4_11PeerService6ensure0Ba_
FN:154,_RNCNvMNtNtNtCsk2dDpYChjKI_14oneiros_engine7domains4peer7serviceNtB4_11PeerService6remove0Ba_
FN:26,_RNvMNtNtNtCsk2dDpYChjKI_14oneiros_engine7domains4peer7serviceNtB2_11PeerService3add
FN:74,_RNvMNtNtNtCsk2dDpYChjKI_14oneiros_engine7domains4peer7serviceNtB2_11PeerService3get
FN:89,_RNvMNtNtNtCsk2dDpYChjKI_14oneiros_engine7domains4peer7serviceNtB2_11PeerService4list
FN:110,_RNvMNtNtNtCsk2dDpYChjKI_14oneiros_engine7domains4peer7serviceNtB2_11PeerService6ensure
FN:150,_RNvMNtNtNtCsk2dDpYChjKI_14oneiros_engine7domains4peer7serviceNtB2_11PeerService6remove
FN:5,_RNvNtNtNtCsk2dDpYChjKI_14oneiros_engine7domains4peer7service16peer_to_added_v1
FN:15,_RNvNtNtNtCsk2dDpYChjKI_14oneiros_engine7domains4peer7service16peer_to_found_v1
FN:184,_RNvNtNtNtCsk2dDpYChjKI_14oneiros_engine7domains4peer7service17default_peer_name
FNDA:0,_RNCNCNvMNtNtNtCsk2dDpYChjKI_14oneiros_engine7domains4peer7serviceNtB6_11PeerService3add00Bc_
FNDA:0,_RNCNCNvMNtNtNtCsk2dDpYChjKI_14oneiros_engine7domains4peer7serviceNtB6_11PeerService6ensure00Bc_
FNDA:0,_RNCNvMNtNtNtCsk2dDpYChjKI_14oneiros_engine7domains4peer7serviceNtB4_11PeerService3add0Ba_
FNDA:0,_RNCNvMNtNtNtCsk2dDpYChjKI_14oneiros_engine7domains4peer7serviceNtB4_11PeerService3get0Ba_
FNDA:3,_RNCNvMNtNtNtCsk2dDpYChjKI_14oneiros_engine7domains4peer7serviceNtB4_11PeerService4list0Ba_
FNDA:9,_RNCNvMNtNtNtCsk2dDpYChjKI_14oneiros_engine7domains4peer7serviceNtB4_11PeerService6ensure0Ba_
FNDA:0,_RNCNvMNtNtNtCsk2dDpYChjKI_14oneiros_engine7domains4peer7serviceNtB4_11PeerService6remove0Ba_
FNDA:0,_RNvMNtNtNtCsk2dDpYChjKI_14oneiros_engine7domains4peer7serviceNtB2_11PeerService3add
FNDA:0,_RNvMNtNtNtCsk2dDpYChjKI_14oneiros_engine7domains4peer7serviceNtB2_11PeerService3get
FNDA:3,_RNvMNtNtNtCsk2dDpYChjKI_14oneiros_engine7domains4peer7serviceNtB2_11PeerService4list
FNDA:9,_RNvMNtNtNtCsk2dDpYChjKI_14oneiros_engine7domains4peer7serviceNtB2_11PeerService6ensure
FNDA:0,_RNvMNtNtNtCsk2dDpYChjKI_14oneiros_engine7domains4peer7serviceNtB2_11PeerService6remove
FNDA:0,_RNvNtNtNtCsk2dDpYChjKI_14oneiros_engine7domains4peer7service16peer_to_added_v1
FNDA:2,_RNvNtNtNtCsk2dDpYChjKI_14oneiros_engine7domains4peer7service16peer_to_found_v1
FNDA:9,_RNvNtNtNtCsk2dDpYChjKI_14oneiros_engine7domains4peer7service17default_peer_name
FNF:15
FNH:6
DA:5,0
DA:6,0
DA:7,0
DA:8,0
DA:9,0
DA:10,0
DA:11,0
DA:12,0
DA:13,0
DA:15,2
DA:16,2
DA:17,2
DA:18,2
DA:19,2
DA:20,2
DA:21,2
DA:22,2
DA:23,2
DA:26,0
DA:27,0
DA:28,0
DA:29,0
DA:30,0
DA:31,0
DA:32,0
DA:33,0
DA:34,0
DA:35,0
DA:36,0
DA:37,0
DA:39,0
DA:40,0
DA:41,0
DA:44,0
DA:45,0
DA:46,0
DA:47,0
DA:48,0
DA:50,0
DA:51,0
DA:52,0
DA:53,0
DA:54,0
DA:55,0
DA:56,0
DA:58,0
DA:59,0
DA:60,0
DA:62,0
DA:63,0
DA:64,0
DA:65,0
DA:66,0
DA:69,0
DA:70,0
DA:71,0
DA:72,0
DA:74,0
DA:75,0
DA:76,0
DA:77,0
DA:78,0
DA:79,0
DA:80,0
DA:81,0
DA:82,0
DA:83,0
DA:84,0
DA:85,0
DA:86,0
DA:87,0
DA:89,3
DA:90,3
DA:91,3
DA:92,3
DA:93,3
DA:94,3
DA:95,3
DA:96,3
DA:97,3
DA:98,3
DA:99,3
DA:100,3
DA:101,3
DA:102,3
DA:103,3
DA:104,3
DA:105,3
DA:110,9
DA:111,9
DA:112,9
DA:113,9
DA:114,9
DA:115,9
DA:116,9
DA:117,9
DA:118,9
DA:119,9
DA:120,9
DA:121,9
DA:122,0
DA:123,9
DA:125,9
DA:126,9
DA:128,9
DA:129,9
DA:130,9
DA:131,9
DA:132,9
DA:133,9
DA:134,9
DA:136,9
DA:137,9
DA:138,9
DA:140,9
DA:141,9
DA:142,9
DA:143,9
DA:144,9
DA:147,9
DA:148,9
DA:150,0
DA:151,0
DA:152,0
DA:153,0
DA:154,0
DA:155,0
DA:156,0
DA:157,0
DA:158,0
DA:159,0
DA:161,0
DA:162,0
DA:163,0
DA:164,0
DA:165,0
DA:167,0
DA:168,0
DA:169,0
DA:170,0
DA:171,0
DA:174,0
DA:175,0
DA:176,0
DA:177,0
DA:178,0
DA:179,0
DA:180,0
DA:184,9
DA:185,9
DA:186,9
DA:187,9
DA:188,9
BRF:0
BRH:0
LF:160
LH:65
end_of_record
SF:/Users/esmevane/Code/projects/oneiros/crates/oneiros-engine/src/domains/peer/store.rs
FN:64,_RNvMNtNtNtCsk2dDpYChjKI_14oneiros_engine7domains4peer5storeNtB2_9PeerStore13create_record
FN:86,_RNvMNtNtNtCsk2dDpYChjKI_14oneiros_engine7domains4peer5storeNtB2_9PeerStore13delete_record
FN:10,_RNvMNtNtNtCsk2dDpYChjKI_14oneiros_engine7domains4peer5storeNtB2_9PeerStore3new
FN:46,_RNvMNtNtNtCsk2dDpYChjKI_14oneiros_engine7domains4peer5storeNtB2_9PeerStore5reset
FN:14,_RNvMNtNtNtCsk2dDpYChjKI_14oneiros_engine7domains4peer5storeNtB2_9PeerStore6handle
FN:51,_RNvMNtNtNtCsk2dDpYChjKI_14oneiros_engine7domains4peer5storeNtB2_9PeerStore7migrate
FNDA:9,_RNvMNtNtNtCsk2dDpYChjKI_14oneiros_engine7domains4peer5storeNtB2_9PeerStore13create_record
FNDA:0,_RNvMNtNtNtCsk2dDpYChjKI_14oneiros_engine7domains4peer5storeNtB2_9PeerStore13delete_record
FNDA:3393,_RNvMNtNtNtCsk2dDpYChjKI_14oneiros_engine7domains4peer5storeNtB2_9PeerStore3new
FNDA:0,_RNvMNtNtNtCsk2dDpYChjKI_14oneiros_engine7domains4peer5storeNtB2_9PeerStore5reset
FNDA:1545,_RNvMNtNtNtCsk2dDpYChjKI_14oneiros_engine7domains4peer5storeNtB2_9PeerStore6handle
FNDA:1848,_RNvMNtNtNtCsk2dDpYChjKI_14oneiros_engine7domains4peer5storeNtB2_9PeerStore7migrate
FNF:6
FNH:4
DA:10,3393
DA:11,3393
DA:12,3393
DA:14,1545
DA:15,1545
DA:16,9
DA:17,9
DA:18,9
DA:19,9
DA:20,9
DA:21,9
DA:22,9
DA:23,9
DA:24,9
DA:25,0
DA:27,0
DA:28,0
DA:29,0
DA:30,0
DA:31,0
DA:32,0
DA:33,0
DA:34,0
DA:35,0
DA:37,0
DA:38,0
DA:39,0
DA:42,1536
DA:43,1545
DA:44,1545
DA:46,0
DA:47,0
DA:48,0
DA:49,0
DA:51,1848
DA:52,1848
DA:53,1848
DA:54,1848
DA:55,1848
DA:56,1848
DA:57,1848
DA:58,1848
DA:59,1848
DA:60,0
DA:61,1848
DA:62,1848
DA:64,9
DA:65,9
DA:66,9
DA:67,9
DA:68,9
DA:69,9
DA:70,9
DA:71,9
DA:72,9
DA:73,9
DA:74,9
DA:75,9
DA:76,9
DA:77,9
DA:78,9
DA:79,9
DA:80,9
DA:82,0
DA:83,9
DA:84,9
DA:86,0
DA:87,0
DA:88,0
DA:89,0
DA:90,0
BRF:0
BRH:0
LF:71
LH:47
end_of_record
SF:/Users/esmevane/Code/projects/oneiros/crates/oneiros-engine/src/domains/peer/view.rs
FN:8,_RNvMNtNtNtCsk2dDpYChjKI_14oneiros_engine7domains4peer4viewNtB2_8PeerView3new
FN:12,_RNvMNtNtNtCsk2dDpYChjKI_14oneiros_engine7domains4peer4viewNtB2_8PeerView6render
FNDA:3,_RNvMNtNtNtCsk2dDpYChjKI_14oneiros_engine7domains4peer4viewNtB2_8PeerView3new
FNDA:3,_RNvMNtNtNtCsk2dDpYChjKI_14oneiros_engine7domains4peer4viewNtB2_8PeerView6render
FNF:2
FNH:2
DA:8,3
DA:9,3
DA:10,3
DA:12,3
DA:13,3
DA:14,0
DA:15,0
DA:16,0
DA:17,0
DA:18,0
DA:19,0
DA:22,0
DA:23,0
DA:24,0
DA:25,0
DA:26,0
DA:27,0
DA:28,0
DA:29,0
DA:30,0
DA:31,0
DA:32,0
DA:35,3
DA:36,3
DA:37,3
DA:38,3
DA:39,3
DA:41,3
DA:42,2
DA:43,2
DA:44,2
DA:45,2
DA:46,2
DA:47,2
DA:48,2
DA:49,2
DA:50,3
DA:52,3
DA:54,3
DA:55,3
DA:56,3
DA:57,3
DA:60,0
DA:61,0
DA:62,0
DA:63,0
DA:64,0
DA:65,0
DA:69,3
BRF:0
BRH:0
LF:49
LH:26
end_of_record
SF:/Users/esmevane/Code/projects/oneiros/crates/oneiros-engine/src/domains/persona/docs.rs
FN:18,_RNvMNtNtNtCsk2dDpYChjKI_14oneiros_engine7domains7persona4docsNtB2_11PersonaDocs13resource_docs
FN:11,_RNvMNtNtNtCsk2dDpYChjKI_14oneiros_engine7domains7persona4docsNtB2_11PersonaDocs3tag
FNDA:1216,_RNvMNtNtNtCsk2dDpYChjKI_14oneiros_engine7domains7persona4docsNtB2_11PersonaDocs13resource_docs
FNDA:1520,_RNvMNtNtNtCsk2dDpYChjKI_14oneiros_engine7domains7persona4docsNtB2_11PersonaDocs3tag
FNF:2
FNH:2
DA:11,1520
DA:12,1520
DA:13,1520
DA:14,1520
DA:15,1520
DA:16,1520
DA:18,1216
DA:19,1216
DA:20,1216
DA:21,304
DA:22,304
DA:23,304
DA:24,304
DA:25,304
DA:26,304
DA:27,304
DA:28,304
DA:29,304
DA:30,304
DA:31,304
DA:32,304
DA:33,304
DA:34,304
DA:35,304
DA:36,304
DA:37,304
DA:38,304
DA:39,304
DA:40,304
DA:41,304
DA:42,304
DA:43,304
DA:44,304
DA:46,1216
BRF:0
BRH:0
LF:34
LH:34
end_of_record
SF:/Users/esmevane/Code/projects/oneiros/crates/oneiros-engine/src/domains/persona/features/cli.rs
FN:22,_RNCNvMNtNtNtNtCsk2dDpYChjKI_14oneiros_engine7domains7persona8features3cliNtB4_15PersonaCommands7execute0Bc_
FN:19,_RNvMNtNtNtNtCsk2dDpYChjKI_14oneiros_engine7domains7persona8features3cliNtB2_15PersonaCommands7execute
FNDA:112,_RNCNvMNtNtNtNtCsk2dDpYChjKI_14oneiros_engine7domains7persona8features3cliNtB4_15PersonaCommands7execute0Bc_
FNDA:112,_RNvMNtNtNtNtCsk2dDpYChjKI_14oneiros_engine7domains7persona8features3cliNtB2_15PersonaCommands7execute
FNF:2
FNH:2
DA:19,112
DA:20,112
DA:21,112
DA:22,112
DA:23,112
DA:25,112
DA:26,88
DA:27,18
DA:28,4
DA:29,2
DA:32,111
DA:33,111
DA:34,112
BRF:0
BRH:0
LF:14
LH:14
end_of_record
SF:/Users/esmevane/Code/projects/oneiros/crates/oneiros-engine/src/domains/persona/features/http.rs
FN:19,_RNCNvMNtNtNtNtCsk2dDpYChjKI_14oneiros_engine7domains7persona8features4httpNtB4_13PersonaRouter6routes0Bc_
FN:30,_RNCNvMNtNtNtNtCsk2dDpYChjKI_14oneiros_engine7domains7persona8features4httpNtB4_13PersonaRouter6routess0_0Bc_
FN:33,_RNCNvMNtNtNtNtCsk2dDpYChjKI_14oneiros_engine7domains7persona8features4httpNtB4_13PersonaRouter6routess1_0Bc_
FN:25,_RNCNvMNtNtNtNtCsk2dDpYChjKI_14oneiros_engine7domains7persona8features4httpNtB4_13PersonaRouter6routess_0Bc_
FN:46,_RNCNvNtNtNtNtCsk2dDpYChjKI_14oneiros_engine7domains7persona8features4http3set0Bb_
FN:59,_RNCNvNtNtNtNtCsk2dDpYChjKI_14oneiros_engine7domains7persona8features4http4list0Bb_
FN:66,_RNCNvNtNtNtNtCsk2dDpYChjKI_14oneiros_engine7domains7persona8features4http4show0Bb_
FN:76,_RNCNvNtNtNtNtCsk2dDpYChjKI_14oneiros_engine7domains7persona8features4http6remove0Bb_
FN:13,_RNvMNtNtNtNtCsk2dDpYChjKI_14oneiros_engine7domains7persona8features4httpNtB2_13PersonaRouter6routes
FN:41,_RNvNtNtNtNtCsk2dDpYChjKI_14oneiros_engine7domains7persona8features4http3set
FN:56,_RNvNtNtNtNtCsk2dDpYChjKI_14oneiros_engine7domains7persona8features4http4list
FN:63,_RNvNtNtNtNtCsk2dDpYChjKI_14oneiros_engine7domains7persona8features4http4show
FN:72,_RNvNtNtNtNtCsk2dDpYChjKI_14oneiros_engine7domains7persona8features4http6remove
FNDA:304,_RNCNvMNtNtNtNtCsk2dDpYChjKI_14oneiros_engine7domains7persona8features4httpNtB4_13PersonaRouter6routes0Bc_
FNDA:304,_RNCNvMNtNtNtNtCsk2dDpYChjKI_14oneiros_engine7domains7persona8features4httpNtB4_13PersonaRouter6routess0_0Bc_
FNDA:304,_RNCNvMNtNtNtNtCsk2dDpYChjKI_14oneiros_engine7domains7persona8features4httpNtB4_13PersonaRouter6routess1_0Bc_
FNDA:304,_RNCNvMNtNtNtNtCsk2dDpYChjKI_14oneiros_engine7domains7persona8features4httpNtB4_13PersonaRouter6routess_0Bc_
FNDA:90,_RNCNvNtNtNtNtCsk2dDpYChjKI_14oneiros_engine7domains7persona8features4http3set0Bb_
FNDA:5,_RNCNvNtNtNtNtCsk2dDpYChjKI_14oneiros_engine7domains7persona8features4http4list0Bb_
FNDA:22,_RNCNvNtNtNtNtCsk2dDpYChjKI_14oneiros_engine7domains7persona8features4http4show0Bb_
FNDA:2,_RNCNvNtNtNtNtCsk2dDpYChjKI_14oneiros_engine7domains7persona8features4http6remove0Bb_
FNDA:304,_RNvMNtNtNtNtCsk2dDpYChjKI_14oneiros_engine7domains7persona8features4httpNtB2_13PersonaRouter6routes
FNDA:90,_RNvNtNtNtNtCsk2dDpYChjKI_14oneiros_engine7domains7persona8features4http3set
FNDA:5,_RNvNtNtNtNtCsk2dDpYChjKI_14oneiros_engine7domains7persona8features4http4list
FNDA:22,_RNvNtNtNtNtCsk2dDpYChjKI_14oneiros_engine7domains7persona8features4http4show
FNDA:2,_RNvNtNtNtNtCsk2dDpYChjKI_14oneiros_engine7domains7persona8features4http6remove
FNF:13
FNH:13
DA:13,304
DA:14,304
DA:15,304
DA:16,304
DA:17,304
DA:18,304
DA:19,304
DA:20,304
DA:21,304
DA:23,304
DA:24,304
DA:25,304
DA:26,304
DA:27,304
DA:28,304
DA:29,304
DA:30,304
DA:31,304
DA:32,304
DA:33,304
DA:34,304
DA:35,304
DA:38,304
DA:41,90
DA:42,90
DA:43,90
DA:44,90
DA:45,90
DA:46,90
DA:47,90
DA:48,90
DA:49,90
DA:52,90
DA:54,90
DA:56,5
DA:57,5
DA:58,5
DA:59,5
DA:60,5
DA:61,5
DA:63,22
DA:64,22
DA:65,22
DA:66,22
DA:68,22
DA:70,22
DA:72,2
DA:73,2
DA:74,2
DA:75,2
DA:76,2
DA:78,2
DA:79,2
DA:80,2
DA:81,2
DA:82,2
DA:83,2
DA:85,2
BRF:0
BRH:0
LF:66
LH:66
end_of_record
SF:/Users/esmevane/Code/projects/oneiros/crates/oneiros-engine/src/domains/persona/features/mcp.rs
FN:10,_RNvMNtNtNtNtCsk2dDpYChjKI_14oneiros_engine7domains7persona8features3mcpNtB2_10PersonaMcp8resource
FN:6,_RNvMNtNtNtNtCsk2dDpYChjKI_14oneiros_engine7domains7persona8features3mcpNtB2_10PersonaMcp9resources
FN:23,_RNvNtNtNtNtNtCsk2dDpYChjKI_14oneiros_engine7domains7persona8features3mcp11persona_mcp8resource
FN:14,_RNCNvMNtNtNtNtCsk2dDpYChjKI_14oneiros_engine7domains7persona8features3mcpNtB4_10PersonaMcp8resource0Bc_
FN:26,_RNCNvNtNtNtNtNtCsk2dDpYChjKI_14oneiros_engine7domains7persona8features3mcp11persona_mcp8resource0Bd_
FNDA:0,_RNvMNtNtNtNtCsk2dDpYChjKI_14oneiros_engine7domains7persona8features3mcpNtB2_10PersonaMcp8resource
FNDA:1,_RNvMNtNtNtNtCsk2dDpYChjKI_14oneiros_engine7domains7persona8features3mcpNtB2_10PersonaMcp9resources
FNDA:0,_RNvNtNtNtNtNtCsk2dDpYChjKI_14oneiros_engine7domains7persona8features3mcp11persona_mcp8resource
FNDA:0,_RNCNvMNtNtNtNtCsk2dDpYChjKI_14oneiros_engine7domains7persona8features3mcpNtB4_10PersonaMcp8resource0Bc_
FNDA:0,_RNCNvNtNtNtNtNtCsk2dDpYChjKI_14oneiros_engine7domains7persona8features3mcp11persona_mcp8resource0Bd_
FNF:5
FNH:1
DA:6,1
DA:7,1
DA:8,1
DA:10,0
DA:11,0
DA:12,0
DA:13,0
DA:14,0
DA:15,0
DA:16,0
DA:17,0
DA:23,0
DA:24,0
DA:25,0
DA:26,0
DA:27,0
DA:28,0
DA:29,0
DA:30,0
DA:31,0
DA:32,0
DA:34,0
DA:35,0
DA:36,0
DA:38,0
DA:39,0
DA:40,0
DA:42,0
BRF:0
BRH:0
LF:30
LH:3
end_of_record
SF:/Users/esmevane/Code/projects/oneiros/crates/oneiros-engine/src/domains/persona/features/projections.rs
FN:6,_RNvMNtNtNtNtCsk2dDpYChjKI_14oneiros_engine7domains7persona8features11projectionsNtB2_18PersonaProjections3all
FN:13,_RNCNvNtNtNtNtCsk2dDpYChjKI_14oneiros_engine7domains7persona8features11projections11PROJECTIONS0Bb_
FN:15,_RNCNvNtNtNtNtCsk2dDpYChjKI_14oneiros_engine7domains7persona8features11projections11PROJECTIONSs0_0Bb_
FN:14,_RNCNvNtNtNtNtCsk2dDpYChjKI_14oneiros_engine7domains7persona8features11projections11PROJECTIONSs_0Bb_
FNDA:5825,_RNvMNtNtNtNtCsk2dDpYChjKI_14oneiros_engine7domains7persona8features11projectionsNtB2_18PersonaProjections3all
FNDA:574,_RNCNvNtNtNtNtCsk2dDpYChjKI_14oneiros_engine7domains7persona8features11projections11PROJECTIONS0Bb_
FNDA:288,_RNCNvNtNtNtNtCsk2dDpYChjKI_14oneiros_engine7domains7persona8features11projections11PROJECTIONSs0_0Bb_
FNDA:7005,_RNCNvNtNtNtNtCsk2dDpYChjKI_14oneiros_engine7domains7persona8features11projections11PROJECTIONSs_0Bb_
FNF:4
FNH:4
DA:6,5825
DA:7,5825
DA:8,5825
DA:13,574
DA:14,7005
DA:15,288
BRF:0
BRH:0
LF:6
LH:6
end_of_record
SF:/Users/esmevane/Code/projects/oneiros/crates/oneiros-engine/src/domains/persona/features/skills.rs
FN:6,_RNvMNtNtNtNtCsk2dDpYChjKI_14oneiros_engine7domains7persona8features6skillsNtB2_13PersonaSkills3all
FNDA:12,_RNvMNtNtNtNtCsk2dDpYChjKI_14oneiros_engine7domains7persona8features6skillsNtB2_13PersonaSkills3all
FNF:1
FNH:1
DA:6,12
DA:7,12
DA:8,12
DA:9,12
DA:10,12
DA:11,12
DA:13,12
BRF:0
BRH:0
LF:7
LH:7
end_of_record
SF:/Users/esmevane/Code/projects/oneiros/crates/oneiros-engine/src/domains/persona/features/state.rs
FN:6,_RNvMNtNtNtNtCsk2dDpYChjKI_14oneiros_engine7domains7persona8features5stateNtB2_12PersonaState6reduce
FN:25,_RNvMNtNtNtNtCsk2dDpYChjKI_14oneiros_engine7domains7persona8features5stateNtB2_12PersonaState7reducer
FNDA:7005,_RNvMNtNtNtNtCsk2dDpYChjKI_14oneiros_engine7domains7persona8features5stateNtB2_12PersonaState6reduce
FNDA:580,_RNvMNtNtNtNtCsk2dDpYChjKI_14oneiros_engine7domains7persona8features5stateNtB2_12PersonaState7reducer
FNF:2
FNH:2
DA:6,7005
DA:7,7005
DA:8,675
DA:9,673
DA:10,673
DA:11,673
DA:12,673
DA:14,2
DA:15,2
DA:16,2
DA:17,2
DA:20,6330
DA:22,7005
DA:23,7005
DA:25,580
DA:26,580
DA:27,580
BRF:0
BRH:0
LF:17
LH:17
end_of_record
SF:/Users/esmevane/Code/projects/oneiros/crates/oneiros-engine/src/domains/persona/model.rs
FN:18,_RNvXNtNtNtCsk2dDpYChjKI_14oneiros_engine7domains7persona5modelNtB2_7PersonaINtNtNtB8_6values12entity_index9IndexableNtB2_11PersonaNameE2id
FNDA:673,_RNvXNtNtNtCsk2dDpYChjKI_14oneiros_engine7domains7persona5modelNtB2_7PersonaINtNtNtB8_6values12entity_index9IndexableNtB2_11PersonaNameE2id
FNF:1
FNH:1
DA:18,673
DA:19,673
DA:20,673
BRF:0
BRH:0
LF:3
LH:3
end_of_record
SF:/Users/esmevane/Code/projects/oneiros/crates/oneiros-engine/src/domains/persona/protocol/errors.rs
FN:36,_RNvXNtNtNtNtCsk2dDpYChjKI_14oneiros_engine7domains7persona8protocol6errorsNtB2_12PersonaErrorNtNtNtCs1iC2TOwIRjP_9axum_core8response13into_response12IntoResponse13into_response
FNDA:2,_RNvXNtNtNtNtCsk2dDpYChjKI_14oneiros_engine7domains7persona8protocol6errorsNtB2_12PersonaErrorNtNtNtCs1iC2TOwIRjP_9axum_core8response13into_response12IntoResponse13into_response
FNF:1
FNH:1
DA:36,2
DA:37,2
DA:38,2
DA:39,0
DA:41,0
DA:43,0
DA:44,0
DA:45,0
DA:47,2
DA:48,2
BRF:0
BRH:0
LF:10
LH:5
end_of_record
SF:/Users/esmevane/Code/projects/oneiros/crates/oneiros-engine/src/domains/persona/protocol/events.rs
FN:34,_RNvNtNtNtNtNtCsk2dDpYChjKI_14oneiros_engine7domains7persona8protocol6events5tests14sample_persona
FN:43,_RNvNtNtNtNtNtCsk2dDpYChjKI_14oneiros_engine7domains7persona8protocol6events5testss_27event_types_are_kebab_cased
FN:54,_RNvNtNtNtNtNtCsk2dDpYChjKI_14oneiros_engine7domains7persona8protocol6events5testss_31persona_set_wire_format_is_flat
FN:74,_RNvNtNtNtNtNtCsk2dDpYChjKI_14oneiros_engine7domains7persona8protocol6events5testss_44persona_removed_round_trips_through_v1_layer
FNDA:1,_RNvNtNtNtNtNtCsk2dDpYChjKI_14oneiros_engine7domains7persona8protocol6events5tests14sample_persona
FNDA:1,_RNvNtNtNtNtNtCsk2dDpYChjKI_14oneiros_engine7domains7persona8protocol6events5testss_27event_types_are_kebab_cased
FNDA:1,_RNvNtNtNtNtNtCsk2dDpYChjKI_14oneiros_engine7domains7persona8protocol6events5testss_31persona_set_wire_format_is_flat
FNDA:1,_RNvNtNtNtNtNtCsk2dDpYChjKI_14oneiros_engine7domains7persona8protocol6events5testss_44persona_removed_round_trips_through_v1_layer
FNF:4
FNH:4
DA:34,1
DA:35,1
DA:36,1
DA:37,1
DA:38,1
DA:39,1
DA:40,1
DA:43,1
DA:44,1
DA:45,1
DA:46,1
DA:47,1
DA:48,2
DA:49,2
DA:51,1
DA:54,1
DA:55,1
DA:56,1
DA:57,1
DA:59,1
DA:60,1
DA:61,1
DA:62,1
DA:65,1
DA:66,1
DA:67,1
DA:68,1
DA:71,1
DA:74,1
DA:75,1
DA:76,1
DA:77,1
DA:79,1
DA:80,1
DA:82,1
DA:83,1
DA:84,1
DA:85,1
DA:87,0
DA:89,1
BRF:0
BRH:0
LF:40
LH:39
end_of_record
SF:/Users/esmevane/Code/projects/oneiros/crates/oneiros-engine/src/domains/persona/protocol/requests.rs
FN:26,_RNCNvXNtNtNtNtCsk2dDpYChjKI_14oneiros_engine7domains7persona8protocol8requestsNtB4_10SetPersonaNtNtBc_6client13ClientRequest15execute_request0Bc_
FN:66,_RNCNvXs0_NtNtNtNtCsk2dDpYChjKI_14oneiros_engine7domains7persona8protocol8requestsNtB7_13RemovePersonaNtNtBf_6client13ClientRequest15execute_request0Bf_
FN:88,_RNCNvXs1_NtNtNtNtCsk2dDpYChjKI_14oneiros_engine7domains7persona8protocol8requestsNtB7_12ListPersonasNtNtBf_6client13ClientRequest15execute_request0Bf_
FN:47,_RNCNvXs_NtNtNtNtCsk2dDpYChjKI_14oneiros_engine7domains7persona8protocol8requestsNtB6_10GetPersonaNtNtBe_6client13ClientRequest15execute_request0Be_
FN:113,_RNvNtNtNtNtNtCsk2dDpYChjKI_14oneiros_engine7domains7persona8protocol8requests5testss_29request_types_are_kebab_cased
FN:26,_RNvXNtNtNtNtCsk2dDpYChjKI_14oneiros_engine7domains7persona8protocol8requestsNtB2_10SetPersonaNtNtBa_6client13ClientRequest15execute_request
FN:66,_RNvXs0_NtNtNtNtCsk2dDpYChjKI_14oneiros_engine7domains7persona8protocol8requestsNtB5_13RemovePersonaNtNtBd_6client13ClientRequest15execute_request
FN:88,_RNvXs1_NtNtNtNtCsk2dDpYChjKI_14oneiros_engine7domains7persona8protocol8requestsNtB5_12ListPersonasNtNtBd_6client13ClientRequest15execute_request
FN:47,_RNvXs_NtNtNtNtCsk2dDpYChjKI_14oneiros_engine7domains7persona8protocol8requestsNtB4_10GetPersonaNtNtBc_6client13ClientRequest15execute_request
FNDA:90,_RNCNvXNtNtNtNtCsk2dDpYChjKI_14oneiros_engine7domains7persona8protocol8requestsNtB4_10SetPersonaNtNtBc_6client13ClientRequest15execute_request0Bc_
FNDA:2,_RNCNvXs0_NtNtNtNtCsk2dDpYChjKI_14oneiros_engine7domains7persona8protocol8requestsNtB7_13RemovePersonaNtNtBf_6client13ClientRequest15execute_request0Bf_
FNDA:5,_RNCNvXs1_NtNtNtNtCsk2dDpYChjKI_14oneiros_engine7domains7persona8protocol8requestsNtB7_12ListPersonasNtNtBf_6client13ClientRequest15execute_request0Bf_
FNDA:22,_RNCNvXs_NtNtNtNtCsk2dDpYChjKI_14oneiros_engine7domains7persona8protocol8requestsNtB6_10GetPersonaNtNtBe_6client13ClientRequest15execute_request0Be_
FNDA:1,_RNvNtNtNtNtNtCsk2dDpYChjKI_14oneiros_engine7domains7persona8protocol8requests5testss_29request_types_are_kebab_cased
FNDA:90,_RNvXNtNtNtNtCsk2dDpYChjKI_14oneiros_engine7domains7persona8protocol8requestsNtB2_10SetPersonaNtNtBa_6client13ClientRequest15execute_request
FNDA:2,_RNvXs0_NtNtNtNtCsk2dDpYChjKI_14oneiros_engine7domains7persona8protocol8requestsNtB5_13RemovePersonaNtNtBd_6client13ClientRequest15execute_request
FNDA:5,_RNvXs1_NtNtNtNtCsk2dDpYChjKI_14oneiros_engine7domains7persona8protocol8requestsNtB5_12ListPersonasNtNtBd_6client13ClientRequest15execute_request
FNDA:22,_RNvXs_NtNtNtNtCsk2dDpYChjKI_14oneiros_engine7domains7persona8protocol8requestsNtB4_10GetPersonaNtNtBc_6client13ClientRequest15execute_request
FNF:9
FNH:9
DA:26,90
DA:27,90
DA:28,90
DA:29,90
DA:30,90
DA:31,90
DA:47,22
DA:48,22
DA:49,22
DA:50,22
DA:66,2
DA:67,2
DA:68,2
DA:69,2
DA:88,5
DA:89,5
DA:90,5
DA:94,5
DA:95,5
DA:113,1
DA:114,1
DA:115,1
DA:116,1
DA:117,1
DA:118,1
DA:119,1
DA:121,4
DA:122,4
DA:124,1
BRF:0
BRH:0
LF:33
LH:33
end_of_record
SF:/Users/esmevane/Code/projects/oneiros/crates/oneiros-engine/src/domains/persona/repo.rs
FN:22,_RNvMNtNtNtCsk2dDpYChjKI_14oneiros_engine7domains7persona4repoNtB2_11PersonaRepo3get
FN:10,_RNvMNtNtNtCsk2dDpYChjKI_14oneiros_engine7domains7persona4repoNtB2_11PersonaRepo3new
FN:48,_RNvMNtNtNtCsk2dDpYChjKI_14oneiros_engine7domains7persona4repoNtB2_11PersonaRepo4list
FN:18,_RNvMNtNtNtCsk2dDpYChjKI_14oneiros_engine7domains7persona4repoNtB2_11PersonaRepo5fetch
FN:27,_RNCNCNvMNtNtNtCsk2dDpYChjKI_14oneiros_engine7domains7persona4repoNtB6_11PersonaRepo3get00Bc_
FN:56,_RNCNCNvMNtNtNtCsk2dDpYChjKI_14oneiros_engine7domains7persona4repoNtB6_11PersonaRepo4list00Bc_
FN:73,_RNCNCNvMNtNtNtCsk2dDpYChjKI_14oneiros_engine7domains7persona4repoNtB6_11PersonaRepo4list0s0_0Bc_
FN:64,_RNCNCNvMNtNtNtCsk2dDpYChjKI_14oneiros_engine7domains7persona4repoNtB6_11PersonaRepo4list0s_0Bc_
FN:19,_RNCNCNvMNtNtNtCsk2dDpYChjKI_14oneiros_engine7domains7persona4repoNtB6_11PersonaRepo5fetch00Bc_
FN:22,_RNCNvMNtNtNtCsk2dDpYChjKI_14oneiros_engine7domains7persona4repoNtB4_11PersonaRepo3get0Ba_
FN:51,_RNCNvMNtNtNtCsk2dDpYChjKI_14oneiros_engine7domains7persona4repoNtB4_11PersonaRepo4list0Ba_
FN:18,_RNCNvMNtNtNtCsk2dDpYChjKI_14oneiros_engine7domains7persona4repoNtB4_11PersonaRepo5fetch0Ba_
FNDA:1158,_RNvMNtNtNtCsk2dDpYChjKI_14oneiros_engine7domains7persona4repoNtB2_11PersonaRepo3get
FNDA:660,_RNvMNtNtNtCsk2dDpYChjKI_14oneiros_engine7domains7persona4repoNtB2_11PersonaRepo3new
FNDA:7,_RNvMNtNtNtCsk2dDpYChjKI_14oneiros_engine7domains7persona4repoNtB2_11PersonaRepo4list
FNDA:649,_RNvMNtNtNtCsk2dDpYChjKI_14oneiros_engine7domains7persona4repoNtB2_11PersonaRepo5fetch
FNDA:646,_RNCNCNvMNtNtNtCsk2dDpYChjKI_14oneiros_engine7domains7persona4repoNtB6_11PersonaRepo3get00Bc_
FNDA:7,_RNCNCNvMNtNtNtCsk2dDpYChjKI_14oneiros_engine7domains7persona4repoNtB6_11PersonaRepo4list00Bc_
FNDA:12,_RNCNCNvMNtNtNtCsk2dDpYChjKI_14oneiros_engine7domains7persona4repoNtB6_11PersonaRepo4list0s0_0Bc_
FNDA:12,_RNCNCNvMNtNtNtCsk2dDpYChjKI_14oneiros_engine7domains7persona4repoNtB6_11PersonaRepo4list0s_0Bc_
FNDA:1154,_RNCNCNvMNtNtNtCsk2dDpYChjKI_14oneiros_engine7domains7persona4repoNtB6_11PersonaRepo5fetch00Bc_
FNDA:1158,_RNCNvMNtNtNtCsk2dDpYChjKI_14oneiros_engine7domains7persona4repoNtB4_11PersonaRepo3get0Ba_
FNDA:7,_RNCNvMNtNtNtCsk2dDpYChjKI_14oneiros_engine7domains7persona4repoNtB4_11PersonaRepo4list0Ba_
FNDA:649,_RNCNvMNtNtNtCsk2dDpYChjKI_14oneiros_engine7domains7persona4repoNtB4_11PersonaRepo5fetch0Ba_
FNF:12
FNH:12
DA:10,660
DA:11,660
DA:12,660
DA:18,649
DA:19,1154
DA:20,649
DA:22,1158
DA:23,1158
DA:24,1158
DA:25,1158
DA:27,1158
DA:29,646
DA:30,646
DA:31,646
DA:33,646
DA:35,512
DA:36,646
DA:37,646
DA:38,646
DA:39,646
DA:40,646
DA:41,646
DA:42,646
DA:43,512
DA:44,0
DA:46,1158
DA:48,7
DA:49,7
DA:50,7
DA:51,7
DA:52,7
DA:54,7
DA:55,7
DA:56,7
DA:59,7
DA:60,7
DA:61,7
DA:63,7
DA:64,12
DA:66,12
DA:67,12
DA:68,12
DA:70,12
DA:71,7
DA:72,7
DA:73,12
DA:74,12
DA:75,12
DA:76,12
DA:77,12
DA:78,12
DA:79,12
DA:80,7
DA:82,7
DA:83,7
BRF:0
BRH:0
LF:64
LH:62
end_of_record
SF:/Users/esmevane/Code/projects/oneiros/crates/oneiros-engine/src/domains/persona/service.rs
FN:45,_RNvMNtNtNtCsk2dDpYChjKI_14oneiros_engine7domains7persona7serviceNtB2_14PersonaService3get
FN:6,_RNvMNtNtNtCsk2dDpYChjKI_14oneiros_engine7domains7persona7serviceNtB2_14PersonaService3set
FN:63,_RNvMNtNtNtCsk2dDpYChjKI_14oneiros_engine7domains7persona7serviceNtB2_14PersonaService4list
FN:82,_RNvMNtNtNtCsk2dDpYChjKI_14oneiros_engine7domains7persona7serviceNtB2_14PersonaService6remove
FN:109,_RNCNCNCNvMNtNtNtCsk2dDpYChjKI_14oneiros_engine7domains7persona7serviceNtB8_14PersonaService6remove000Be_
FN:109,_RNCNCNvMNtNtNtCsk2dDpYChjKI_14oneiros_engine7domains7persona7serviceNtB6_14PersonaService6remove00Bc_
FN:48,_RNCNvMNtNtNtCsk2dDpYChjKI_14oneiros_engine7domains7persona7serviceNtB4_14PersonaService3get0Ba_
FN:10,_RNCNvMNtNtNtCsk2dDpYChjKI_14oneiros_engine7domains7persona7serviceNtB4_14PersonaService3set0Ba_
FN:66,_RNCNvMNtNtNtCsk2dDpYChjKI_14oneiros_engine7domains7persona7serviceNtB4_14PersonaService4list0Ba_
FN:86,_RNCNvMNtNtNtCsk2dDpYChjKI_14oneiros_engine7domains7persona7serviceNtB4_14PersonaService6remove0Ba_
FNDA:22,_RNvMNtNtNtCsk2dDpYChjKI_14oneiros_engine7domains7persona7serviceNtB2_14PersonaService3get
FNDA:438,_RNvMNtNtNtCsk2dDpYChjKI_14oneiros_engine7domains7persona7serviceNtB2_14PersonaService3set
FNDA:5,_RNvMNtNtNtCsk2dDpYChjKI_14oneiros_engine7domains7persona7serviceNtB2_14PersonaService4list
FNDA:2,_RNvMNtNtNtCsk2dDpYChjKI_14oneiros_engine7domains7persona7serviceNtB2_14PersonaService6remove
FNDA:4,_RNCNCNCNvMNtNtNtCsk2dDpYChjKI_14oneiros_engine7domains7persona7serviceNtB8_14PersonaService6remove000Be_
FNDA:4,_RNCNCNvMNtNtNtCsk2dDpYChjKI_14oneiros_engine7domains7persona7serviceNtB6_14PersonaService6remove00Bc_
FNDA:22,_RNCNvMNtNtNtCsk2dDpYChjKI_14oneiros_engine7domains7persona7serviceNtB4_14PersonaService3get0Ba_
FNDA:438,_RNCNvMNtNtNtCsk2dDpYChjKI_14oneiros_engine7domains7persona7serviceNtB4_14PersonaService3set0Ba_
FNDA:5,_RNCNvMNtNtNtCsk2dDpYChjKI_14oneiros_engine7domains7persona7serviceNtB4_14PersonaService4list0Ba_
FNDA:2,_RNCNvMNtNtNtCsk2dDpYChjKI_14oneiros_engine7domains7persona7serviceNtB4_14PersonaService6remove0Ba_
FNF:10
FNH:10
DA:6,438
DA:7,438
DA:8,438
DA:9,438
DA:10,438
DA:11,438
DA:12,438
DA:13,438
DA:14,438
DA:15,438
DA:16,438
DA:17,438
DA:19,438
DA:20,438
DA:21,438
DA:22,438
DA:23,438
DA:25,438
DA:26,438
DA:27,438
DA:28,438
DA:29,438
DA:32,438
DA:33,438
DA:34,438
DA:35,438
DA:37,438
DA:38,438
DA:39,438
DA:40,438
DA:41,438
DA:42,438
DA:43,438
DA:45,22
DA:46,22
DA:47,22
DA:48,22
DA:49,22
DA:50,22
DA:51,22
DA:52,22
DA:53,22
DA:54,22
DA:55,20
DA:56,20
DA:57,20
DA:58,20
DA:59,20
DA:60,20
DA:61,22
DA:63,5
DA:64,5
DA:65,5
DA:66,5
DA:67,5
DA:68,5
DA:69,5
DA:70,2
DA:72,3
DA:73,3
DA:74,3
DA:75,3
DA:76,3
DA:77,3
DA:78,3
DA:80,5
DA:82,2
DA:83,2
DA:84,2
DA:85,2
DA:86,2
DA:87,2
DA:88,2
DA:90,2
DA:91,2
DA:92,2
DA:93,2
DA:94,2
DA:95,2
DA:96,2
DA:97,2
DA:99,2
DA:100,2
DA:101,2
DA:102,2
DA:103,2
DA:106,2
DA:107,2
DA:108,2
DA:109,8
DA:110,2
DA:112,2
DA:113,2
DA:114,2
DA:115,2
DA:116,2
DA:117,2
DA:118,2
BRF:0
BRH:0
LF:104
LH:104
end_of_record
SF:/Users/esmevane/Code/projects/oneiros/crates/oneiros-engine/src/domains/persona/store.rs
FN:81,_RNvMNtNtNtCsk2dDpYChjKI_14oneiros_engine7domains7persona5storeNtB2_12PersonaStore13write_persona
FN:41,_RNvMNtNtNtCsk2dDpYChjKI_14oneiros_engine7domains7persona5storeNtB2_12PersonaStore3get
FN:11,_RNvMNtNtNtCsk2dDpYChjKI_14oneiros_engine7domains7persona5storeNtB2_12PersonaStore3new
FN:67,_RNvMNtNtNtCsk2dDpYChjKI_14oneiros_engine7domains7persona5storeNtB2_12PersonaStore3set
FN:25,_RNvMNtNtNtCsk2dDpYChjKI_14oneiros_engine7domains7persona5storeNtB2_12PersonaStore5reset
FN:15,_RNvMNtNtNtCsk2dDpYChjKI_14oneiros_engine7domains7persona5storeNtB2_12PersonaStore6handle
FN:72,_RNvMNtNtNtCsk2dDpYChjKI_14oneiros_engine7domains7persona5storeNtB2_12PersonaStore6remove
FN:30,_RNvMNtNtNtCsk2dDpYChjKI_14oneiros_engine7domains7persona5storeNtB2_12PersonaStore7migrate
FN:46,_RNCNvMNtNtNtCsk2dDpYChjKI_14oneiros_engine7domains7persona5storeNtB4_12PersonaStore3get0Ba_
FNDA:673,_RNvMNtNtNtCsk2dDpYChjKI_14oneiros_engine7domains7persona5storeNtB2_12PersonaStore13write_persona
FNDA:114,_RNvMNtNtNtCsk2dDpYChjKI_14oneiros_engine7domains7persona5storeNtB2_12PersonaStore3get
FNDA:7981,_RNvMNtNtNtCsk2dDpYChjKI_14oneiros_engine7domains7persona5storeNtB2_12PersonaStore3new
FNDA:673,_RNvMNtNtNtCsk2dDpYChjKI_14oneiros_engine7domains7persona5storeNtB2_12PersonaStore3set
FNDA:288,_RNvMNtNtNtCsk2dDpYChjKI_14oneiros_engine7domains7persona5storeNtB2_12PersonaStore5reset
FNDA:7005,_RNvMNtNtNtCsk2dDpYChjKI_14oneiros_engine7domains7persona5storeNtB2_12PersonaStore6handle
FNDA:2,_RNvMNtNtNtCsk2dDpYChjKI_14oneiros_engine7domains7persona5storeNtB2_12PersonaStore6remove
FNDA:574,_RNvMNtNtNtCsk2dDpYChjKI_14oneiros_engine7domains7persona5storeNtB2_12PersonaStore7migrate
FNDA:114,_RNCNvMNtNtNtCsk2dDpYChjKI_14oneiros_engine7domains7persona5storeNtB4_12PersonaStore3get0Ba_
FNF:9
FNH:9
DA:11,7981
DA:12,7981
DA:13,7981
DA:15,7005
DA:16,7005
DA:17,675
DA:18,673
DA:19,2
DA:21,6330
DA:22,7005
DA:23,7005
DA:25,288
DA:26,288
DA:27,288
DA:28,288
DA:30,574
DA:31,574
DA:32,574
DA:33,574
DA:34,574
DA:35,574
DA:36,574
DA:37,0
DA:38,574
DA:39,574
DA:41,114
DA:42,114
DA:43,114
DA:44,114
DA:46,114
DA:48,114
DA:49,114
DA:50,114
DA:52,114
DA:54,0
DA:55,114
DA:56,114
DA:57,114
DA:58,114
DA:59,114
DA:60,114
DA:61,114
DA:62,0
DA:63,0
DA:65,114
DA:67,673
DA:68,673
DA:69,673
DA:70,673
DA:72,2
DA:73,2
DA:74,2
DA:75,2
DA:76,2
DA:77,0
DA:78,2
DA:79,2
DA:81,673
DA:82,673
DA:83,673
DA:84,673
DA:85,673
DA:86,673
DA:87,673
DA:89,0
DA:90,673
DA:91,673
BRF:0
BRH:0
LF:68
LH:62
end_of_record
SF:/Users/esmevane/Code/projects/oneiros/crates/oneiros-engine/src/domains/persona/view.rs
FN:39,_RNvMNtNtNtCsk2dDpYChjKI_14oneiros_engine7domains7persona4viewNtB2_11PersonaView16vocabulary_table
FN:12,_RNvMNtNtNtCsk2dDpYChjKI_14oneiros_engine7domains7persona4viewNtB2_11PersonaView3mcp
FN:8,_RNvMNtNtNtCsk2dDpYChjKI_14oneiros_engine7domains7persona4viewNtB2_11PersonaView3new
FN:53,_RNvMNtNtNtCsk2dDpYChjKI_14oneiros_engine7domains7persona4viewNtB2_11PersonaView6render
FN:18,_RNCNvMNtNtNtCsk2dDpYChjKI_14oneiros_engine7domains7persona4viewNtB4_11PersonaView3mcp0Ba_
FNDA:0,_RNvMNtNtNtCsk2dDpYChjKI_14oneiros_engine7domains7persona4viewNtB2_11PersonaView16vocabulary_table
FNDA:0,_RNvMNtNtNtCsk2dDpYChjKI_14oneiros_engine7domains7persona4viewNtB2_11PersonaView3mcp
FNDA:111,_RNvMNtNtNtCsk2dDpYChjKI_14oneiros_engine7domains7persona4viewNtB2_11PersonaView3new
FNDA:111,_RNvMNtNtNtCsk2dDpYChjKI_14oneiros_engine7domains7persona4viewNtB2_11PersonaView6render
FNDA:0,_RNCNvMNtNtNtCsk2dDpYChjKI_14oneiros_engine7domains7persona4viewNtB4_11PersonaView3mcp0Ba_
FNF:5
FNH:2
DA:8,111
DA:9,111
DA:10,111
DA:12,0
DA:13,0
DA:14,0
DA:15,0
DA:16,0
DA:17,0
DA:18,0
DA:19,0
DA:20,0
DA:22,0
DA:23,0
DA:24,0
DA:25,0
DA:26,0
DA:27,0
DA:29,0
DA:30,0
DA:31,0
DA:33,0
DA:34,0
DA:37,0
DA:39,0
DA:40,0
DA:41,0
DA:42,0
DA:43,0
DA:44,0
DA:45,0
DA:46,0
DA:47,0
DA:48,0
DA:50,0
DA:51,0
DA:53,111
DA:54,111
DA:55,88
DA:56,88
DA:57,88
DA:58,88
DA:59,88
DA:60,88
DA:61,88
DA:63,88
DA:64,88
DA:65,88
DA:66,88
DA:68,88
DA:70,17
DA:71,17
DA:72,17
DA:73,17
DA:74,17
DA:75,17
DA:76,17
DA:77,17
DA:78,17
DA:81,2
DA:82,2
DA:83,2
DA:84,2
DA:86,3
DA:87,3
DA:88,3
DA:89,2
DA:91,2
DA:93,2
DA:94,2
DA:95,2
DA:96,2
DA:99,2
DA:100,2
DA:101,2
DA:102,2
DA:104,2
DA:105,2
DA:106,2
DA:107,2
DA:108,2
DA:109,2
DA:110,2
DA:112,2
DA:113,2
DA:114,2
DA:115,2
DA:117,2
DA:120,111
BRF:0
BRH:0
LF:90
LH:56
end_of_record
SF:/Users/esmevane/Code/projects/oneiros/crates/oneiros-engine/src/domains/pressure/docs.rs
FN:16,_RNvMNtNtNtCsk2dDpYChjKI_14oneiros_engine7domains8pressure4docsNtB2_12PressureDocs13resource_docs
FN:9,_RNvMNtNtNtCsk2dDpYChjKI_14oneiros_engine7domains8pressure4docsNtB2_12PressureDocs3tag
FNDA:608,_RNvMNtNtNtCsk2dDpYChjKI_14oneiros_engine7domains8pressure4docsNtB2_12PressureDocs13resource_docs
FNDA:912,_RNvMNtNtNtCsk2dDpYChjKI_14oneiros_engine7domains8pressure4docsNtB2_12PressureDocs3tag
FNF:2
FNH:2
DA:9,912
DA:10,912
DA:11,912
DA:12,912
DA:13,912
DA:14,912
DA:16,608
DA:17,608
DA:18,608
DA:19,304
DA:20,304
DA:21,304
DA:22,304
DA:23,304
DA:24,304
DA:25,304
DA:26,304
DA:27,304
DA:28,304
DA:29,304
DA:32,304
DA:34,608
BRF:0
BRH:0
LF:22
LH:22
end_of_record
SF:/Users/esmevane/Code/projects/oneiros/crates/oneiros-engine/src/domains/pressure/features/cli.rs
FN:15,_RNCNvMNtNtNtNtCsk2dDpYChjKI_14oneiros_engine7domains8pressure8features3cliNtB4_16PressureCommands7execute0Bc_
FN:12,_RNvMNtNtNtNtCsk2dDpYChjKI_14oneiros_engine7domains8pressure8features3cliNtB2_16PressureCommands7execute
FNDA:6,_RNCNvMNtNtNtNtCsk2dDpYChjKI_14oneiros_engine7domains8pressure8features3cliNtB4_16PressureCommands7execute0Bc_
FNDA:6,_RNvMNtNtNtNtCsk2dDpYChjKI_14oneiros_engine7domains8pressure8features3cliNtB2_16PressureCommands7execute
FNF:2
FNH:2
DA:12,6
DA:13,6
DA:14,6
DA:15,6
DA:16,6
DA:18,6
DA:19,6
DA:20,6
DA:21,6
DA:22,6
DA:23,6
DA:24,6
BRF:0
BRH:0
LF:13
LH:13
end_of_record
SF:/Users/esmevane/Code/projects/oneiros/crates/oneiros-engine/src/domains/pressure/features/http.rs
FN:15,_RNCNvMNtNtNtNtCsk2dDpYChjKI_14oneiros_engine7domains8pressure8features4httpNtB4_14PressureRouter6routes0Bc_
FN:21,_RNCNvMNtNtNtNtCsk2dDpYChjKI_14oneiros_engine7domains8pressure8features4httpNtB4_14PressureRouter6routess_0Bc_
FN:32,_RNCNvNtNtNtNtCsk2dDpYChjKI_14oneiros_engine7domains8pressure8features4http3get0Bb_
FN:42,_RNCNvNtNtNtNtCsk2dDpYChjKI_14oneiros_engine7domains8pressure8features4http4list0Bb_
FN:9,_RNvMNtNtNtNtCsk2dDpYChjKI_14oneiros_engine7domains8pressure8features4httpNtB2_14PressureRouter6routes
FN:29,_RNvNtNtNtNtCsk2dDpYChjKI_14oneiros_engine7domains8pressure8features4http3get
FN:42,_RNvNtNtNtNtCsk2dDpYChjKI_14oneiros_engine7domains8pressure8features4http4list
FNDA:304,_RNCNvMNtNtNtNtCsk2dDpYChjKI_14oneiros_engine7domains8pressure8features4httpNtB4_14PressureRouter6routes0Bc_
FNDA:304,_RNCNvMNtNtNtNtCsk2dDpYChjKI_14oneiros_engine7domains8pressure8features4httpNtB4_14PressureRouter6routess_0Bc_
FNDA:15,_RNCNvNtNtNtNtCsk2dDpYChjKI_14oneiros_engine7domains8pressure8features4http3get0Bb_
FNDA:0,_RNCNvNtNtNtNtCsk2dDpYChjKI_14oneiros_engine7domains8pressure8features4http4list0Bb_
FNDA:304,_RNvMNtNtNtNtCsk2dDpYChjKI_14oneiros_engine7domains8pressure8features4httpNtB2_14PressureRouter6routes
FNDA:15,_RNvNtNtNtNtCsk2dDpYChjKI_14oneiros_engine7domains8pressure8features4http3get
FNDA:0,_RNvNtNtNtNtCsk2dDpYChjKI_14oneiros_engine7domains8pressure8features4http4list
FNF:7
FNH:5
DA:9,304
DA:10,304
DA:11,304
DA:12,304
DA:13,304
DA:14,304
DA:15,304
DA:16,304
DA:17,304
DA:19,304
DA:20,304
DA:21,304
DA:22,304
DA:23,304
DA:26,304
DA:29,15
DA:30,15
DA:31,15
DA:32,15
DA:34,15
DA:35,15
DA:36,15
DA:37,15
DA:38,15
DA:40,15
DA:42,0
DA:43,0
DA:44,0
BRF:0
BRH:0
LF:32
LH:28
end_of_record
SF:/Users/esmevane/Code/projects/oneiros/crates/oneiros-engine/src/domains/pressure/features/mcp.rs
FN:25,_RNCNvNtNtNtNtNtCsk2dDpYChjKI_14oneiros_engine7domains8pressure8features3mcp12pressure_mcp8resource0Bd_
FN:22,_RNvNtNtNtNtNtCsk2dDpYChjKI_14oneiros_engine7domains8pressure8features3mcp12pressure_mcp8resource
FN:14,_RNCNvMNtNtNtNtCsk2dDpYChjKI_14oneiros_engine7domains8pressure8features3mcpNtB4_11PressureMcp8resource0Bc_
FN:10,_RNvMNtNtNtNtCsk2dDpYChjKI_14oneiros_engine7domains8pressure8features3mcpNtB2_11PressureMcp8resource
FN:6,_RNvMNtNtNtNtCsk2dDpYChjKI_14oneiros_engine7domains8pressure8features3mcpNtB2_11PressureMcp9resources
FNDA:0,_RNCNvNtNtNtNtNtCsk2dDpYChjKI_14oneiros_engine7domains8pressure8features3mcp12pressure_mcp8resource0Bd_
FNDA:0,_RNvNtNtNtNtNtCsk2dDpYChjKI_14oneiros_engine7domains8pressure8features3mcp12pressure_mcp8resource
FNDA:0,_RNCNvMNtNtNtNtCsk2dDpYChjKI_14oneiros_engine7domains8pressure8features3mcpNtB4_11PressureMcp8resource0Bc_
FNDA:0,_RNvMNtNtNtNtCsk2dDpYChjKI_14oneiros_engine7domains8pressure8features3mcpNtB2_11PressureMcp8resource
FNDA:1,_RNvMNtNtNtNtCsk2dDpYChjKI_14oneiros_engine7domains8pressure8features3mcpNtB2_11PressureMcp9resources
FNF:5
FNH:1
DA:6,1
DA:7,1
DA:8,1
DA:10,0
DA:11,0
DA:12,0
DA:13,0
DA:14,0
DA:15,0
DA:16,0
DA:22,0
DA:23,0
DA:24,0
DA:25,0
DA:26,0
DA:27,0
DA:28,0
DA:29,0
DA:31,0
DA:35,0
DA:36,0
DA:37,0
DA:38,0
DA:39,0
DA:40,0
DA:41,0
BRF:0
BRH:0
LF:28
LH:3
end_of_record
SF:/Users/esmevane/Code/projects/oneiros/crates/oneiros-engine/src/domains/pressure/features/projections.rs
FN:20,_RNCNvNtNtNtNtCsk2dDpYChjKI_14oneiros_engine7domains8pressure8features11projections11PROJECTIONS0Bb_
FN:22,_RNCNvNtNtNtNtCsk2dDpYChjKI_14oneiros_engine7domains8pressure8features11projections11PROJECTIONSs0_0Bb_
FN:21,_RNCNvNtNtNtNtCsk2dDpYChjKI_14oneiros_engine7domains8pressure8features11projections11PROJECTIONSs_0Bb_
FN:13,_RNvMNtNtNtNtCsk2dDpYChjKI_14oneiros_engine7domains8pressure8features11projectionsNtB2_19PressureProjections3all
FNDA:574,_RNCNvNtNtNtNtCsk2dDpYChjKI_14oneiros_engine7domains8pressure8features11projections11PROJECTIONS0Bb_
FNDA:288,_RNCNvNtNtNtNtCsk2dDpYChjKI_14oneiros_engine7domains8pressure8features11projections11PROJECTIONSs0_0Bb_
FNDA:7005,_RNCNvNtNtNtNtCsk2dDpYChjKI_14oneiros_engine7domains8pressure8features11projections11PROJECTIONSs_0Bb_
FNDA:5825,_RNvMNtNtNtNtCsk2dDpYChjKI_14oneiros_engine7domains8pressure8features11projectionsNtB2_19PressureProjections3all
FNF:4
FNH:4
DA:13,5825
DA:14,5825
DA:15,5825
DA:20,574
DA:21,7005
DA:22,288
BRF:0
BRH:0
LF:6
LH:6
end_of_record
SF:/Users/esmevane/Code/projects/oneiros/crates/oneiros-engine/src/domains/pressure/features/skills.rs
FN:6,_RNvMNtNtNtNtCsk2dDpYChjKI_14oneiros_engine7domains8pressure8features6skillsNtB2_14PressureSkills3all
FNDA:12,_RNvMNtNtNtNtCsk2dDpYChjKI_14oneiros_engine7domains8pressure8features6skillsNtB2_14PressureSkills3all
FNF:1
FNH:1
DA:6,12
DA:7,12
DA:8,12
BRF:0
BRH:0
LF:3
LH:3
end_of_record
SF:/Users/esmevane/Code/projects/oneiros/crates/oneiros-engine/src/domains/pressure/features/state.rs
FN:401,_RNvNtNtNtNtNtCsk2dDpYChjKI_14oneiros_engine7domains8pressure8features5state5tests12seeded_canon
FN:480,_RNvNtNtNtNtNtCsk2dDpYChjKI_14oneiros_engine7domains8pressure8features5state5testss_25counts_working_cognitions
FN:431,_RNvNtNtNtNtNtCsk2dDpYChjKI_14oneiros_engine7domains8pressure8features5state5testss_25ignores_irrelevant_events
FN:451,_RNvNtNtNtNtNtCsk2dDpYChjKI_14oneiros_engine7domains8pressure8features5state5testss_27computes_on_cognition_added
FN:588,_RNvNtNtNtNtNtCsk2dDpYChjKI_14oneiros_engine7domains8pressure8features5state5testss_28tracks_continuity_timestamps
FN:524,_RNvNtNtNtNtNtCsk2dDpYChjKI_14oneiros_engine7domains8pressure8features5state5testss_45orphaned_cognitions_decrease_with_connections
FN:382,_RNvMNtNtNtNtCsk2dDpYChjKI_14oneiros_engine7domains8pressure8features5stateNtB2_13PressureState11hours_since
FN:166,_RNvMNtNtNtNtCsk2dDpYChjKI_14oneiros_engine7domains8pressure8features5stateNtB2_13PressureState13compute_gauge
FN:153,_RNvMNtNtNtNtCsk2dDpYChjKI_14oneiros_engine7domains8pressure8features5stateNtB2_13PressureState14collect_ref_id
FN:144,_RNvMNtNtNtNtCsk2dDpYChjKI_14oneiros_engine7domains8pressure8features5stateNtB2_13PressureState14referenced_ids
FN:101,_RNvMNtNtNtNtCsk2dDpYChjKI_14oneiros_engine7domains8pressure8features5stateNtB2_13PressureState14resolve_agents
FN:70,_RNvMNtNtNtNtCsk2dDpYChjKI_14oneiros_engine7domains8pressure8features5stateNtB2_13PressureState16track_continuity
FN:254,_RNvMNtNtNtNtCsk2dDpYChjKI_14oneiros_engine7domains8pressure8features5stateNtB2_13PressureState17compute_catharsis
FN:300,_RNvMNtNtNtNtCsk2dDpYChjKI_14oneiros_engine7domains8pressure8features5stateNtB2_13PressureState17compute_recollect
FN:195,_RNvMNtNtNtNtCsk2dDpYChjKI_14oneiros_engine7domains8pressure8features5stateNtB2_13PressureState18compute_introspect
FN:347,_RNvMNtNtNtNtCsk2dDpYChjKI_14oneiros_engine7domains8pressure8features5stateNtB2_13PressureState18compute_retrospect
FN:14,_RNvMNtNtNtNtCsk2dDpYChjKI_14oneiros_engine7domains8pressure8features5stateNtB2_13PressureState6reduce
FN:65,_RNvMNtNtNtNtCsk2dDpYChjKI_14oneiros_engine7domains8pressure8features5stateNtB2_13PressureState7reducer
FN:512,_RNCNvNtNtNtNtNtCsk2dDpYChjKI_14oneiros_engine7domains8pressure8features5state5testss_25counts_working_cognitions0Bd_
FN:551,_RNCNvNtNtNtNtNtCsk2dDpYChjKI_14oneiros_engine7domains8pressure8features5state5testss_45orphaned_cognitions_decrease_with_connections0Bd_
FN:578,_RNCNvNtNtNtNtNtCsk2dDpYChjKI_14oneiros_engine7domains8pressure8features5state5testss_45orphaned_cognitions_decrease_with_connectionss_0Bd_
FN:263,_RNCNvMNtNtNtNtCsk2dDpYChjKI_14oneiros_engine7domains8pressure8features5stateNtB4_13PressureState17compute_catharsis0Bc_
FN:275,_RNCNvMNtNtNtNtCsk2dDpYChjKI_14oneiros_engine7domains8pressure8features5stateNtB4_13PressureState17compute_catharsiss0_0Bc_
FN:282,_RNCNvMNtNtNtNtCsk2dDpYChjKI_14oneiros_engine7domains8pressure8features5stateNtB4_13PressureState17compute_catharsiss2_0Bc_
FN:288,_RNCNvMNtNtNtNtCsk2dDpYChjKI_14oneiros_engine7domains8pressure8features5stateNtB4_13PressureState17compute_catharsiss3_0Bc_
FN:269,_RNCNvMNtNtNtNtCsk2dDpYChjKI_14oneiros_engine7domains8pressure8features5stateNtB4_13PressureState17compute_catharsiss_0Bc_
FN:308,_RNCNvMNtNtNtNtCsk2dDpYChjKI_14oneiros_engine7domains8pressure8features5stateNtB4_13PressureState17compute_recollect0Bc_
FN:318,_RNCNvMNtNtNtNtCsk2dDpYChjKI_14oneiros_engine7domains8pressure8features5stateNtB4_13PressureState17compute_recollects0_0Bc_
FN:324,_RNCNvMNtNtNtNtCsk2dDpYChjKI_14oneiros_engine7domains8pressure8features5stateNtB4_13PressureState17compute_recollects1_0Bc_
FN:330,_RNCNvMNtNtNtNtCsk2dDpYChjKI_14oneiros_engine7domains8pressure8features5stateNtB4_13PressureState17compute_recollects2_0Bc_
FN:313,_RNCNvMNtNtNtNtCsk2dDpYChjKI_14oneiros_engine7domains8pressure8features5stateNtB4_13PressureState17compute_recollects_0Bc_
FN:203,_RNCNvMNtNtNtNtCsk2dDpYChjKI_14oneiros_engine7domains8pressure8features5stateNtB4_13PressureState18compute_introspect0Bc_
FN:220,_RNCNvMNtNtNtNtCsk2dDpYChjKI_14oneiros_engine7domains8pressure8features5stateNtB4_13PressureState18compute_introspects2_0Bc_
FN:229,_RNCNvMNtNtNtNtCsk2dDpYChjKI_14oneiros_engine7domains8pressure8features5stateNtB4_13PressureState18compute_introspects3_0Bc_
FN:234,_RNCNvMNtNtNtNtCsk2dDpYChjKI_14oneiros_engine7domains8pressure8features5stateNtB4_13PressureState18compute_introspects4_0Bc_
FN:240,_RNCNvMNtNtNtNtCsk2dDpYChjKI_14oneiros_engine7domains8pressure8features5stateNtB4_13PressureState18compute_introspects5_0Bc_
FN:209,_RNCNvMNtNtNtNtCsk2dDpYChjKI_14oneiros_engine7domains8pressure8features5stateNtB4_13PressureState18compute_introspects_0Bc_
FN:351,_RNCNvMNtNtNtNtCsk2dDpYChjKI_14oneiros_engine7domains8pressure8features5stateNtB4_13PressureState18compute_retrospect0Bc_
FN:363,_RNCNvMNtNtNtNtCsk2dDpYChjKI_14oneiros_engine7domains8pressure8features5stateNtB4_13PressureState18compute_retrospects1_0Bc_
FN:371,_RNCNvMNtNtNtNtCsk2dDpYChjKI_14oneiros_engine7domains8pressure8features5stateNtB4_13PressureState18compute_retrospects3_0Bc_
FN:356,_RNCNvMNtNtNtNtCsk2dDpYChjKI_14oneiros_engine7domains8pressure8features5stateNtB4_13PressureState18compute_retrospects_0Bc_
FN:21,_RNCNvMNtNtNtNtCsk2dDpYChjKI_14oneiros_engine7domains8pressure8features5stateNtB4_13PressureState6reduce0Bc_
FN:43,_RNCNvMNtNtNtNtCsk2dDpYChjKI_14oneiros_engine7domains8pressure8features5stateNtB4_13PressureState6reduces0_0Bc_
FN:30,_RNCNvMNtNtNtNtCsk2dDpYChjKI_14oneiros_engine7domains8pressure8features5stateNtB4_13PressureState6reduces_0Bc_
FNDA:5,_RNvNtNtNtNtNtCsk2dDpYChjKI_14oneiros_engine7domains8pressure8features5state5tests12seeded_canon
FNDA:1,_RNvNtNtNtNtNtCsk2dDpYChjKI_14oneiros_engine7domains8pressure8features5state5testss_25counts_working_cognitions
FNDA:1,_RNvNtNtNtNtNtCsk2dDpYChjKI_14oneiros_engine7domains8pressure8features5state5testss_25ignores_irrelevant_events
FNDA:1,_RNvNtNtNtNtNtCsk2dDpYChjKI_14oneiros_engine7domains8pressure8features5state5testss_27computes_on_cognition_added
FNDA:1,_RNvNtNtNtNtNtCsk2dDpYChjKI_14oneiros_engine7domains8pressure8features5state5testss_28tracks_continuity_timestamps
FNDA:1,_RNvNtNtNtNtNtCsk2dDpYChjKI_14oneiros_engine7domains8pressure8features5state5testss_45orphaned_cognitions_decrease_with_connections
FNDA:2001,_RNvMNtNtNtNtCsk2dDpYChjKI_14oneiros_engine7domains8pressure8features5stateNtB2_13PressureState11hours_since
FNDA:2002,_RNvMNtNtNtNtCsk2dDpYChjKI_14oneiros_engine7domains8pressure8features5stateNtB2_13PressureState13compute_gauge
FNDA:74,_RNvMNtNtNtNtCsk2dDpYChjKI_14oneiros_engine7domains8pressure8features5stateNtB2_13PressureState14collect_ref_id
FNDA:610,_RNvMNtNtNtNtCsk2dDpYChjKI_14oneiros_engine7domains8pressure8features5stateNtB2_13PressureState14referenced_ids
FNDA:7011,_RNvMNtNtNtNtCsk2dDpYChjKI_14oneiros_engine7domains8pressure8features5stateNtB2_13PressureState14resolve_agents
FNDA:7011,_RNvMNtNtNtNtCsk2dDpYChjKI_14oneiros_engine7domains8pressure8features5stateNtB2_13PressureState16track_continuity
FNDA:503,_RNvMNtNtNtNtCsk2dDpYChjKI_14oneiros_engine7domains8pressure8features5stateNtB2_13PressureState17compute_catharsis
FNDA:498,_RNvMNtNtNtNtCsk2dDpYChjKI_14oneiros_engine7domains8pressure8features5stateNtB2_13PressureState17compute_recollect
FNDA:503,_RNvMNtNtNtNtCsk2dDpYChjKI_14oneiros_engine7domains8pressure8features5stateNtB2_13PressureState18compute_introspect
FNDA:498,_RNvMNtNtNtNtCsk2dDpYChjKI_14oneiros_engine7domains8pressure8features5stateNtB2_13PressureState18compute_retrospect
FNDA:7011,_RNvMNtNtNtNtCsk2dDpYChjKI_14oneiros_engine7domains8pressure8features5stateNtB2_13PressureState6reduce
FNDA:580,_RNvMNtNtNtNtCsk2dDpYChjKI_14oneiros_engine7domains8pressure8features5stateNtB2_13PressureState7reducer
FNDA:1,_RNCNvNtNtNtNtNtCsk2dDpYChjKI_14oneiros_engine7domains8pressure8features5state5testss_25counts_working_cognitions0Bd_
FNDA:2,_RNCNvNtNtNtNtNtCsk2dDpYChjKI_14oneiros_engine7domains8pressure8features5state5testss_45orphaned_cognitions_decrease_with_connections0Bd_
FNDA:2,_RNCNvNtNtNtNtNtCsk2dDpYChjKI_14oneiros_engine7domains8pressure8features5state5testss_45orphaned_cognitions_decrease_with_connectionss_0Bd_
FNDA:2834,_RNCNvMNtNtNtNtCsk2dDpYChjKI_14oneiros_engine7domains8pressure8features5stateNtB4_13PressureState17compute_catharsis0Bc_
FNDA:87,_RNCNvMNtNtNtNtCsk2dDpYChjKI_14oneiros_engine7domains8pressure8features5stateNtB4_13PressureState17compute_catharsiss0_0Bc_
FNDA:4,_RNCNvMNtNtNtNtCsk2dDpYChjKI_14oneiros_engine7domains8pressure8features5stateNtB4_13PressureState17compute_catharsiss2_0Bc_
FNDA:2817,_RNCNvMNtNtNtNtCsk2dDpYChjKI_14oneiros_engine7domains8pressure8features5stateNtB4_13PressureState17compute_catharsiss3_0Bc_
FNDA:2817,_RNCNvMNtNtNtNtCsk2dDpYChjKI_14oneiros_engine7domains8pressure8features5stateNtB4_13PressureState17compute_catharsiss_0Bc_
FNDA:264,_RNCNvMNtNtNtNtCsk2dDpYChjKI_14oneiros_engine7domains8pressure8features5stateNtB4_13PressureState17compute_recollect0Bc_
FNDA:262,_RNCNvMNtNtNtNtCsk2dDpYChjKI_14oneiros_engine7domains8pressure8features5stateNtB4_13PressureState17compute_recollects0_0Bc_
FNDA:87,_RNCNvMNtNtNtNtCsk2dDpYChjKI_14oneiros_engine7domains8pressure8features5stateNtB4_13PressureState17compute_recollects1_0Bc_
FNDA:87,_RNCNvMNtNtNtNtCsk2dDpYChjKI_14oneiros_engine7domains8pressure8features5stateNtB4_13PressureState17compute_recollects2_0Bc_
FNDA:262,_RNCNvMNtNtNtNtCsk2dDpYChjKI_14oneiros_engine7domains8pressure8features5stateNtB4_13PressureState17compute_recollects_0Bc_
FNDA:2834,_RNCNvMNtNtNtNtCsk2dDpYChjKI_14oneiros_engine7domains8pressure8features5stateNtB4_13PressureState18compute_introspect0Bc_
FNDA:19,_RNCNvMNtNtNtNtCsk2dDpYChjKI_14oneiros_engine7domains8pressure8features5stateNtB4_13PressureState18compute_introspects2_0Bc_
FNDA:5,_RNCNvMNtNtNtNtCsk2dDpYChjKI_14oneiros_engine7domains8pressure8features5stateNtB4_13PressureState18compute_introspects3_0Bc_
FNDA:259,_RNCNvMNtNtNtNtCsk2dDpYChjKI_14oneiros_engine7domains8pressure8features5stateNtB4_13PressureState18compute_introspects4_0Bc_
FNDA:2354,_RNCNvMNtNtNtNtCsk2dDpYChjKI_14oneiros_engine7domains8pressure8features5stateNtB4_13PressureState18compute_introspects5_0Bc_
FNDA:2817,_RNCNvMNtNtNtNtCsk2dDpYChjKI_14oneiros_engine7domains8pressure8features5stateNtB4_13PressureState18compute_introspects_0Bc_
FNDA:264,_RNCNvMNtNtNtNtCsk2dDpYChjKI_14oneiros_engine7domains8pressure8features5stateNtB4_13PressureState18compute_retrospect0Bc_
FNDA:262,_RNCNvMNtNtNtNtCsk2dDpYChjKI_14oneiros_engine7domains8pressure8features5stateNtB4_13PressureState18compute_retrospects1_0Bc_
FNDA:87,_RNCNvMNtNtNtNtCsk2dDpYChjKI_14oneiros_engine7domains8pressure8features5stateNtB4_13PressureState18compute_retrospects3_0Bc_
FNDA:262,_RNCNvMNtNtNtNtCsk2dDpYChjKI_14oneiros_engine7domains8pressure8features5stateNtB4_13PressureState18compute_retrospects_0Bc_
FNDA:610,_RNCNvMNtNtNtNtCsk2dDpYChjKI_14oneiros_engine7domains8pressure8features5stateNtB4_13PressureState6reduce0Bc_
FNDA:4135,_RNCNvMNtNtNtNtCsk2dDpYChjKI_14oneiros_engine7domains8pressure8features5stateNtB4_13PressureState6reduces0_0Bc_
FNDA:2002,_RNCNvMNtNtNtNtCsk2dDpYChjKI_14oneiros_engine7domains8pressure8features5stateNtB4_13PressureState6reduces_0Bc_
FNF:44
FNH:44
DA:14,7011
DA:16,7011
DA:19,7011
DA:20,7011
DA:21,7011
DA:22,7011
DA:24,7011
DA:25,6401
DA:26,610
DA:28,610
DA:29,610
DA:30,2002
DA:33,610
DA:35,610
DA:36,610
DA:37,2002
DA:38,2002
DA:40,2002
DA:41,2002
DA:42,2002
DA:43,4135
DA:44,2002
DA:45,2002
DA:47,2002
DA:48,2002
DA:49,2002
DA:50,2002
DA:51,2002
DA:52,2002
DA:53,2002
DA:55,0
DA:58,2002
DA:59,2002
DA:60,2002
DA:62,610
DA:63,7011
DA:65,580
DA:66,580
DA:67,580
DA:70,7011
DA:71,124
DA:72,6
DA:73,6
DA:74,6
DA:75,6
DA:76,6
DA:77,6
DA:78,4
DA:79,4
DA:80,4
DA:81,4
DA:82,4
DA:83,4
DA:84,110
DA:85,110
DA:86,110
DA:87,110
DA:88,110
DA:89,110
DA:90,3
DA:91,3
DA:92,3
DA:93,3
DA:94,3
DA:95,3
DA:96,6888
DA:98,7011
DA:101,7011
DA:102,37
DA:103,347
DA:104,347
DA:105,347
DA:106,347
